ASxxxx Assembler V05.00  (Zilog Z80 / Hitachi HD64180), page 1.
Hexidecimal [16-Bits]



                              1 
                              2 ; +----------------------------------------------------+
                              3 ; | TRS-80 Model I Invasion Force Disassembly v1.00rc3 |
                              4 ; |    - by tcdev (msmcdoug@gmail.com)                 |
                              5 ; +----------------------------------------------------+
                              6 ;
                              7 ; Memory Map:
                              8 ;
                              9 ; $5000-$5F89 - Code
                             10 ; $5F8A-$67EE - Strings
                             11 ; $67EF-$69BA - Data & Variables (mixed)
                             12 ; $69BB-$6F9A - ASCII/Block Graphics
                             13 ; $6F9B-$6FDF - Variable space cleared each game
                             14 ; $6FE0-$6FFB - Stack
                             15 ; $6FFC-$7101 - Garbage?
                             16 
                             17 ; Processor       : z80 []
                             18 ; Target assembler: ASxxxx by Alan R. Baldwin v1.5
                             19        .area   idaseg (ABS)
                             20        .hd64 ; this is needed only for HD64180
                             21 
                             22 ; ===========================================================================
                             23 
                             24 ; *** BUILD OPTIONS
                             25 .define BUILD_OPT_ENHANCED
                     0000    26 .ifndef BUILD_OPT_ENHANCED
                             27 	; (un)comment as required
                             28 	;.define BUILD_OPT_MIXED_CASE
                             29 	.define BUILD_OPT_FIX_RAY_BUG
                             30 	;.define BUILD_OPT_KEYPAD_DIRS
                             31 .endif
                             32 ; *** end of BUILD OPTIONS
                             33 
                             34 ; *** derived - do not edit
                     0001    35 .ifdef BUILD_OPT_ENHANCED
                             36 	.define BUILD_OPT_MIXED_CASE
                             37 	.define BUILD_OPT_FIX_RAY_BUG
                             38 	.define BUILD_OPT_KEYPAD_DIRS
                             39 .endif
                             40 ; *** end of derived
                             41 
                             42 
                     3C00    43 VIDEO                   .equ    0x3c00
                             44 
                             45                         ;.org 0x5000
   5200                      46                         .org 0x5200
   5200 AF            [ 4]   47                         xor     a
                             48 ; START OF FUNCTION CHUNK FOR handle_low_power
                             49 
   5201                      50 START:
   5201 3E 03         [ 6]   51                         ld      a, #3
   5203 32 30 6A      [13]   52                         ld      (antimatter_pods), a
   5206 3E 06         [ 6]   53                         ld      a, #6
   5208 32 45 6A      [13]   54                         ld      (pod_speed), a
                             55 ; clear $45 bytes @$6f9b
ASxxxx Assembler V05.00  (Zilog Z80 / Hitachi HD64180), page 2.
Hexidecimal [16-Bits]



   520B 21 A1 71      [ 9]   56                         ld      hl, #antimatter_pod_tbl         ; start of scratch RAM
   520E 97            [ 4]   57                         sub     a
   520F 06 45         [ 6]   58                         ld      b, #0x45 ; 'E'                  ; length of scratch RAM
                             59 
   5211                      60 loc_5011:
   5211 77            [ 7]   61                         ld      (hl), a
   5212 23            [ 4]   62                         inc     hl
   5213 05            [ 4]   63                         dec     b                               ; done all bytes?
   5214 C2 11 52      [ 9]   64                         jp      NZ, loc_5011                    ; no, loop
   5217 3D            [ 4]   65                         dec     a                               ; $FF
   5218 32 B3 71      [13]   66                         ld      (eot), a                        ; flag end of pod table
   521B 31 01 72      [ 9]   67                         ld      sp, #STACK_WATERMARK
                             68 ; display title screen, prompt for speed factor
   521E 06 20         [ 6]   69                         ld      b, #0x20 ; ' '                  ; <SPACE>
   5220 CD F9 5E      [16]   70                         call    clear_video_with_B
   5223 11 3E 69      [ 9]   71                         ld      de, #aEnterSpeedFact            ; "ENTER SPEED FACTOR (0(FAST)-9(SLOW))"
   5226 CD 3E 5F      [16]   72                         call    print_string_last_line
   5229 21 00 3D      [ 9]   73                         ld      hl, # VIDEO+0x100
   522C 11 78 6D      [ 9]   74                         ld      de, #aTitle                     ; "  INVASION FORCE  -------  RADIO SHACK "
   522F CD 44 5F      [16]   75                         call    print_string
                             76 
   5232                      77 loc_5032:
   5232 CD B6 53      [16]   78                         call    keyboard_scan
   5235 CA 32 52      [ 9]   79                         jp      Z, loc_5032                     ; no key, loop
   5238 E6 0F         [ 6]   80                         and     #0xF                            ; low nibble of key (supposedly 0-9)
   523A 07            [ 3]   81                         rlca
   523B 07            [ 3]   82                         rlca                                    ; x4
   523C C6 10         [ 6]   83                         add     a, #16                          ; x4 + 16
   523E 32 AF 6B      [13]   84                         ld      (game_delay_factor), a
   5241 3E 02         [ 6]   85                         ld      a, #2
   5243 32 B0 6B      [13]   86                         ld      (time_to_jovian_fire), a
   5246 3E 10         [ 6]   87                         ld      a, #0x10                        ; init number of triton missiles (10)
   5248 32 BE 6B      [13]   88                         ld      (triton_misls), a
   524B 3E 08         [ 6]   89                         ld      a, #8                           ; init ion drive speed
   524D 32 04 6A      [13]   90                         ld      (ion_speed), a
   5250 3E 99         [ 6]   91                         ld      a, #0x99 ; 'ô'                  ; init power available (99%)
   5252 32 BD 6B      [13]   92                         ld      (power_avail), a
   5255 21 37 3F      [ 9]   93                         ld      hl, # VIDEO+0x337               ; init command entry buffer (on screen)
   5258 22 05 6A      [16]   94                         ld      (cmd_entry_addr), hl
                             95 ; print main display
   525B 21 A1 6D      [ 9]   96                         ld      hl, #aMainDisplay               ; " L-R SENSOR  %-MINE   ------RADIO SHACK"...
   525E 11 00 3C      [ 9]   97                         ld      de, #VIDEO
                             98 
   5261                      99 loc_5061:                                                       ; get char
   5261 7E            [ 6]  100                         ld      a, (hl)
   5262 12            [ 7]  101                         ld      (de), a                         ; write to video
   5263 13            [ 4]  102                         inc     de                              ; next video address
   5264 23            [ 4]  103                         inc     hl                              ; next source address
   5265 7A            [ 4]  104                         ld      a, d
   5266 FE 40         [ 6]  105                         cp      #0x40 ; '@'                     ; end of video?
   5268 C2 61 52      [ 9]  106                         jp      NZ, loc_5061                    ; no, loop
   526B 2A F4 69      [15]  107                         ld      hl, (chaser_addr)
   526E 36 A0         [ 9]  108                         ld      (hl), #0xA0 ; '†'               ; graphic at chaser location
                            109 ; init power distribution
                            110 ; 20, 10, 20, 20, 9, 11%
ASxxxx Assembler V05.00  (Zilog Z80 / Hitachi HD64180), page 3.
Hexidecimal [16-Bits]



   5270 21 99 6B      [ 9]  111                         ld      hl, #pwr_hypr_ion
   5273 06 04         [ 6]  112                         ld      b, #4                           ; 4 power distribution values to init
                            113 
   5275                     114 loc_5075:                                                       ; init power distibution to 20%
   5275 36 20         [ 9]  115                         ld      (hl), #0x20 ; ' '
   5277 23            [ 4]  116                         inc     hl                              ; next power value address
   5278 05            [ 4]  117                         dec     b                               ; done all values?
   5279 C2 75 52      [ 9]  118                         jp      NZ, loc_5075                    ; no, loop
   527C 36 09         [ 9]  119                         ld      (hl), #9                        ; init masers to 9%
   527E 23            [ 4]  120                         inc     hl                              ; next pwer value address
   527F 36 11         [ 9]  121                         ld      (hl), #0x11                     ; init triton missiles to 11%
   5281 3E 10         [ 6]  122                         ld      a, #0x10                        ; re-init lr power to 10%
   5283 32 9A 6B      [13]  123                         ld      (pwr_lr_sensor), a
                            124 ; zero quadrant data
   5286 11 2C 01      [ 9]  125                         ld      de, #300                        ; # bytes to clear
   5289 21 67 6A      [ 9]  126                         ld      hl, #quadrant_tbl               ; start of quadrant data
                            127 
   528C                     128 loc_508C:                                                       ; zero byte
   528C 36 00         [ 9]  129                         ld      (hl), #0
   528E 23            [ 4]  130                         inc     hl                              ; next location
   528F 1B            [ 4]  131                         dec     de
   5290 7A            [ 4]  132                         ld      a, d
   5291 B3            [ 4]  133                         or      e                               ; done all bytes?
   5292 C2 8C 52      [ 9]  134                         jp      NZ, loc_508C                    ; no, loop
                            135 
   5295                     136 init_jovians_left:
   5295 CD 05 5F      [16]  137                         call    rand_0_9
   5298 FE 03         [ 6]  138                         cp      #3                              ; less than 3?
   529A FA 95 52      [ 9]  139                         jp      M, init_jovians_left            ; yes, regenerate
   529D FE 06         [ 6]  140                         cp      #6                              ; greater than 5?
   529F F2 95 52      [ 9]  141                         jp      P, init_jovians_left            ; yes, regenerate
   52A2 07            [ 3]  142                         rlca
   52A3 07            [ 3]  143                         rlca
   52A4 07            [ 3]  144                         rlca
   52A5 07            [ 3]  145                         rlca                                    ; (3-5)*16
   52A6 47            [ 4]  146                         ld      b, a
   52A7 CD 05 5F      [16]  147                         call    rand_0_9
   52AA 80            [ 4]  148                         add     a, b                            ; (3-5)*16 + rnd()
   52AB 47            [ 4]  149                         ld      b, a                            ; jovians left to init
   52AC 32 5D 6A      [13]  150                         ld      (jovians_left), a
                            151 
   52AF                     152 loc_50AF:
   52AF CD 05 5F      [16]  153                         call    rand_0_9
   52B2 07            [ 3]  154                         rlca
   52B3 07            [ 3]  155                         rlca
   52B4 07            [ 3]  156                         rlca
   52B5 07            [ 3]  157                         rlca
   52B6 4F            [ 4]  158                         ld      c, a
   52B7 CD 05 5F      [16]  159                         call    rand_0_9
   52BA 81            [ 4]  160                         add     a, c                            ; random quadrant
   52BB C5            [11]  161                         push    bc
   52BC CD 9F 5D      [16]  162                         call    get_ptr_quadrant_A_data
   52BF C1            [ 9]  163                         pop     bc
   52C0 7E            [ 6]  164                         ld      a, (hl)                         ; get warships in quadrant
   52C1 A7            [ 4]  165                         and     a                               ; zero?
ASxxxx Assembler V05.00  (Zilog Z80 / Hitachi HD64180), page 4.
Hexidecimal [16-Bits]



   52C2 C2 AF 52      [ 9]  166                         jp      NZ, loc_50AF                    ; no, regenerate
                            167 
   52C5                     168 loc_50C5:
   52C5 CD 05 5F      [16]  169                         call    rand_0_9
   52C8 FE 05         [ 6]  170                         cp      #5                              ; greater than 4?
   52CA F2 C5 52      [ 9]  171                         jp      P, loc_50C5                     ; yes, regenerate
   52CD 3D            [ 4]  172                         dec     a
   52CE B8            [ 4]  173                         cp      b                               ; more than jovians left?
   52CF F2 C5 52      [ 9]  174                         jp      P, loc_50C5                     ; yes, regenerate
   52D2 3C            [ 4]  175                         inc     a
   52D3 77            [ 7]  176                         ld      (hl), a                         ; init warships in quadrant
   52D4 A7            [ 4]  177                         and     a                               ; zero?
   52D5 CA AF 52      [ 9]  178                         jp      Z, loc_50AF                     ; yes, regenerate
   52D8 57            [ 4]  179                         ld      d, a
   52D9 78            [ 4]  180                         ld      a, b                            ; jovians left to init
                            181 
   52DA                     182 loc_50DA:
   52DA C6 99         [ 6]  183                         add     a, #0x99 ; 'ô'
   52DC 27            [ 4]  184                         daa                                     ; all done?
   52DD CA E8 52      [ 9]  185                         jp      Z, init_stars                   ; yes, go
   52E0 15            [ 4]  186                         dec     d                               ; done for this quadrant?
   52E1 C2 DA 52      [ 9]  187                         jp      NZ, loc_50DA                    ; no, loop
   52E4 47            [ 4]  188                         ld      b, a                            ; update jovians left to init
   52E5 C3 AF 52      [ 9]  189                         jp      loc_50AF                        ; loop
                            190 ; ---------------------------------------------------------------------------
                            191 ; 0-9 stars in each quadrant
                            192 
   52E8                     193 init_stars:                                                     ; quadrant data
   52E8 21 67 6A      [ 9]  194                         ld      hl, #quadrant_tbl
   52EB 0E 64         [ 6]  195                         ld      c, #100                         ; # quadrants to init
                            196 
   52ED                     197 loc_50ED:
   52ED CD 05 5F      [16]  198                         call    rand_0_9
   52F0 23            [ 4]  199                         inc     hl
   52F1 23            [ 4]  200                         inc     hl
   52F2 77            [ 7]  201                         ld      (hl), a                         ; init stars in quadrant
   52F3 23            [ 4]  202                         inc     hl                              ; next quadrant
   52F4 0D            [ 4]  203                         dec     c                               ; done all quadrants?
   52F5 C2 ED 52      [ 9]  204                         jp      NZ, loc_50ED                    ; no, loop
                            205 ; 1-3 space stations in the game
                            206 
   52F8                     207 init_space_stations:
   52F8 CD 05 5F      [16]  208                         call    rand_0_9
   52FB A7            [ 4]  209                         and     a                               ; zero?
   52FC CA F8 52      [ 9]  210                         jp      Z, init_space_stations          ; yes, regenerate
   52FF FE 04         [ 6]  211                         cp      #4                              ; greater than 3?
   5301 F2 F8 52      [ 9]  212                         jp      P, init_space_stations          ; yes, regenerate
   5304 4F            [ 4]  213                         ld      c, a                            ; (1-3)
                            214 
   5305                     215 loc_5105:
   5305 CD 05 5F      [16]  216                         call    rand_0_9
   5308 07            [ 3]  217                         rlca
   5309 07            [ 3]  218                         rlca
   530A 07            [ 3]  219                         rlca
   530B 07            [ 3]  220                         rlca
ASxxxx Assembler V05.00  (Zilog Z80 / Hitachi HD64180), page 5.
Hexidecimal [16-Bits]



   530C 47            [ 4]  221                         ld      b, a
   530D CD 05 5F      [16]  222                         call    rand_0_9
   5310 80            [ 4]  223                         add     a, b                            ; random quadrant
   5311 C5            [11]  224                         push    bc
   5312 CD 9F 5D      [16]  225                         call    get_ptr_quadrant_A_data
   5315 C1            [ 9]  226                         pop     bc
   5316 23            [ 4]  227                         inc     hl                              ; space stations in quadrant
   5317 7E            [ 6]  228                         ld      a, (hl)
   5318 A7            [ 4]  229                         and     a                               ; zero?
   5319 C2 05 53      [ 9]  230                         jp      NZ, loc_5105                    ; no, regenerate
   531C 36 01         [ 9]  231                         ld      (hl), #1                        ; add a space station
   531E 0D            [ 4]  232                         dec     c                               ; done all space stations?
   531F C2 05 53      [ 9]  233                         jp      NZ, loc_5105                    ; no, loop
                            234 ; init starting quadrant
   5322 CD 05 5F      [16]  235                         call    rand_0_9                        ; starting quadrant X
   5325 47            [ 4]  236                         ld      b, a
   5326 CD 05 5F      [16]  237                         call    rand_0_9                        ; starting quadrant Y
   5329 07            [ 3]  238                         rlca
   532A 07            [ 3]  239                         rlca
   532B 07            [ 3]  240                         rlca
   532C 07            [ 3]  241                         rlca
   532D 80            [ 4]  242                         add     a, b                            ; combine
   532E 32 66 6A      [13]  243                         ld      (quadrant), a                   ; init starting quadrant
   5331 CD 33 61      [16]  244                         call    print_jovians_left
   5334 3E 03         [ 6]  245                         ld      a, #3                           ; SE, flag disabled
   5336 32 BE 71      [13]  246                         ld      (disable_pod_update), a
   5339 0E 01         [ 6]  247                         ld      c, #1                           ; 1 quadrant
   533B CD 1D 5D      [16]  248                         call    move_quadrant
   533E CD 86 5D      [16]  249                         call    print_quadrant
   5341 CD 50 5F      [16]  250                         call    update_chaser_pods_cmd_entry
   5344 3A C0 55      [12]  251                         ld      a, (played_before)
   5347 A7            [ 4]  252                         and     a                               ; played a game before this?
   5348 C2 88 53      [ 9]  253                         jp      NZ, loc_5188                    ; yes, skip animated intro message
   534B 11 9C 6C      [ 9]  254                         ld      de, #aHQ_Officer                ; "                     "
   534E CD D4 60      [16]  255                         call    print_10_lines
   5351 11 8F 61      [ 9]  256                         ld      de, #aCommandHeadqua            ; "COMMAND HEADQUARTERS: THE JOVIANS HAVE "...
   5354 21 40 3F      [ 9]  257                         ld      hl, # VIDEO+0x340
   5357 CD 44 5F      [16]  258                         call    print_string
                            259 ; animate HQ officer
   535A 1E 11         [ 6]  260                         ld      e, #17                          ; # animation loops
                            261 
   535C                     262 loc_515C:
   535C CD BF 5E      [16]  263                         call    rnd_delay
   535F 21 22 3D      [ 9]  264                         ld      hl, # VIDEO+0x122               ; HQ commander's eye
   5362 36 88         [ 9]  265                         ld      (hl), #0x88 ; 'à'
   5364 23            [ 4]  266                         inc     hl
   5365 36 8C         [ 9]  267                         ld      (hl), #0x8C ; 'å'
   5367 21 E1 3D      [ 9]  268                         ld      hl, # VIDEO+0x1E1               ; HQ commander's mouth
   536A 36 4F         [ 9]  269                         ld      (hl), #0x4F ; 'O'
   536C CD BF 5E      [16]  270                         call    rnd_delay
   536F 21 22 3D      [ 9]  271                         ld      hl, # VIDEO+0x122               ; HQ commander's eye
   5372 36 AA         [ 9]  272                         ld      (hl), #0xAA ; '™'
   5374 23            [ 4]  273                         inc     hl
   5375 36 BB         [ 9]  274                         ld      (hl), #0xBB ; 'ª'
   5377 CD 05 5F      [16]  275                         call    rand_0_9
ASxxxx Assembler V05.00  (Zilog Z80 / Hitachi HD64180), page 6.
Hexidecimal [16-Bits]



   537A FE 09         [ 6]  276                         cp      #9                              ; 9?
   537C D2 84 53      [ 9]  277                         jp      NC, loc_5184                    ; ues, skip
   537F 21 E1 3D      [ 9]  278                         ld      hl, # VIDEO+0x1E1               ; HQ commander's mouth
   5382 36 2D         [ 9]  279                         ld      (hl), #0x2D ; '-'
                            280 
   5384                     281 loc_5184:
   5384 1D            [ 4]  282                         dec     e
   5385 C2 5C 53      [ 9]  283                         jp      NZ, loc_515C
                            284 
   5388                     285 loc_5188:                                                       ; current quadrant on LR sensor display
   5388 21 C5 3C      [ 9]  286                         ld      hl, # VIDEO+0xC5
   538B CD D1 5D      [16]  287                         call    init_quadrant                   ; quadrant display
   538E 21 40 3F      [ 9]  288                         ld      hl, # VIDEO+0x340
   5391 11 39 62      [ 9]  289                         ld      de, #aHyprHIonIMsrMT            ; "HYPR=H,ION=I,MSR=M,TRM=T,PWRDST=D,SELFD"...
   5394 CD 41 5F      [16]  290                         call    clear_last_2_lines_print_string
                            291 
   5397                     292 game_loop:                                                      ; flag no cmd
   5397 3E FF         [ 6]  293                         ld      a, #0xFF
   5399 32 B7 71      [13]  294                         ld      (cmd_flag), a
   539C 3A BF 71      [12]  295                         ld      a, (critical)
   539F A7            [ 4]  296                         and     a                               ; condition critical?
   53A0 CA BD 53      [ 9]  297                         jp      Z, loc_51BD                     ; no, skip
   53A3 3A 2F 6A      [12]  298                         ld      a, (engine_explode_countdown)
   53A6 3D            [ 4]  299                         dec     a                               ; tick!
   53A7 32 2F 6A      [13]  300                         ld      (engine_explode_countdown), a
   53AA F2 BD 53      [ 9]  301                         jp      P, loc_51BD                     ; set to explode? no, skip
   53AD 11 37 65      [ 9]  302                         ld      de, #aNavigatorTheEn            ; "NAVIGATOR:THE ENGINES ARE EXPLODING"
   53B0 CD 3E 5F      [16]  303                         call    print_string_last_line
   53B3 C3 8E 55      [ 9]  304                         jp      print_game_over_screen
                            305 ; END OF FUNCTION CHUNK FOR handle_low_power
                            306 
                            307 ; =============== S U B R O U T I N E =======================================
                            308 
                            309 
   53B6                     310 keyboard_scan:
   53B6 D5            [11]  311                         push    de
   53B7 CD 2B 00      [16]  312                         call    0x2B                            ; KBDSCN
   53BA A7            [ 4]  313                         and     a                               ; set flag for key
   53BB D1            [ 9]  314                         pop     de
   53BC C9            [ 9]  315                         ret
                            316 ; End of function keyboard_scan
                            317 
                            318 ; ---------------------------------------------------------------------------
                            319 ; START OF FUNCTION CHUNK FOR handle_low_power
                            320 
   53BD                     321 loc_51BD:
   53BD CD 50 5F      [16]  322                         call    update_chaser_pods_cmd_entry
   53C0 CD A6 5B      [16]  323                         call    handle_low_power
   53C3 3A AF 6B      [12]  324                         ld      a, (game_delay_factor)
   53C6 47            [ 4]  325                         ld      b, a
   53C7 CD C4 5E      [16]  326                         call    delay_B_with_duty_cycle
   53CA 97            [ 4]  327                         sub     a                               ; flag not fired
   53CB 32 BA 71      [13]  328                         ld      (maser_fired), a
   53CE CD 14 61      [16]  329                         call    update_star_time
   53D1 C3 97 53      [ 9]  330                         jp      game_loop
ASxxxx Assembler V05.00  (Zilog Z80 / Hitachi HD64180), page 7.
Hexidecimal [16-Bits]



                            331 ; END OF FUNCTION CHUNK FOR handle_low_power
                            332 ; ---------------------------------------------------------------------------
                            333 
   53D4                     334 hyperdrive:
   53D4 CD C5 60      [16]  335                         call    clear_last_2_lines
   53D7 97            [ 4]  336                         sub     a                               ; flag normal
   53D8 32 BC 71      [13]  337                         ld      (jovian_time_frozen), a
   53DB 3A B9 71      [12]  338                         ld      a, (hyperdrive_disabled)
   53DE A7            [ 4]  339                         and     a                               ; disabled?
   53DF FA 02 54      [ 9]  340                         jp      M, loc_5202                     ; yes, exit
   53E2 CD 05 5F      [16]  341                         call    rand_0_9
   53E5 FE 05         [ 6]  342                         cp      #5                              ; less than 5?
   53E7 3A 99 6B      [12]  343                         ld      a, (pwr_hypr_ion)
   53EA DA F4 53      [ 9]  344                         jp      C, loc_51F4                     ; yes, skip
   53ED B7            [ 4]  345                         or      a                               ; zero power?
   53EE CA FC 53      [ 9]  346                         jp      Z, loc_51FC                     ; yes, skip
   53F1 C6 99         [ 6]  347                         add     a, #0x99 ; 'ô'
   53F3 27            [ 4]  348                         daa                                     ; decrement ion power
                            349 
   53F4                     350 loc_51F4:                                                       ; update
   53F4 32 99 6B      [13]  351                         ld      (pwr_hypr_ion), a
   53F7 FE 06         [ 6]  352                         cp      #6                              ; greater than 5%?
   53F9 F2 08 54      [ 9]  353                         jp      P, loc_5208                     ; yes, go
                            354 
   53FC                     355 loc_51FC:                                                       ; "ENGINEER:COMMANDER, THE ENGINES HAVEN'T"...
   53FC 11 7A 62      [ 9]  356                         ld      de, #aEngineerComman
   53FF C3 3E 5F      [ 9]  357                         jp      print_string_last_line
                            358 ; ---------------------------------------------------------------------------
                            359 
   5402                     360 loc_5202:                                                       ; "ENGINEER:THE UNKNOWN WE SHOT DISABLED T"...
   5402 11 B7 62      [ 9]  361                         ld      de, #aEngineerTheUnk
   5405 C3 3E 5F      [ 9]  362                         jp      print_string_last_line
                            363 ; ---------------------------------------------------------------------------
                            364 
   5408                     365 loc_5208:
   5408 CD 05 5F      [16]  366                         call    rand_0_9
   540B FE 06         [ 6]  367                         cp      #6                              ; less than 6?
   540D DA 13 54      [ 9]  368                         jp      C, loc_5213                     ; yes, skip
   5410 CD 6B 5C      [16]  369                         call    jovian_attack_and_move
                            370 
   5413                     371 loc_5213:                                                       ; direction
   5413 CD AC 5E      [16]  372                         call    get_next_cmd_char
                            373 
   5416                     374 loc_5216:                                                       ; less than '0'?
   5416 D6 30         [ 6]  375                         sub     #0x30 ; '0'
   5418 47            [ 4]  376                         ld      b, a
   5419 FA 0A 5D      [ 9]  377                         jp      M, print_no_sense_and_ret       ; yes, exit
   541C FE 08         [ 6]  378                         cp      #8                              ; greater than 7?
   541E F2 0A 5D      [ 9]  379                         jp      P, print_no_sense_and_ret       ; yes, exit
                            380 
   5421                     381 loc_5221:
   5421 C5            [11]  382                         push    bc
   5422 78            [ 4]  383                         ld      a, b                            ; direction
   5423 0E 01         [ 6]  384                         ld      c, #1                           ; move 1 quadrant
   5425 CD 1D 5D      [16]  385                         call    move_quadrant
ASxxxx Assembler V05.00  (Zilog Z80 / Hitachi HD64180), page 8.
Hexidecimal [16-Bits]



   5428 CD 86 5D      [16]  386                         call    print_quadrant
   542B 21 C5 3C      [ 9]  387                         ld      hl, # VIDEO+0xC5                ; current quadrant in LR sensor
   542E CD D1 5D      [16]  388                         call    init_quadrant
   5431 CD E8 60      [16]  389                         call    print_sector
   5434 06 08         [ 6]  390                         ld      b, #8
   5436 CD 4D 5F      [16]  391                         call    delay_B_and_update_all
   5439 C1            [ 9]  392                         pop     bc
   543A CD B6 53      [16]  393                         call    keyboard_scan
   543D CA 21 54      [ 9]  394                         jp      Z, loc_5221                     ; no key, loop
   5440 FE 09         [ 6]  395                         cp      #9                              ; tab?
   5442 C8            [10]  396                         ret     Z                               ; yes, return
   5443 C3 16 54      [ 9]  397                         jp      loc_5216                        ; loop
                            398 ; ---------------------------------------------------------------------------
                            399 
   5446                     400 ion_engine:
   5446 3A 99 6B      [12]  401                         ld      a, (pwr_hypr_ion)
   5449 FE 05         [ 6]  402                         cp      #5                              ; less than 5%?
   544B FA FC 53      [ 9]  403                         jp      M, loc_51FC                     ; yes, exit
   544E CD 05 5F      [16]  404                         call    rand_0_9
   5451 FE 03         [ 6]  405                         cp      #3                              ; greater than 2?
   5453 D2 59 54      [ 9]  406                         jp      NC, loc_5259                    ; yes, skip
   5456 CD 6B 5C      [16]  407                         call    jovian_attack_and_move
                            408 
   5459                     409 loc_5259:
   5459 CD C5 60      [16]  410                         call    clear_last_2_lines
   545C CD AC 5E      [16]  411                         call    get_next_cmd_char               ; direction
                            412 
   545F                     413 get_dir:                                                        ; digit?
   545F D6 30         [ 6]  414                         sub     #0x30 ; '0'
   5461 FA 0A 5D      [ 9]  415                         jp      M, print_no_sense_and_ret       ; no, exit
   5464 FE 08         [ 6]  416                         cp      #8                              ; greater than 7?
   5466 F2 0A 5D      [ 9]  417                         jp      P, print_no_sense_and_ret       ; yes, exit
   5469 4F            [ 4]  418                         ld      c, a                            ; tmp store direction
   546A CD AC 5E      [16]  419                         call    get_next_cmd_char               ; speed
   546D CA 7F 54      [ 9]  420                         jp      Z, loc_527F                     ; not specified, skip
   5470 D6 30         [ 6]  421                         sub     #0x30 ; '0'                     ; digit?
   5472 FA 0A 5D      [ 9]  422                         jp      M, print_no_sense_and_ret       ; no, exit
   5475 FE 0A         [ 6]  423                         cp      #10                             ; greater than 9?
   5477 D2 0A 5D      [ 9]  424                         jp      NC, print_no_sense_and_ret      ; yes, exit
   547A 3C            [ 4]  425                         inc     a
   547B 3C            [ 4]  426                         inc     a                               ; speed += 2
   547C 32 04 6A      [13]  427                         ld      (ion_speed), a                  ; store
                            428 
   547F                     429 loc_527F:
   547F 21 9F 6B      [ 9]  430                         ld      hl, #dir_addr_delta_tbl
   5482 79            [ 4]  431                         ld      a, c                            ; direction
   5483 32 5B 6A      [13]  432                         ld      (ion_dir), a                    ; save
   5486 A7            [ 4]  433                         and     a                               ; up?
   5487 CA 90 54      [ 9]  434                         jp      Z, loc_5290                     ; yes, skip
                            435 
   548A                     436 loc_528A:
   548A 23            [ 4]  437                         inc     hl
   548B 23            [ 4]  438                         inc     hl                              ; next table entry
   548C 3D            [ 4]  439                         dec     a                               ; done?
   548D C2 8A 54      [ 9]  440                         jp      NZ, loc_528A                    ; no, loop
ASxxxx Assembler V05.00  (Zilog Z80 / Hitachi HD64180), page 9.
Hexidecimal [16-Bits]



                            441 
   5490                     442 loc_5290:
   5490 5E            [ 6]  443                         ld      e, (hl)
   5491 23            [ 4]  444                         inc     hl
   5492 56            [ 6]  445                         ld      d, (hl)                         ; DE = video address delta
   5493 2A 2D 6A      [15]  446                         ld      hl, (hephaestus_video_addr)
                            447 
   5496                     448 loc_5296:                                                       ; write empty star to quadrant display
   5496 36 2E         [ 9]  449                         ld      (hl), #0x2E ; '.'
   5498 E5            [11]  450                         push    hl                              ; save old address
   5499 19            [ 7]  451                         add     hl, de                          ; update USS Hephaestus video address
   549A 7E            [ 6]  452                         ld      a, (hl)                         ; get sector contents
   549B E6 7F         [ 6]  453                         and     #0x7F ; ''
   549D FE 2E         [ 6]  454                         cp      #0x2E ; '.'                     ; empty?
   549F C2 C3 54      [ 9]  455                         jp      NZ, loc_52C3                    ; no, skip
   54A2 36 5B         [ 9]  456                         ld      (hl), #0x5B ; '['               ; USS Hephaestus graphic
   54A4 3A 04 6A      [12]  457                         ld      a, (ion_speed)
   54A7 47            [ 4]  458                         ld      b, a
   54A8 CD 4D 5F      [16]  459                         call    delay_B_and_update_all
   54AB E3            [16]  460                         ex      (sp), hl                        ; push new address, HL = old address
   54AC E1            [ 9]  461                         pop     hl                              ; pop new address
   54AD 22 2D 6A      [16]  462                         ld      (hephaestus_video_addr), hl     ; update
   54B0 CD B6 53      [16]  463                         call    keyboard_scan
   54B3 CA 96 54      [ 9]  464                         jp      Z, loc_5296                     ; no key, loop
   54B6 FE 09         [ 6]  465                         cp      #9                              ; <TAB>?
   54B8 C2 5F 54      [ 9]  466                         jp      NZ, get_dir                     ; no, loop
   54BB 36 5B         [ 9]  467                         ld      (hl), #0x5B ; '['               ; write USS Hephaestus graphic to video
   54BD 22 2D 6A      [16]  468                         ld      (hephaestus_video_addr), hl     ; update
   54C0 C3 E8 60      [ 9]  469                         jp      print_sector
                            470 ; ---------------------------------------------------------------------------
                            471 
   54C3                     472 loc_52C3:                                                       ; old address
   54C3 E1            [ 9]  473                         pop     hl
   54C4 22 2D 6A      [16]  474                         ld      (hephaestus_video_addr), hl     ; update (stop)
   54C7 D5            [11]  475                         push    de
   54C8 CD E8 60      [16]  476                         call    print_sector
   54CB D1            [ 9]  477                         pop     de
   54CC 2A 2D 6A      [15]  478                         ld      hl, (hephaestus_video_addr)
   54CF 36 5B         [ 9]  479                         ld      (hl), #0x5B ; '['               ; display USS Hephaestus graphic
   54D1 19            [ 7]  480                         add     hl, de                          ; (potential) new address
   54D2 7E            [ 6]  481                         ld      a, (hl)                         ; get sector contents
   54D3 FE 8F         [ 6]  482                         cp      #0x8F ; 'è'                     ; ???
   54D5 CA 0C 55      [ 9]  483                         jp      Z, loc_530C
   54D8 E6 7F         [ 6]  484                         and     #0x7F ; ''
   54DA FE 30         [ 6]  485                         cp      #0x30 ; '0'                     ; space station?
   54DC CA 2B 55      [ 9]  486                         jp      Z, dock_space_station           ; yes, go
   54DF FE 25         [ 6]  487                         cp      #0x25 ; '%'                     ; triton mine
   54E1 CA 88 55      [ 9]  488                         jp      Z, hit_triton_mine              ; yes, go
   54E4 FE 26         [ 6]  489                         cp      #0x26 ; '&'                     ; jovian battle cruiser?
   54E6 CA C1 55      [ 9]  490                         jp      Z, hit_jovian_warship           ; yes, go
   54E9 FE 40         [ 6]  491                         cp      #0x40 ; '@'                     ; jovian command cruiser?
   54EB CA C1 55      [ 9]  492                         jp      Z, hit_jovian_warship           ; yes, go
   54EE FE 2A         [ 6]  493                         cp      #0x2A ; '*'                     ; star?
   54F0 CA 18 56      [ 9]  494                         jp      Z, hit_star                     ; yes, go
   54F3 FE 58         [ 6]  495                         cp      #0x58 ; 'X'                     ; unknown?
ASxxxx Assembler V05.00  (Zilog Z80 / Hitachi HD64180), page 10.
Hexidecimal [16-Bits]



   54F5 C2 17 55      [ 9]  496                         jp      NZ, left_quadrant               ; no, go
   54F8 3E FF         [ 6]  497                         ld      a, #0xFF                        ; flag as blocked
   54FA 32 5A 6A      [13]  498                         ld      (blocked_by_unknown), a
   54FD E5            [11]  499                         push    hl
   54FE 11 25 63      [ 9]  500                         ld      de, #aFirstOfficer_0            ; "FIRST OFFICER:CAPTAIN, WE HAVE BEEN BLO"...
   5501 CD 3E 5F      [16]  501                         call    print_string_last_line
   5504 06 08         [ 6]  502                         ld      b, #8
   5506 CD C4 5E      [16]  503                         call    delay_B_with_duty_cycle
   5509 C3 70 57      [ 9]  504                         jp      loc_5570
                            505 ; ---------------------------------------------------------------------------
                            506 
   550C                     507 loc_530C:                                                       ; zero power
   550C AF            [ 4]  508                         xor     a
   550D 32 9A 6B      [13]  509                         ld      (pwr_lr_sensor), a
   5510 32 9B 6B      [13]  510                         ld      (pwr_sr_sensor), a
   5513 3D            [ 4]  511                         dec     a                               ; flag malfunctioned
   5514 32 BB 71      [13]  512                         ld      (computer_malfunction), a
                            513 
   5517                     514 left_quadrant:                                                  ; direction
   5517 3A 5B 6A      [12]  515                         ld      a, (ion_dir)
   551A 0E 01         [ 6]  516                         ld      c, #1                           ; 1 quadrant
   551C CD 1D 5D      [16]  517                         call    move_quadrant
   551F CD 86 5D      [16]  518                         call    print_quadrant
   5522 21 C5 3C      [ 9]  519                         ld      hl, # VIDEO+0xC5                ; current quadrant on LR sensor
   5525 CD D1 5D      [16]  520                         call    init_quadrant
   5528 C3 E8 60      [ 9]  521                         jp      print_sector
                            522 ; ---------------------------------------------------------------------------
                            523 
   552B                     524 dock_space_station:                                             ; "COMMUNICATIONS:THE SPACE STATION HAS AC"...
   552B 11 6C 63      [ 9]  525                         ld      de, #aCommunications
   552E CD 3E 5F      [16]  526                         call    print_string_last_line
   5531 97            [ 4]  527                         sub     a                               ; A=0
   5532 32 BF 71      [13]  528                         ld      (critical), a                   ; flag OK
   5535 32 B4 71      [13]  529                         ld      (always_zero), a
   5538 32 B5 71      [13]  530                         ld      (delay_duty_cycle_i), a
   553B 21 BB 3C      [ 9]  531                         ld      hl, # VIDEO+0xBB
   553E 11 AB 63      [ 9]  532                         ld      de, #aDock                      ; " DOCK"
   5541 CD 44 5F      [16]  533                         call    print_string
   5544 06 1A         [ 6]  534                         ld      b, #26
   5546 CD C4 5E      [16]  535                         call    delay_B_with_duty_cycle
   5549 3E 99         [ 6]  536                         ld      a, #0x99 ; 'ô'                  ; full power
   554B 32 BD 6B      [13]  537                         ld      (power_avail), a
   554E CD 62 61      [16]  538                         call    print_power_avail
   5551 CD BA 58      [16]  539                         call    update_power_distribution
   5554 21 7D 3D      [ 9]  540                         ld      hl, # VIDEO+0x17D               ; triton misls value video address
   5557 36 31         [ 9]  541                         ld      (hl), #0x31 ; '1'
   5559 23            [ 4]  542                         inc     hl
   555A 36 30         [ 9]  543                         ld      (hl), #0x30 ; '0'               ; display '10'
   555C 3E 10         [ 6]  544                         ld      a, #0x10                        ; max triton missiles
   555E 32 BE 6B      [13]  545                         ld      (triton_misls), a
   5561 3E 03         [ 6]  546                         ld      a, #3
   5563 32 BF 6B      [13]  547                         ld      (unused_69BA), a
   5566 32 30 6A      [13]  548                         ld      (antimatter_pods), a
   5569 21 3E 3E      [ 9]  549                         ld      hl, # VIDEO+0x23E               ; antimatter pods value video address
   556C CD 68 61      [16]  550                         call    print_BCD_byte                  ; display antimatter pods
ASxxxx Assembler V05.00  (Zilog Z80 / Hitachi HD64180), page 11.
Hexidecimal [16-Bits]



   556F 21 A1 71      [ 9]  551                         ld      hl, #antimatter_pod_tbl
   5572 11 06 00      [ 9]  552                         ld      de, #6                          ; offset to next byte
   5575 06 03         [ 6]  553                         ld      b, #3                           ; bytes to clear
                            554 
   5577                     555 loc_5377:                                                       ; flag pod unused
   5577 36 00         [ 9]  556                         ld      (hl), #0
   5579 19            [ 7]  557                         add     hl, de                          ; next entry
   557A 05            [ 4]  558                         dec     b                               ; done all bytes?
   557B C2 77 55      [ 9]  559                         jp      NZ, loc_5377                    ; no, loop
   557E 97            [ 4]  560                         sub     a
   557F 32 B9 71      [13]  561                         ld      (hyperdrive_disabled), a        ; repair hyperdrive
   5582 32 BB 71      [13]  562                         ld      (computer_malfunction), a       ; repair malfunction
   5585 C3 C5 60      [ 9]  563                         jp      clear_last_2_lines
                            564 ; ---------------------------------------------------------------------------
                            565 ; START OF FUNCTION CHUNK FOR fire_maser
                            566 
   5588                     567 hit_triton_mine:                                                ; "FIRST OFFICER: SIR, WE HAVE HIT A TRITO"...
   5588 11 C3 63      [ 9]  568                         ld      de, #aFirstOfficerSi
   558B CD 3E 5F      [16]  569                         call    print_string_last_line
                            570 ; END OF FUNCTION CHUNK FOR fire_maser
                            571 ; START OF FUNCTION CHUNK FOR handle_low_power
                            572 
   558E                     573 print_game_over_screen:                                         ; -1
   558E 97            [ 4]  574                         sub     a
   558F 32 B7 71      [13]  575                         ld      (cmd_flag), a                   ; disable cmd entry
   5592 CD 89 60      [16]  576                         call    animate_destruction
   5595 06 20         [ 6]  577                         ld      b, #0x20 ; ' '                  ; <SPACE>
   5597 CD F9 5E      [16]  578                         call    clear_video_with_B
   559A 11 9C 6C      [ 9]  579                         ld      de, #aHQ_Officer                ; "                     "
   559D CD D4 60      [16]  580                         call    print_10_lines
   55A0 11 E6 68      [ 9]  581                         ld      de, #aShipLogUssPhae            ; "SHIP LOG-USS PHAETON-CAPTAIN DAR: SENSO"...
   55A3 21 80 3F      [ 9]  582                         ld      hl, # VIDEO+0x380
   55A6 CD 44 5F      [16]  583                         call    print_string
   55A9 06 11         [ 6]  584                         ld      b, #17                          ; delay outer loop counter
                            585 
   55AB                     586 loc_53AB:                                                       ; delay inner loop counter
   55AB 11 00 00      [ 9]  587                         ld      de, #0
                            588 
   55AE                     589 delay:
   55AE 1B            [ 4]  590                         dec     de
   55AF 7A            [ 4]  591                         ld      a, d
   55B0 B3            [ 4]  592                         or      e
   55B1 C2 AE 55      [ 9]  593                         jp      NZ, delay
   55B4 05            [ 4]  594                         dec     b
   55B5 C2 AE 55      [ 9]  595                         jp      NZ, delay
   55B8 3E 01         [ 6]  596                         ld      a, #1                           ; flag as played
   55BA 32 C0 55      [13]  597                         ld      (played_before), a
   55BD C3 01 52      [ 9]  598                         jp      START
                            599 ; END OF FUNCTION CHUNK FOR handle_low_power
                            600 ; ---------------------------------------------------------------------------
   55C0 00                  601 played_before:          .db 0
                            602 ; ---------------------------------------------------------------------------
                            603 
   55C1                     604 hit_jovian_warship:                                             ; "                     "
   55C1 11 C0 6B      [ 9]  605                         ld      de, #aJovian_Officer
ASxxxx Assembler V05.00  (Zilog Z80 / Hitachi HD64180), page 12.
Hexidecimal [16-Bits]



   55C4 CD D4 60      [16]  606                         call    print_10_lines
   55C7 11 2A 64      [ 9]  607                         ld      de, #aJovianWatchWhe            ; "JOVIAN: WATCH WHERE YOU ARE GOING YOU T"...
   55CA CD 3E 5F      [16]  608                         call    print_string_last_line
   55CD 11 F1 63      [ 9]  609                         ld      de, #aCommunicatio_0            ; "COMMUNICATIONS:SIR, WE MADE CONTACT WIT"...
   55D0 21 80 3F      [ 9]  610                         ld      hl, # VIDEO+0x380
   55D3 CD 44 5F      [16]  611                         call    print_string
   55D6 3E 01         [ 6]  612                         ld      a, #1                           ; flag disabled
   55D8 32 BE 71      [13]  613                         ld      (disable_pod_update), a
   55DB 1E 14         [ 6]  614                         ld      e, #20                          ; 20 iterations
                            615 
   55DD                     616 loc_53DD:
   55DD CD BF 5E      [16]  617                         call    rnd_delay
                            618 ; animate jovian officer
   55E0 21 5F 3D      [ 9]  619                         ld      hl, # VIDEO+0x15F
   55E3 36 8C         [ 9]  620                         ld      (hl), #0x8C ; 'å'
   55E5 23            [ 4]  621                         inc     hl
   55E6 36 84         [ 9]  622                         ld      (hl), #0x84 ; 'Ñ'
   55E8 23            [ 4]  623                         inc     hl
   55E9 23            [ 4]  624                         inc     hl
   55EA 36 AA         [ 9]  625                         ld      (hl), #0xAA ; '™'
   55EC 23            [ 4]  626                         inc     hl
   55ED 36 BB         [ 9]  627                         ld      (hl), #0xBB ; 'ª'
   55EF 21 E1 3D      [ 9]  628                         ld      hl, # VIDEO+0x1E1
   55F2 36 3D         [ 9]  629                         ld      (hl), #0x3D ; '='
   55F4 CD BF 5E      [16]  630                         call    rnd_delay
   55F7 21 5F 3D      [ 9]  631                         ld      hl, # VIDEO+0x15F
   55FA 36 B7         [ 9]  632                         ld      (hl), #0xB7 ; '∑'
   55FC 23            [ 4]  633                         inc     hl
   55FD 36 95         [ 9]  634                         ld      (hl), #0x95 ; 'ï'
   55FF 23            [ 4]  635                         inc     hl
   5600 23            [ 4]  636                         inc     hl
   5601 36 88         [ 9]  637                         ld      (hl), #0x88 ; 'à'
   5603 23            [ 4]  638                         inc     hl
   5604 36 8C         [ 9]  639                         ld      (hl), #0x8C ; 'å'
   5606 21 E1 3D      [ 9]  640                         ld      hl, # VIDEO+0x1E1
   5609 36 4F         [ 9]  641                         ld      (hl), #0x4F ; 'O'
   560B CD 50 5F      [16]  642                         call    update_chaser_pods_cmd_entry
   560E 1D            [ 4]  643                         dec     e                               ; done animation?
   560F C2 DD 55      [ 9]  644                         jp      NZ, loc_53DD                    ; no, loop
   5612 21 C5 3C      [ 9]  645                         ld      hl, # VIDEO+0xC5                ; ptr current quadrant on LR sensor
   5615 C3 D1 5D      [ 9]  646                         jp      init_quadrant                   ; randomise again!
                            647 ; ---------------------------------------------------------------------------
                            648 
   5618                     649 hit_star:                                                       ; "NAVIGATOR:WE HIT A STAR!?!"
   5618 11 59 64      [ 9]  650                         ld      de, #aNavigatorWeHit
   561B CD 3E 5F      [16]  651                         call    print_string_last_line
                            652 ; *** BUG #001 - in original SOL-20 source code
                            653 ; this value is an index into a duty cycle table
                            654 ; which only has 4 entries
                            655 ; - can only assume it's picking up a garbage value
   561E 3E 11         [ 6]  656                         ld      a, #17
   5620 32 B5 71      [13]  657                         ld      (delay_duty_cycle_i), a
   5623 47            [ 4]  658                         ld      b, a
   5624 CD C4 5E      [16]  659                         call    delay_B_with_duty_cycle
   5627 C3 8E 55      [ 9]  660                         jp      print_game_over_screen
ASxxxx Assembler V05.00  (Zilog Z80 / Hitachi HD64180), page 13.
Hexidecimal [16-Bits]



                            661 ; ---------------------------------------------------------------------------
                            662 
   562A                     663 maser:
   562A CD C5 60      [16]  664                         call    clear_last_2_lines
   562D 3E FF         [ 6]  665                         ld      a, #0xFF                        ; flag fired
   562F 32 BA 71      [13]  666                         ld      (maser_fired), a
   5632 3A 9D 6B      [12]  667                         ld      a, (pwr_masers)
   5635 FE 08         [ 6]  668                         cp      #8                              ; less than 8%?
   5637 F2 40 56      [ 9]  669                         jp      P, loc_5440                     ; no, skip
   563A 11 74 64      [ 9]  670                         ld      de, #aEngineerComm_0            ; "ENGINEER:COMMANDER, WE HAVEN'T THE POWE"...
   563D C3 3E 5F      [ 9]  671                         jp      print_string_last_line
                            672 ; ---------------------------------------------------------------------------
                            673 
   5640                     674 loc_5440:                                                       ; direction
   5640 CD AC 5E      [16]  675                         call    get_next_cmd_char
   5643 D6 30         [ 6]  676                         sub     #0x30 ; '0'                     ; digit?
   5645 FA 0A 5D      [ 9]  677                         jp      M, print_no_sense_and_ret       ; no, exit
   5648 FE 08         [ 6]  678                         cp      #8                              ; greater than 7?
   564A F2 0A 5D      [ 9]  679                         jp      P, print_no_sense_and_ret       ; yes, exit
                            680 
                            681 ; =============== S U B R O U T I N E =======================================
                            682 
                            683 
   564D                     684 fire_maser:
                            685 
                            686 ; FUNCTION CHUNK AT 5388 SIZE 00000006 BYTES
                            687 
   564D 21 9F 6B      [ 9]  688                         ld      hl, #dir_addr_delta_tbl
   5650 A7            [ 4]  689                         and     a                               ; up?
   5651 CA 5A 56      [ 9]  690                         jp      Z, loc_545A                     ; yes, exit
                            691 
   5654                     692 loc_5454:
   5654 23            [ 4]  693                         inc     hl
   5655 23            [ 4]  694                         inc     hl                              ; next table entry
   5656 3D            [ 4]  695                         dec     a                               ; done?
   5657 C2 54 56      [ 9]  696                         jp      NZ, loc_5454                    ; no, loop
                            697 
   565A                     698 loc_545A:
   565A 5E            [ 6]  699                         ld      e, (hl)
   565B 23            [ 4]  700                         inc     hl
   565C 56            [ 6]  701                         ld      d, (hl)                         ; DE = delta
   565D 3A B5 71      [12]  702                         ld      a, (delay_duty_cycle_i)
   5660 32 F6 69      [13]  703                         ld      (tmp_delay_cycle), a
   5663 3E 02         [ 6]  704                         ld      a, #2
   5665 32 B5 71      [13]  705                         ld      (delay_duty_cycle_i), a
   5668 2A 2D 6A      [15]  706                         ld      hl, (hephaestus_video_addr)
   566B 06 00         [ 6]  707                         ld      b, #0                           ; init maser path length
   566D D5            [11]  708                         push    de
                            709 
   566E                     710 move_maser:                                                     ; add delta
   566E 19            [ 7]  711                         add     hl, de
   566F 7E            [ 6]  712                         ld      a, (hl)                         ; get sector contents
   5670 32 F8 69      [13]  713                         ld      (tmp_sector_contents), a
   5673 36 BF         [ 9]  714                         ld      (hl), #0xBF ; 'ø'               ; write maser graphic to video
   5675 C5            [11]  715                         push    bc
ASxxxx Assembler V05.00  (Zilog Z80 / Hitachi HD64180), page 14.
Hexidecimal [16-Bits]



   5676 06 01         [ 6]  716                         ld      b, #1
   5678 CD 4D 5F      [16]  717                         call    delay_B_and_update_all
   567B C1            [ 9]  718                         pop     bc
   567C 3A F8 69      [12]  719                         ld      a, (tmp_sector_contents)
   567F E6 7F         [ 6]  720                         and     #0x7F ; ''
   5681 04            [ 4]  721                         inc     b                               ; inc maser path length
   5682 FE 2E         [ 6]  722                         cp      #0x2E ; '.'                     ; empty sector?
   5684 CA 6E 56      [ 9]  723                         jp      Z, move_maser                   ; yes, loop
   5687 FE 26         [ 6]  724                         cp      #0x26 ; '&'                     ; jovian battle cruiser?
   5689 CA AE 56      [ 9]  725                         jp      Z, maser_hit_jovian             ; yes, go
   568C FE 25         [ 6]  726                         cp      #0x25 ; '%'
   568E CA 88 55      [ 9]  727                         jp      Z, hit_triton_mine
   5691 FE 58         [ 6]  728                         cp      #0x58 ; 'X'
   5693 C2 A3 56      [ 9]  729                         jp      NZ, maser_miss                  ; no, go
   5696 D1            [ 9]  730                         pop     de
   5697 E5            [11]  731                         push    hl
   5698 21 A0 56      [ 9]  732                         ld      hl, #loc_54A0                   ; return address
   569B E3            [16]  733                         ex      (sp), hl
   569C D5            [11]  734                         push    de
   569D C3 C9 56      [ 9]  735                         jp      wipe_maser
                            736 ; ---------------------------------------------------------------------------
                            737 
   56A0                     738 loc_54A0:
   56A0 C3 6F 57      [ 9]  739                         jp      shot_hit_unknown
                            740 ; ---------------------------------------------------------------------------
                            741 
   56A3                     742 maser_miss:                                                     ; "FIRST OFFICER:SIR, MY SENSORS SHOW MASE"...
   56A3 11 AC 64      [ 9]  743                         ld      de, #aFirstOfficer_1
   56A6 C5            [11]  744                         push    bc
   56A7 CD 3E 5F      [16]  745                         call    print_string_last_line
   56AA C1            [ 9]  746                         pop     bc
   56AB C3 C9 56      [ 9]  747                         jp      wipe_maser
                            748 ; ---------------------------------------------------------------------------
                            749 
   56AE                     750 maser_hit_jovian:
   56AE CD 05 5F      [16]  751                         call    rand_0_9
   56B1 FE 07         [ 6]  752                         cp      #7                              ; less than 7?
   56B3 FA C9 56      [ 9]  753                         jp      M, wipe_maser                   ; yes, go
   56B6 36 AE         [ 9]  754                         ld      (hl), #0xAE ; 'Æ'
   56B8 3E 2E         [ 6]  755                         ld      a, #0x2E ; '.'                  ; empty sector
   56BA 32 F8 69      [13]  756                         ld      (tmp_sector_contents), a
   56BD C5            [11]  757                         push    bc
   56BE CD 23 61      [16]  758                         call    dec_jovians
   56C1 C1            [ 9]  759                         pop     bc
   56C2 3A C5 3C      [12]  760                         ld      a, (VIDEO+0xC5)                 ; warships in current quadrant of LR sensor
   56C5 3D            [ 4]  761                         dec     a                               ; adjust
   56C6 32 C5 3C      [13]  762                         ld      (VIDEO+0xC5), a                 ; update
                            763 
   56C9                     764 wipe_maser:
   56C9 CD 50 5F      [16]  765                         call    update_chaser_pods_cmd_entry
   56CC D1            [ 9]  766                         pop     de
   56CD 2A 2D 6A      [15]  767                         ld      hl, (hephaestus_video_addr)
                            768 
   56D0                     769 loc_54D0:                                                       ; add delta
   56D0 19            [ 7]  770                         add     hl, de
ASxxxx Assembler V05.00  (Zilog Z80 / Hitachi HD64180), page 15.
Hexidecimal [16-Bits]



   56D1 7E            [ 6]  771                         ld      a, (hl)                         ; get sector contents
   56D2 3E 2E         [ 6]  772                         ld      a, #0x2E ; '.'                  ; empty
   56D4 77            [ 7]  773                         ld      (hl), a                         ; write to video
   56D5 C5            [11]  774                         push    bc
   56D6 06 01         [ 6]  775                         ld      b, #1
   56D8 CD 4D 5F      [16]  776                         call    delay_B_and_update_all
   56DB C1            [ 9]  777                         pop     bc
   56DC 05            [ 4]  778                         dec     b                               ; done path?
   56DD C2 D0 56      [ 9]  779                         jp      NZ, loc_54D0                    ; no, loop
   56E0 3A F8 69      [12]  780                         ld      a, (tmp_sector_contents)
   56E3 77            [ 7]  781                         ld      (hl), a                         ; write to video
   56E4 3A F6 69      [12]  782                         ld      a, (tmp_delay_cycle)
   56E7 32 B5 71      [13]  783                         ld      (delay_duty_cycle_i), a
   56EA C9            [ 9]  784                         ret
                            785 ; End of function fire_maser
                            786 
                            787 ; ---------------------------------------------------------------------------
                            788 
   56EB                     789 triton_missile:
   56EB CD C5 60      [16]  790                         call    clear_last_2_lines
   56EE CD 7A 61      [16]  791                         call    dec_triton_misls_and_print
   56F1 DA 76 58      [ 9]  792                         jp      C, print_no_more_triton_misls   ; no missiles, exit
   56F4 3A 9E 6B      [12]  793                         ld      a, (pwr_trt_missl)
   56F7 FE 0A         [ 6]  794                         cp      #10                             ; less than 10%?
   56F9 F2 02 57      [ 9]  795                         jp      P, titron_pwr_ok                ; no, skip
                            796 
   56FC                     797 loc_54FC:                                                       ; "ENGINEER:COMMANDER, THE MISSILE TUBES A"...
   56FC 11 E3 64      [ 9]  798                         ld      de, #aEngineerComm_1
   56FF C3 3E 5F      [ 9]  799                         jp      print_string_last_line
                            800 ; ---------------------------------------------------------------------------
                            801 
   5702                     802 titron_pwr_ok:                                                  ; direction
   5702 CD AC 5E      [16]  803                         call    get_next_cmd_char
   5705 D6 30         [ 6]  804                         sub     #0x30 ; '0'                     ; digit?
   5707 FA 0A 5D      [ 9]  805                         jp      M, print_no_sense_and_ret       ; no, exit
   570A FE 08         [ 6]  806                         cp      #8                              ; greater than 7?
   570C F2 0A 5D      [ 9]  807                         jp      P, print_no_sense_and_ret       ; yes, exit
                            808 
                            809 ; =============== S U B R O U T I N E =======================================
                            810 
                            811 
   570F                     812 move_triton_missile:
                            813 
                            814 ; FUNCTION CHUNK AT 5585 SIZE 00000017 BYTES
                            815 ; FUNCTION CHUNK AT 5662 SIZE 00000014 BYTES
                            816 ; FUNCTION CHUNK AT 5842 SIZE 0000000F BYTES
                            817 
   570F 21 9F 6B      [ 9]  818                         ld      hl, #dir_addr_delta_tbl
   5712 A7            [ 4]  819                         and     a                               ; up?
   5713 CA 1C 57      [ 9]  820                         jp      Z, loc_551C                     ; yes, skip
                            821 
   5716                     822 loc_5516:
   5716 23            [ 4]  823                         inc     hl
   5717 23            [ 4]  824                         inc     hl                              ; next tbl entry
   5718 3D            [ 4]  825                         dec     a                               ; done?
ASxxxx Assembler V05.00  (Zilog Z80 / Hitachi HD64180), page 16.
Hexidecimal [16-Bits]



   5719 C2 16 57      [ 9]  826                         jp      NZ, loc_5516                    ; no, loop
                            827 
   571C                     828 loc_551C:
   571C 5E            [ 6]  829                         ld      e, (hl)
   571D 23            [ 4]  830                         inc     hl
   571E 56            [ 6]  831                         ld      d, (hl)                         ; DE = delta
   571F 2A 2D 6A      [15]  832                         ld      hl, (hephaestus_video_addr)
                            833 
   5722                     834 loc_5522:                                                       ; add delta
   5722 19            [ 7]  835                         add     hl, de
   5723 7E            [ 6]  836                         ld      a, (hl)                         ; get sector contents
   5724 E6 7F         [ 6]  837                         and     #0x7F ; ''
   5726 FE 2E         [ 6]  838                         cp      #0x2E ; '.'                     ; empty?
   5728 C2 3F 57      [ 9]  839                         jp      NZ, loc_553F                    ; no, skip
   572B 36 2B         [ 9]  840                         ld      (hl), #0x2B ; '+'               ; write missile graphic to video
   572D 06 06         [ 6]  841                         ld      b, #6
   572F CD 4D 5F      [16]  842                         call    delay_B_and_update_all
   5732 36 2E         [ 9]  843                         ld      (hl), #0x2E ; '.'               ; write empty sector to video
   5734 CD B6 53      [16]  844                         call    keyboard_scan                   ; any key?
   5737 CA 22 57      [ 9]  845                         jp      Z, loc_5522                     ; no, loop
   573A FE 09         [ 6]  846                         cp      #9                              ; <TAB>?
   573C C2 22 57      [ 9]  847                         jp      NZ, loc_5522                    ; no, loop
                            848 
   573F                     849 loc_553F:                                                       ; get sector contents
   573F 7E            [ 6]  850                         ld      a, (hl)
   5740 32 F8 69      [13]  851                         ld      (tmp_sector_contents), a
   5743 F6 80         [ 6]  852                         or      #0x80 ; 'Ä'
   5745 77            [ 7]  853                         ld      (hl), a                         ; animate
   5746 06 06         [ 6]  854                         ld      b, #6
   5748 CD 4D 5F      [16]  855                         call    delay_B_and_update_all
   574B 7E            [ 6]  856                         ld      a, (hl)                         ; *** dead code
   574C 3A F8 69      [12]  857                         ld      a, (tmp_sector_contents)
   574F 77            [ 7]  858                         ld      (hl), a                         ; restore contents
   5750 FE 30         [ 6]  859                         cp      #0x30 ; '0'                     ; space station?
   5752 CA 6E 58      [ 9]  860                         jp      Z, missile_destroyed_object     ; yes, go
   5755 FE 26         [ 6]  861                         cp      #0x26 ; '&'                     ; jovian battle cruiser?
   5757 CA 62 58      [ 9]  862                         jp      Z, missile_hit_jovian           ; yes, go
   575A FE 25         [ 6]  863                         cp      #0x25 ; '%'                     ; triton mine?
   575C CA 88 55      [ 9]  864                         jp      Z, hit_triton_mine              ; yes, go
   575F FE 58         [ 6]  865                         cp      #0x58 ; 'X'                     ; unknown?
   5761 CA 6F 57      [ 9]  866                         jp      Z, shot_hit_unknown             ; yes, go
   5764 FE 5B         [ 6]  867                         cp      #0x5B ; '['                     ; USS Hephaestus?
   5766 CA 47 5A      [ 9]  868                         jp      Z, power_minus_2_and_update     ; yes, go
   5769 11 09 68      [ 9]  869                         ld      de, #aComputerTriton            ; "COMPUTER:TRITON MISSILE HAS NO EFFECT"
   576C C3 3E 5F      [ 9]  870                         jp      print_string_last_line
                            871 ; ---------------------------------------------------------------------------
                            872 
   576F                     873 shot_hit_unknown:                                               ; sector video address
   576F E5            [11]  874                         push    hl
                            875 
   5770                     876 loc_5570:                                                       ; random entry
   5770 CD 05 5F      [16]  877                         call    rand_0_9
   5773 A7            [ 4]  878                         and     a                               ; zero?
   5774 CA 85 57      [ 9]  879                         jp      Z, finish_shot                  ; yes, go
   5777 21 2F 6A      [ 9]  880                         ld      hl, #missile_hit_unknown_tbl-2
ASxxxx Assembler V05.00  (Zilog Z80 / Hitachi HD64180), page 17.
Hexidecimal [16-Bits]



                            881 
   577A                     882 loc_557A:                                                       ; found entry?
   577A 3D            [ 4]  883                         dec     a
   577B 23            [ 4]  884                         inc     hl
   577C 23            [ 4]  885                         inc     hl
   577D C2 7A 57      [ 9]  886                         jp      NZ, loc_557A                    ; no, loop
                            887 ; End of function move_triton_missile
                            888 
                            889 ; START OF FUNCTION CHUNK FOR update_chaser_pods_cmd_entry
                            890 
   5780                     891 jump_HL_vector:
   5780 7E            [ 6]  892                         ld      a, (hl)
   5781 23            [ 4]  893                         inc     hl
   5782 66            [ 6]  894                         ld      h, (hl)
   5783 6F            [ 4]  895                         ld      l, a                            ; HL=vector address
   5784 E9            [ 3]  896                         jp      (hl)
                            897 ; END OF FUNCTION CHUNK FOR update_chaser_pods_cmd_entry
                            898 ; ---------------------------------------------------------------------------
                            899 ; START OF FUNCTION CHUNK FOR move_triton_missile
                            900 
   5785                     901 finish_shot:
   5785 E1            [ 9]  902                         pop     hl
   5786 3A 5A 6A      [12]  903                         ld      a, (blocked_by_unknown)
   5789 A7            [ 4]  904                         and     a                               ; blocked?
   578A F2 92 57      [ 9]  905                         jp      P, loc_5592                     ; no, skip
   578D AF            [ 4]  906                         xor     a                               ; flag OK
   578E 32 5A 6A      [13]  907                         ld      (blocked_by_unknown), a
   5791 C9            [ 9]  908                         ret
                            909 ; ---------------------------------------------------------------------------
                            910 
   5792                     911 loc_5592:                                                       ; *** dead code
   5792 3A BA 71      [12]  912                         ld      a, (maser_fired)
   5795 97            [ 4]  913                         sub     a                               ; flag not fired
   5796 32 BA 71      [13]  914                         ld      (maser_fired), a
   5799 C3 6E 58      [ 9]  915                         jp      missile_destroyed_object
                            916 ; END OF FUNCTION CHUNK FOR move_triton_missile
                            917 ; ---------------------------------------------------------------------------
                            918 ; Either
                            919 ; * maser fired, rebounds in random direction, or
                            920 ; * if blocked, removes Hephaestus & object from display, or
                            921 ; * fires triton missile in random direction
                            922 
                            923 
   579C                     924 missile_hit_unk_079:
   579C 3A BA 71      [12]  925                         ld      a, (maser_fired)
   579F A7            [ 4]  926                         and     a                               ; fired?
   57A0 2A 2D 6A      [15]  927                         ld      hl, (hephaestus_video_addr)
   57A3 E3            [16]  928                         ex      (sp), hl                        ; swap with sector video address
   57A4 22 2D 6A      [16]  929                         ld      (hephaestus_video_addr), hl     ; store as hephaestrus address (for fire)
   57A7 F2 B8 57      [ 9]  930                         jp      P, loc_55B8                     ; not fired, skip
                            931 
   57AA                     932 loc_55AA:                                                       ; dir
   57AA CD 05 5F      [16]  933                         call    rand_0_9
   57AD FE 08         [ 6]  934                         cp      #8                              ; greater than 7?
   57AF F2 AA 57      [ 9]  935                         jp      P, loc_55AA                     ; yes, regenerate
ASxxxx Assembler V05.00  (Zilog Z80 / Hitachi HD64180), page 18.
Hexidecimal [16-Bits]



   57B2 CD 4D 56      [16]  936                         call    fire_maser                      ; A=dir from unknown object
   57B5 C3 D0 57      [ 9]  937                         jp      loc_55D0
                            938 ; ---------------------------------------------------------------------------
                            939 
   57B8                     940 loc_55B8:
   57B8 3A 5A 6A      [12]  941                         ld      a, (blocked_by_unknown)
   57BB B7            [ 4]  942                         or      a                               ; blocked?
   57BC F2 C5 57      [ 9]  943                         jp      P, loc_55C5                     ; no, go
   57BF 36 2E         [ 9]  944                         ld      (hl), #0x2E ; '.'               ; write empty sector to video (unknown object)
   57C1 E1            [ 9]  945                         pop     hl                              ; hephaestus video address
   57C2 36 2E         [ 9]  946                         ld      (hl), #0x2E ; '.'               ; write empty sector to video
   57C4 C9            [ 9]  947                         ret
                            948 ; ---------------------------------------------------------------------------
                            949 
   57C5                     950 loc_55C5:                                                       ; dir
   57C5 CD 05 5F      [16]  951                         call    rand_0_9
   57C8 FE 08         [ 6]  952                         cp      #8                              ; greater than 7?
   57CA F2 C5 57      [ 9]  953                         jp      P, loc_55C5                     ; yes, regenerate
   57CD CD 0F 57      [16]  954                         call    move_triton_missile
                            955 
   57D0                     956 loc_55D0:                                                       ; hephaestus video address
   57D0 E1            [ 9]  957                         pop     hl
   57D1 22 2D 6A      [16]  958                         ld      (hephaestus_video_addr), hl     ; restore
   57D4 C9            [ 9]  959                         ret
                            960 ; ---------------------------------------------------------------------------
                            961 ; * sets all objects to unknown
                            962 ; * randomly disables hyperdrive
                            963 
   57D5                     964 missile_hit_unk_1:                                              ; unknown graphic
   57D5 3E 58         [ 6]  965                         ld      a, #0x58 ; 'X'
   57D7 32 EB 57      [13]  966                         ld      (loc_55EA+1), a                 ; patch!
                            967 
   57DA                     968 loc_55DA:                                                       ; top-left '.' in quadrant display
   57DA 21 57 3C      [ 9]  969                         ld      hl, # VIDEO+0x57
   57DD 11 2B 00      [ 9]  970                         ld      de, #0x2B ; '+'                 ; offset to next line of quadrant display
   57E0 06 0A         [ 6]  971                         ld      b, #10                          ; 10 rows to update
                            972 
   57E2                     973 loc_55E2:                                                       ; 21 columns to update
   57E2 0E 15         [ 6]  974                         ld      c, #21
                            975 
   57E4                     976 loc_55E4:                                                       ; get sector contents
   57E4 7E            [ 6]  977                         ld      a, (hl)
   57E5 FE 2E         [ 6]  978                         cp      #0x2E ; '.'                     ; empty?
   57E7 C2 EC 57      [ 9]  979                         jp      NZ, loc_55EC                    ; no, skip
                            980 ; the object graphic is patched (X/%)
                            981 
   57EA                     982 loc_55EA:                                                       ; write object graphic to video
   57EA 36 58         [ 9]  983                         ld      (hl), #0x58 ; 'X'
                            984 
   57EC                     985 loc_55EC:                                                       ; done all columns?
   57EC 0D            [ 4]  986                         dec     c
   57ED 23            [ 4]  987                         inc     hl                              ; next video address
   57EE C2 E4 57      [ 9]  988                         jp      NZ, loc_55E4                    ; no, loop
   57F1 19            [ 7]  989                         add     hl, de                          ; next row video address
   57F2 05            [ 4]  990                         dec     b                               ; done all rows?
ASxxxx Assembler V05.00  (Zilog Z80 / Hitachi HD64180), page 19.
Hexidecimal [16-Bits]



   57F3 C2 E2 57      [ 9]  991                         jp      NZ, loc_55E2                    ; no, loop
   57F6 CD 05 5F      [16]  992                         call    rand_0_9
   57F9 FE 05         [ 6]  993                         cp      #5                              ; greater than 4?
   57FB D2 03 58      [ 9]  994                         jp      NC, loc_5603                    ; yes, skip
   57FE 3E FF         [ 6]  995                         ld      a, #0xFF                        ; flag disabled
   5800 32 B9 71      [13]  996                         ld      (hyperdrive_disabled), a
                            997 
   5803                     998 loc_5603:
   5803 E1            [ 9]  999                         pop     hl
   5804 C9            [ 9] 1000                         ret
                           1001 ; ---------------------------------------------------------------------------
                           1002 ; * sets all objects to triton mines
                           1003 ; * randomly disables hyperdrive
                           1004 
   5805                    1005 missile_hit_unk_2:                                              ; triton mine
   5805 3E 25         [ 6] 1006                         ld      a, #0x25 ; '%'
   5807 32 EB 57      [13] 1007                         ld      (loc_55EA+1), a                 ; patch
   580A C3 DA 57      [ 9] 1008                         jp      loc_55DA
                           1009 ; ---------------------------------------------------------------------------
                           1010 ; randomly either:
                           1011 ; * changes unknown to space station, or
                           1012 ; * jumps to option 4
                           1013 
   580D                    1014 missile_hit_unk_6:
   580D CD 05 5F      [16] 1015                         call    rand_0_9
   5810 FE 05         [ 6] 1016                         cp      #5                              ; less than 5?
   5812 DA 3D 58      [ 9] 1017                         jp      C, missile_hit_unk_4            ; yes, go
   5815 E1            [ 9] 1018                         pop     hl                              ; unknown object address
   5816 36 30         [ 9] 1019                         ld      (hl), #0x30 ; '0'               ; is now a space station!
   5818 C9            [ 9] 1020                         ret
                           1021 ; ---------------------------------------------------------------------------
                           1022 ; warps to a random quadrant
                           1023 
   5819                    1024 missile_hit_unk_3:
   5819 CD 05 5F      [16] 1025                         call    rand_0_9
   581C 07            [ 3] 1026                         rlca
   581D 07            [ 3] 1027                         rlca
   581E 07            [ 3] 1028                         rlca
   581F 07            [ 3] 1029                         rlca
   5820 47            [ 4] 1030                         ld      b, a
   5821 CD 05 5F      [16] 1031                         call    rand_0_9
   5824 80            [ 4] 1032                         add     a, b                            ; random quadrant
   5825 32 66 6A      [13] 1033                         ld      (quadrant), a                   ; store as current
   5828 3E 03         [ 6] 1034                         ld      a, #3                           ; direction=SE
   582A 0E 01         [ 6] 1035                         ld      c, #1                           ; 1 quadrant
   582C CD 1D 5D      [16] 1036                         call    move_quadrant
   582F 21 C5 3C      [ 9] 1037                         ld      hl, # VIDEO+0xC5                ; current quadrant LR sensor
   5832 CD D1 5D      [16] 1038                         call    init_quadrant
   5835 CD 86 5D      [16] 1039                         call    print_quadrant
   5838 CD E8 60      [16] 1040                         call    print_sector
   583B E1            [ 9] 1041                         pop     hl                              ; discard
   583C C9            [ 9] 1042                         ret
                           1043 ; ---------------------------------------------------------------------------
                           1044 ; rolls the dice again!?!
                           1045 
ASxxxx Assembler V05.00  (Zilog Z80 / Hitachi HD64180), page 20.
Hexidecimal [16-Bits]



   583D                    1046 missile_hit_unk_4:                                              ; *** dead code
   583D CD 05 5F      [16] 1047                         call    rand_0_9
   5840 CD BF 5E      [16] 1048                         call    rnd_delay
   5843 C3 70 57      [ 9] 1049                         jp      loc_5570                        ; roll the dice again!
                           1050 ; ---------------------------------------------------------------------------
                           1051 ; randomly decrement power
                           1052 
   5846                    1053 missile_hit_unk_58:                                             ; "FIRST OFFICER: THE UNKNOWN IS STEALING "...
   5846 11 BF 69      [ 9] 1054                         ld      de, #aFirstOfficer_2
   5849 CD 3E 5F      [16] 1055                         call    print_string_last_line
   584C E1            [ 9] 1056                         pop     hl                              ; discard
                           1057 
   584D                    1058 loc_564D:
   584D CD 05 5F      [16] 1059                         call    rand_0_9
   5850 FE 04         [ 6] 1060                         cp      #4                              ; less than 4?
   5852 DA 5D 58      [ 9] 1061                         jp      C, loc_565D                     ; yes, go
   5855 06 12         [ 6] 1062                         ld      b, #18                          ; *** dead code
   5857 CD 6B 5C      [16] 1063                         call    jovian_attack_and_move
   585A C3 4D 58      [ 9] 1064                         jp      loc_564D                        ; again
                           1065 ; ---------------------------------------------------------------------------
                           1066 
   585D                    1067 loc_565D:                                                       ; *** dead code
   585D 06 19         [ 6] 1068                         ld      b, #25
   585F C3 C5 60      [ 9] 1069                         jp      clear_last_2_lines              ; wipe the message
                           1070 ; ---------------------------------------------------------------------------
                           1071 ; START OF FUNCTION CHUNK FOR move_triton_missile
                           1072 
   5862                    1073 missile_hit_jovian:
   5862 E5            [11] 1074                         push    hl
   5863 CD 23 61      [16] 1075                         call    dec_jovians
   5866 3A C5 3C      [12] 1076                         ld      a, (VIDEO+0xC5)                 ; warships in quadrant, LR sensor
   5869 3D            [ 4] 1077                         dec     a                               ; adjust
   586A 32 C5 3C      [13] 1078                         ld      (VIDEO+0xC5), a                 ; update
   586D E1            [ 9] 1079                         pop     hl                              ; object video address
                           1080 ; the object is not removed from any data table
                           1081 ; - confirmed; re-enter the quadrant and it's back!
                           1082 
   586E                    1083 missile_destroyed_object:                                       ; write empty sector to video
   586E 36 2E         [ 9] 1084                         ld      (hl), #0x2E ; '.'
   5870 11 1D 65      [ 9] 1085                         ld      de, #aComputerObject            ; "COMPUTER:OBJECT DESTROYED"
   5873 C3 3E 5F      [ 9] 1086                         jp      print_string_last_line
                           1087 ; END OF FUNCTION CHUNK FOR move_triton_missile
                           1088 ; ---------------------------------------------------------------------------
                           1089 
   5876                    1090 print_no_more_triton_misls:                                     ; "WEAPONRY:SIR, WE HAVE NO MORE TRITON MI"...
   5876 11 50 66      [ 9] 1091                         ld      de, #aWeaponrySirWeH
   5879 C3 3E 5F      [ 9] 1092                         jp      print_string_last_line
                           1093 ; ---------------------------------------------------------------------------
                           1094 
   587C                    1095 power_distrib:                                                  ; flag OK
   587C 97            [ 4] 1096                         sub     a
   587D 32 BF 71      [13] 1097                         ld      (critical), a
   5880 CD C5 60      [16] 1098                         call    clear_last_2_lines
   5883 CD AC 5E      [16] 1099                         call    get_next_cmd_char               ; get subcmd
   5886 21 26 6A      [ 9] 1100                         ld      hl, #pwr_subcmd_tbl             ; "HLSDMT"
ASxxxx Assembler V05.00  (Zilog Z80 / Hitachi HD64180), page 21.
Hexidecimal [16-Bits]



   5889 11 99 6B      [ 9] 1101                         ld      de, #pwr_hypr_ion
   588C 47            [ 4] 1102                         ld      b, a                            ; subcmd
                           1103 
   588D                    1104 loc_568D:                                                       ; subcmd entry from table
   588D 7E            [ 6] 1105                         ld      a, (hl)
   588E A7            [ 4] 1106                         and     a                               ; end of table?
   588F CA 0A 5D      [ 9] 1107                         jp      Z, print_no_sense_and_ret       ; yes, exit
   5892 B8            [ 4] 1108                         cp      b                               ; found it?
   5893 CA 9B 58      [ 9] 1109                         jp      Z, pwr_subcmd_ok                ; yes, go
   5896 23            [ 4] 1110                         inc     hl                              ; next entry in tbl
   5897 13            [ 4] 1111                         inc     de                              ; next power value
   5898 C3 8D 58      [ 9] 1112                         jp      loc_568D                        ; loop
                           1113 ; ---------------------------------------------------------------------------
                           1114 
   589B                    1115 pwr_subcmd_ok:                                                  ; get next char
   589B CD AC 5E      [16] 1116                         call    get_next_cmd_char
   589E CA A3 58      [ 9] 1117                         jp      Z, loc_56A3                     ; none, skip
   58A1 D6 30         [ 6] 1118                         sub     #0x30 ; '0'                     ; convert to binary
                           1119 
   58A3                    1120 loc_56A3:
   58A3 47            [ 4] 1121                         ld      b, a
   58A4 CD AC 5E      [16] 1122                         call    get_next_cmd_char               ; get next char
   58A7 C2 B0 58      [ 9] 1123                         jp      NZ, loc_56B0                    ; non-zero, skip
   58AA 48            [ 4] 1124                         ld      c, b
   58AB 06 00         [ 6] 1125                         ld      b, #0                           ; B,C=value
   58AD C3 B3 58      [ 9] 1126                         jp      loc_56B3
                           1127 ; ---------------------------------------------------------------------------
                           1128 
   58B0                    1129 loc_56B0:                                                       ; convert to binary
   58B0 D6 30         [ 6] 1130                         sub     #0x30 ; '0'
   58B2 4F            [ 4] 1131                         ld      c, a
                           1132 
   58B3                    1133 loc_56B3:
   58B3 78            [ 4] 1134                         ld      a, b
   58B4 0F            [ 3] 1135                         rrca
   58B5 0F            [ 3] 1136                         rrca
   58B6 0F            [ 3] 1137                         rrca
   58B7 0F            [ 3] 1138                         rrca
   58B8 B1            [ 4] 1139                         or      c                               ; convert to BCD byte
   58B9 12            [ 7] 1140                         ld      (de), a                         ; store in power settings
                           1141 
                           1142 ; =============== S U B R O U T I N E =======================================
                           1143 
                           1144 
   58BA                    1145 update_power_distribution:
   58BA 06 06         [ 6] 1146                         ld      b, #6                           ; 6 power values
   58BC 11 CD 3D      [ 9] 1147                         ld      de, # VIDEO+0x1CD               ; HYPR&ION value
   58BF 97            [ 4] 1148                         sub     a                               ; flag OK
   58C0 32 B6 71      [13] 1149                         ld      (power_overflow), a
   58C3 21 99 6B      [ 9] 1150                         ld      hl, #pwr_hypr_ion
                           1151 
   58C6                    1152 loc_56C6:                                                       ; add power value
   58C6 86            [ 6] 1153                         add     a, (hl)
   58C7 27            [ 4] 1154                         daa
   58C8 D2 D0 58      [ 9] 1155                         jp      NC, loc_56D0                    ; skip if no overflow
ASxxxx Assembler V05.00  (Zilog Z80 / Hitachi HD64180), page 22.
Hexidecimal [16-Bits]



   58CB 3E FF         [ 6] 1156                         ld      a, #0xFF                        ; flag overflow
   58CD 32 B6 71      [13] 1157                         ld      (power_overflow), a
                           1158 
   58D0                    1159 loc_56D0:                                                       ; store total
   58D0 4F            [ 4] 1160                         ld      c, a
   58D1 7E            [ 6] 1161                         ld      a, (hl)                         ; get power value
   58D2 0F            [ 3] 1162                         rrca
   58D3 0F            [ 3] 1163                         rrca
   58D4 0F            [ 3] 1164                         rrca
   58D5 0F            [ 3] 1165                         rrca                                    ; high->low nibble
   58D6 E6 0F         [ 6] 1166                         and     #0xF                            ; nibble only
   58D8 C6 30         [ 6] 1167                         add     a, #0x30 ; '0'                  ; convert to ASCII digit
   58DA 12            [ 7] 1168                         ld      (de), a                         ; write to video
   58DB 13            [ 4] 1169                         inc     de                              ; next video address
   58DC 7E            [ 6] 1170                         ld      a, (hl)
   58DD E6 0F         [ 6] 1171                         and     #0xF                            ; low nibble only
   58DF C6 30         [ 6] 1172                         add     a, #0x30 ; '0'                  ; convert to ASCII digit
   58E1 12            [ 7] 1173                         ld      (de), a                         ; write to video
   58E2 E5            [11] 1174                         push    hl
   58E3 21 3F 00      [ 9] 1175                         ld      hl, #0x3F ; '?'
   58E6 19            [ 7] 1176                         add     hl, de                          ; next line
   58E7 EB            [ 3] 1177                         ex      de, hl                          ; DE = video address
   58E8 E1            [ 9] 1178                         pop     hl
   58E9 05            [ 4] 1179                         dec     b                               ; done all power values?
   58EA 23            [ 4] 1180                         inc     hl                              ; next power value
   58EB 79            [ 4] 1181                         ld      a, c                            ; restore total
   58EC C2 C6 58      [ 9] 1182                         jp      NZ, loc_56C6                    ; no, loop
   58EF 47            [ 4] 1183                         ld      b, a                            ; get total
   58F0 3A B6 71      [12] 1184                         ld      a, (power_overflow)
   58F3 A7            [ 4] 1185                         and     a                               ; overflow?
   58F4 FA FC 58      [ 9] 1186                         jp      M, loc_56FC                     ; yes, go
   58F7 3A BD 6B      [12] 1187                         ld      a, (power_avail)
   58FA B8            [ 4] 1188                         cp      b                               ; more than available power?
   58FB D0            [10] 1189                         ret     NC                              ; no, return
                           1190 
   58FC                    1191 loc_56FC:                                                       ; "ENGINEER:COMMANDER, THE ENGINES ARE OVE"...
   58FC 11 5B 65      [ 9] 1192                         ld      de, #aEngineerComm_2
   58FF 21 80 3F      [ 9] 1193                         ld      hl, # VIDEO+0x380
   5902 CD 41 5F      [16] 1194                         call    clear_last_2_lines_print_string
   5905 06 10         [ 6] 1195                         ld      b, #16
   5907 CD C4 5E      [16] 1196                         call    delay_B_with_duty_cycle
   590A 3A BF 71      [12] 1197                         ld      a, (critical)
   590D A7            [ 4] 1198                         and     a                               ; exploding?
   590E F8            [10] 1199                         ret     M                               ; yes, return
                           1200 
   590F                    1201 loc_570F:
   590F CD 05 5F      [16] 1202                         call    rand_0_9
   5912 FE 04         [ 6] 1203                         cp      #4                              ; less than 4?
   5914 DA 0F 59      [ 9] 1204                         jp      C, loc_570F                     ; yes, regenerate
   5917 32 2F 6A      [13] 1205                         ld      (engine_explode_countdown), a
   591A 3E FF         [ 6] 1206                         ld      a, #0xFF                        ; flag exploding
   591C 32 BF 71      [13] 1207                         ld      (critical), a
   591F 3E 03         [ 6] 1208                         ld      a, #3
   5921 32 B5 71      [13] 1209                         ld      (delay_duty_cycle_i), a
   5924 21 BB 3C      [ 9] 1210                         ld      hl, # VIDEO+0xBB                ; ptr to condition value
ASxxxx Assembler V05.00  (Zilog Z80 / Hitachi HD64180), page 23.
Hexidecimal [16-Bits]



   5927 11 BD 63      [ 9] 1211                         ld      de, #aCrtcl                     ; "CRTCL"
   592A CD 41 5F      [16] 1212                         call    clear_last_2_lines_print_string
   592D C3 50 5F      [ 9] 1213                         jp      update_chaser_pods_cmd_entry
                           1214 ; End of function update_power_distribution
                           1215 
                           1216 ; ---------------------------------------------------------------------------
                           1217 
   5930                    1218 self_destruct:                                                  ; "COMPUTER:SELF DESTRUCT SEQUENCE INITIAT"...
   5930 11 AB 65      [ 9] 1219                         ld      de, #aComputerSelfDe
   5933 CD 3E 5F      [16] 1220                         call    print_string_last_line
   5936 1E 15         [ 6] 1221                         ld      e, #0x15                        ; 15 sec countdown
   5938 21 EB 3F      [ 9] 1222                         ld      hl, # VIDEO+0x3EB               ; self destruct countdown video address
                           1223 
   593B                    1224 loc_573B:
   593B 06 10         [ 6] 1225                         ld      b, #16
   593D CD 4D 5F      [16] 1226                         call    delay_B_and_update_all
   5940 7B            [ 4] 1227                         ld      a, e                            ; countdown
   5941 C6 99         [ 6] 1228                         add     a, #0x99 ; 'ô'
   5943 27            [ 4] 1229                         daa                                     ; decrement
   5944 5F            [ 4] 1230                         ld      e, a                            ; update
   5945 0F            [ 3] 1231                         rrca
   5946 0F            [ 3] 1232                         rrca
   5947 0F            [ 3] 1233                         rrca
   5948 0F            [ 3] 1234                         rrca
   5949 E6 0F         [ 6] 1235                         and     #0xF                            ; high->low nibble
   594B C6 30         [ 6] 1236                         add     a, #0x30 ; '0'                  ; convert to ASCII
   594D 77            [ 7] 1237                         ld      (hl), a                         ; write to video
   594E 23            [ 4] 1238                         inc     hl                              ; next video address
   594F 7B            [ 4] 1239                         ld      a, e
   5950 E6 0F         [ 6] 1240                         and     #0xF                            ; low nibble only
   5952 C6 30         [ 6] 1241                         add     a, #0x30 ; '0'                  ; convert to ASCII
   5954 77            [ 7] 1242                         ld      (hl), a                         ; write to video
   5955 2B            [ 4] 1243                         dec     hl                              ; restore video address
   5956 7B            [ 4] 1244                         ld      a, e
   5957 A7            [ 4] 1245                         and     a                               ; done countdown?
   5958 CA 8E 55      [ 9] 1246                         jp      Z, print_game_over_screen       ; yes, exit
   595B FE 06         [ 6] 1247                         cp      #6                              ; less than 6s left?
   595D FA 3B 59      [ 9] 1248                         jp      M, loc_573B                     ; yes, loop
   5960 CD B6 53      [16] 1249                         call    keyboard_scan                   ; any key?
   5963 CA 3B 59      [ 9] 1250                         jp      Z, loc_573B                     ; no, loop
   5966 FE 09         [ 6] 1251                         cp      #9                              ; <TAB>?
   5968 C2 3B 59      [ 9] 1252                         jp      NZ, loc_573B                    ; no, loop
   596B 11 E8 65      [ 9] 1253                         ld      de, #aComputerSelf_0            ; "COMPUTER:SELF DESTRUCT SEQUENCE ABORTED"
   596E C3 3E 5F      [ 9] 1254                         jp      print_string_last_line
                           1255 ; ---------------------------------------------------------------------------
                           1256 
   5971                    1257 experimental_ray:
   5971 3A BD 71      [12] 1258                         ld      a, (experimental_ray_disabled)
   5974 A7            [ 4] 1259                         and     a                               ; disabled?
   5975 F2 7E 59      [ 9] 1260                         jp      P, loc_577E                     ; no, go
   5978 11 CE 68      [ 9] 1261                         ld      de, #aIsPermanentlyD            ; "IS PERMANENTLY DISABLED"
   597B C3 2E 5F      [ 9] 1262                         jp      print_experimental_ray_outcome
                           1263 ; ---------------------------------------------------------------------------
                           1264 
   597E                    1265 loc_577E:
ASxxxx Assembler V05.00  (Zilog Z80 / Hitachi HD64180), page 24.
Hexidecimal [16-Bits]



   597E CD 05 5F      [16] 1266                         call    rand_0_9
   5981 A7            [ 4] 1267                         and     a                               ; zero?
   5982 CA 92 59      [ 9] 1268                         jp      Z, expr_9                       ; yes, go
   5985 11 44 6A      [ 9] 1269                         ld      de, #expr_tbl-2
                           1270 
   5988                    1271 loc_5788:                                                       ; found vector?
   5988 3D            [ 4] 1272                         dec     a
   5989 13            [ 4] 1273                         inc     de
   598A 13            [ 4] 1274                         inc     de                              ; next vector entry
   598B C2 88 59      [ 9] 1275                         jp      NZ, loc_5788                    ; no, loop
   598E EB            [ 3] 1276                         ex      de, hl
   598F C3 80 57      [ 9] 1277                         jp      jump_HL_vector                  ; go
                           1278 ; ---------------------------------------------------------------------------
                           1279 ; launches a triton missile in a circle
                           1280 
   5992                    1281 expr_9:                                                         ; "IS FIRING TRITON MISSILES"
   5992 11 6F 67      [ 9] 1282                         ld      de, #aIsFiringTriton
   5995 CD 2E 5F      [16] 1283                         call    print_experimental_ray_outcome
   5998 3E 07         [ 6] 1284                         ld      a, #7                           ; dir=NW
                           1285 
   599A                    1286 loc_579A:
   599A F5            [11] 1287                         push    af
   599B CD 0F 57      [16] 1288                         call    move_triton_missile
   599E F1            [ 9] 1289                         pop     af
   599F 3D            [ 4] 1290                         dec     a                               ; next direction
   59A0 C2 9A 59      [ 9] 1291                         jp      NZ, loc_579A                    ; loop all directions
   59A3 C3 0F 57      [ 9] 1292                         jp      move_triton_missile
                           1293 ; ---------------------------------------------------------------------------
                           1294 ; converts all characters to graphics (distort)
                           1295 
   59A6                    1296 expr_0:                                                         ; "CAUSED A CHANGE IN SPACIAL     STRUCTUR"...
   59A6 11 89 67      [ 9] 1297                         ld      de, #aCausedAChangeI
   59A9 CD 2E 5F      [16] 1298                         call    print_experimental_ray_outcome
   59AC 3E 01         [ 6] 1299                         ld      a, #1                           ; flag disabled
   59AE 32 BE 71      [13] 1300                         ld      (disable_pod_update), a
   59B1 11 2B 00      [ 9] 1301                         ld      de, #0x2B ; '+'                 ; offset to next row in quadrant display
   59B4 21 57 3C      [ 9] 1302                         ld      hl, # VIDEO+0x57                ; ptr first sector in quadrant display
   59B7 06 0A         [ 6] 1303                         ld      b, #10                          ; 10 rows
                           1304 
   59B9                    1305 loc_57B9:                                                       ; 21 columns
   59B9 0E 15         [ 6] 1306                         ld      c, #21
                           1307 
   59BB                    1308 loc_57BB:                                                       ; get sector contents
   59BB 7E            [ 6] 1309                         ld      a, (hl)
   59BC C6 80         [ 6] 1310                         add     a, #0x80 ; 'Ä'                  ; make graphic
   59BE 77            [ 7] 1311                         ld      (hl), a                         ; write to video
   59BF 23            [ 4] 1312                         inc     hl                              ; next video address
   59C0 0D            [ 4] 1313                         dec     c                               ; done all columns?
   59C1 C2 BB 59      [ 9] 1314                         jp      NZ, loc_57BB                    ; no, loop
   59C4 19            [ 7] 1315                         add     hl, de                          ; ptr next row
   59C5 05            [ 4] 1316                         dec     b                               ; done all rows?
   59C6 C2 B9 59      [ 9] 1317                         jp      NZ, loc_57B9                    ; no, loop
   59C9 C9            [ 9] 1318                         ret
                           1319 ; ---------------------------------------------------------------------------
                           1320 ; freezes time for jovians in this quadrant
ASxxxx Assembler V05.00  (Zilog Z80 / Hitachi HD64180), page 25.
Hexidecimal [16-Bits]



                           1321 
   59CA                    1322 expr_1:                                                         ; "HAS FROZEN TIME FOR THE        JOVIANS"
   59CA 11 B2 67      [ 9] 1323                         ld      de, #aHasFrozenTimeF
   59CD 3E FF         [ 6] 1324                         ld      a, #0xFF                        ; flag frozen
   59CF 32 BC 71      [13] 1325                         ld      (jovian_time_frozen), a
   59D2 C3 2E 5F      [ 9] 1326                         jp      print_experimental_ray_outcome
                           1327 ; ---------------------------------------------------------------------------
                           1328 ; *** BUG #002 - introduced in TRS-80 version
                           1329 ; this is supposed to make jovians invisible
                           1330 ; - but it looks like it makes space stations invisible???
                           1331 
   59D5                    1332 expr_2:                                                         ; "HAS CAUSED THE JOVIANS TO      BECOME I"...
   59D5 11 D9 67      [ 9] 1333                         ld      de, #aHasCausedTheJo
   59D8 CD 2E 5F      [16] 1334                         call    print_experimental_ray_outcome
   59DB 21 57 3C      [ 9] 1335                         ld      hl, # VIDEO+0x57                ; first sector in quadrant video address
   59DE 11 2B 00      [ 9] 1336                         ld      de, #0x2B ; '+'                 ; offset to next quadrant row
   59E1 06 0A         [ 6] 1337                         ld      b, #10                          ; 10 rows
                           1338 
   59E3                    1339 loc_57E3:                                                       ; 21 columns
   59E3 0E 15         [ 6] 1340                         ld      c, #21
                           1341 
   59E5                    1342 loc_57E5:                                                       ; get object from video
   59E5 7E            [ 6] 1343                         ld      a, (hl)
                     0000  1344 .ifndef BUILD_OPT_FIX_RAY_BUG
                           1345                         cp      #0x30 ; '0'                     ; space station?
                     0001  1346 .else
   59E6 FE 26         [ 6] 1347                         cp      #0x26 ; '&'                     ; jovian battle cruiser?
   59E8 C2 F2 59      [ 9] 1348                         jp      NZ, loc_57ED                    ; no, skip
   59EB FE 40         [ 6] 1349                         cp      #0x40 ; '@'                     ; jovian command cruiser?
                           1350 .endif                        
   59ED C2 F2 59      [ 9] 1351                         jp      NZ, loc_57ED                    ; no, skip
   59F0 36 2E         [ 9] 1352                         ld      (hl), #0x2E ; '.'               ; write empty sector to video
                           1353 
   59F2                    1354 loc_57ED:                                                       ; next video address
   59F2 23            [ 4] 1355                         inc     hl
   59F3 0D            [ 4] 1356                         dec     c                               ; done all columns?
   59F4 C2 E5 59      [ 9] 1357                         jp      NZ, loc_57E5                    ; no, loop
   59F7 19            [ 7] 1358                         add     hl, de                          ; next quadrant row video address
   59F8 05            [ 4] 1359                         dec     b                               ; done all rows?
   59F9 C2 E3 59      [ 9] 1360                         jp      NZ, loc_57E3                    ; no, loop
   59FC C9            [ 9] 1361                         ret
                           1362 ; ---------------------------------------------------------------------------
                           1363 ; re-randomises the quadrant
                           1364 
   59FD                    1365 expr_3:                                                         ; "HAS JUMBLED THE QUADRANT"
   59FD 11 2F 68      [ 9] 1366                         ld      de, #aHasJumbledTheQ
   5A00 CD 2E 5F      [16] 1367                         call    print_experimental_ray_outcome
   5A03 21 C5 3C      [ 9] 1368                         ld      hl, # VIDEO+0xC5                ; current quadrant in LR sensor
   5A06 C3 D1 5D      [ 9] 1369                         jp      init_quadrant
                           1370 ; ---------------------------------------------------------------------------
                           1371 ; destroys all Jovians in quadrant
                           1372 
   5A09                    1373 expr_4:
   5A09 21 80 3F      [ 9] 1374                         ld      hl, # VIDEO+0x380
   5A0C 11 48 68      [ 9] 1375                         ld      de, #aHasDestroyedAl            ; "HAS DESTROYED ALL THE          JOVIANS "...
ASxxxx Assembler V05.00  (Zilog Z80 / Hitachi HD64180), page 26.
Hexidecimal [16-Bits]



   5A0F CD 2E 5F      [16] 1376                         call    print_experimental_ray_outcome
   5A12 3A 66 6A      [12] 1377                         ld      a, (quadrant)
   5A15 CD 9F 5D      [16] 1378                         call    get_ptr_quadrant_A_data
   5A18 46            [ 6] 1379                         ld      b, (hl)                         ; warships in quadrant
   5A19 05            [ 4] 1380                         dec     b                               ; adjust for call below
   5A1A 3E 99         [ 6] 1381                         ld      a, #0x99 ; 'ô'
   5A1C 90            [ 4] 1382                         sub     b
   5A1D 47            [ 4] 1383                         ld      b, a                            ; negative
   5A1E 3A 5D 6A      [12] 1384                         ld      a, (jovians_left)
   5A21 80            [ 4] 1385                         add     a, b
   5A22 27            [ 4] 1386                         daa                                     ; adjust jovians left
   5A23 32 5D 6A      [13] 1387                         ld      (jovians_left), a               ; update
   5A26 36 01         [ 9] 1388                         ld      (hl), #1                        ; fudge to 1 for call below
   5A28 3E 30         [ 6] 1389                         ld      a, #0x30 ; '0'                  ; 0 warships
   5A2A 32 C5 3C      [13] 1390                         ld      (VIDEO+0xC5), a                 ; write to LR sensor video
   5A2D CD 23 61      [16] 1391                         call    dec_jovians                     ; handle decrement of jovians
   5A30 21 C5 3C      [ 9] 1392                         ld      hl, # VIDEO+0xC5                ; current quadrant in LR sensor
   5A33 C3 D1 5D      [ 9] 1393                         jp      init_quadrant
                           1394 ; ---------------------------------------------------------------------------
                           1395 ; destroys itself
                           1396 
   5A36                    1397 expr_5:                                                         ; "DESTROYS ITSELF"
   5A36 11 7F 68      [ 9] 1398                         ld      de, #aDestroysItself
   5A39 3E FF         [ 6] 1399                         ld      a, #0xFF
   5A3B 32 BD 71      [13] 1400                         ld      (experimental_ray_disabled), a
   5A3E C3 2E 5F      [ 9] 1401                         jp      print_experimental_ray_outcome
                           1402 ; ---------------------------------------------------------------------------
                           1403 ; backfires, subtracts 2 from power
                           1404 
   5A41                    1405 expr_6:                                                         ; "HAS BACKFIRED ON US"
   5A41 11 8F 68      [ 9] 1406                         ld      de, #aHasBackfiredOn
   5A44 CD 2E 5F      [16] 1407                         call    print_experimental_ray_outcome
                           1408 ; START OF FUNCTION CHUNK FOR move_triton_missile
                           1409 
   5A47                    1410 power_minus_2_and_update:
   5A47 3A BD 6B      [12] 1411                         ld      a, (power_avail)
   5A4A C6 98         [ 6] 1412                         add     a, #0x98 ; 'ò'
   5A4C 27            [ 4] 1413                         daa                                     ; decrement power
   5A4D 32 BD 6B      [13] 1414                         ld      (power_avail), a
   5A50 CD 62 61      [16] 1415                         call    print_power_avail
   5A53 C3 BA 58      [ 9] 1416                         jp      update_power_distribution
                           1417 ; END OF FUNCTION CHUNK FOR move_triton_missile
                           1418 ; ---------------------------------------------------------------------------
                           1419 ; causes computer malfunction
                           1420 
   5A56                    1421 expr_7:                                                         ; "HAS CAUSED A COMPUTER          MALFUNCT"...
   5A56 11 A3 68      [ 9] 1422                         ld      de, #aHasCausedAComp
   5A59 3E FF         [ 6] 1423                         ld      a, #0xFF
   5A5B 32 BB 71      [13] 1424                         ld      (computer_malfunction), a
   5A5E C3 2E 5F      [ 9] 1425                         jp      print_experimental_ray_outcome
                           1426 ; ---------------------------------------------------------------------------
                           1427 ; not allowed to fire
                           1428 
   5A61                    1429 expr_8:                                                         ; "MEDICAL OFFICER:I CAN'T ALLOW YOU TO FI"...
   5A61 11 10 66      [ 9] 1430                         ld      de, #aMedicalOfficer
ASxxxx Assembler V05.00  (Zilog Z80 / Hitachi HD64180), page 27.
Hexidecimal [16-Bits]



   5A64 C3 3E 5F      [ 9] 1431                         jp      print_string_last_line
                           1432 ; ---------------------------------------------------------------------------
                           1433 
   5A67                    1434 launch_antimatter:
   5A67 3A 30 6A      [12] 1435                         ld      a, (antimatter_pods)
   5A6A A7            [ 4] 1436                         and     a                               ; none left?
   5A6B 11 63 69      [ 9] 1437                         ld      de, #aWeaponryWeReOu            ; "WEAPONRY: WE'RE OUT OF PODS"
   5A6E CA 3E 5F      [ 9] 1438                         jp      Z, print_string_last_line       ; yes, exit
   5A71 3A 9E 6B      [12] 1439                         ld      a, (pwr_trt_missl)
   5A74 FE 08         [ 6] 1440                         cp      #8                              ; less than 8%?
   5A76 FA FC 56      [ 9] 1441                         jp      M, loc_54FC                     ; yes, exit
   5A79 CD AC 5E      [16] 1442                         call    get_next_cmd_char               ; pod #
   5A7C CA 0A 5D      [ 9] 1443                         jp      Z, print_no_sense_and_ret       ; none, exit
   5A7F D6 31         [ 6] 1444                         sub     #0x31 ; '1'                     ; less than '1'?
   5A81 FA 0A 5D      [ 9] 1445                         jp      M, print_no_sense_and_ret       ; yes, exit
   5A84 FE 03         [ 6] 1446                         cp      #3                              ; greater than 3?
   5A86 F2 0A 5D      [ 9] 1447                         jp      P, print_no_sense_and_ret       ; yes, exit
   5A89 21 A1 71      [ 9] 1448                         ld      hl, #antimatter_pod_tbl
   5A8C 47            [ 4] 1449                         ld      b, a                            ; zero-based pod #
   5A8D 07            [ 3] 1450                         rlca                                    ; x2
   5A8E 80            [ 4] 1451                         add     a, b                            ; x3
   5A8F 07            [ 3] 1452                         rlca                                    ; x6
   5A90 85            [ 4] 1453                         add     a, l
   5A91 6F            [ 4] 1454                         ld      l, a
   5A92 7C            [ 4] 1455                         ld      a, h
   5A93 CE 00         [ 6] 1456                         adc     a, #0
   5A95 67            [ 4] 1457                         ld      h, a                            ; ptr pod entry
   5A96 7E            [ 6] 1458                         ld      a, (hl)                         ; get pod status
   5A97 A7            [ 4] 1459                         and     a                               ; used?
   5A98 11 7F 69      [ 9] 1460                         ld      de, #aComputerThePod            ; "COMPUTER: THE POD HAS BEEN USED"
   5A9B C2 3E 5F      [ 9] 1461                         jp      NZ, print_string_last_line      ; yes, exit
   5A9E CD AC 5E      [16] 1462                         call    get_next_cmd_char               ; direction
   5AA1 CA 0A 5D      [ 9] 1463                         jp      Z, print_no_sense_and_ret       ; none, exit
   5AA4 D6 30         [ 6] 1464                         sub     #0x30 ; '0'                     ; less than '0'?
   5AA6 FA 0A 5D      [ 9] 1465                         jp      M, print_no_sense_and_ret       ; yes, exit
   5AA9 FE 08         [ 6] 1466                         cp      #8                              ; greater than 7?
   5AAB F2 0A 5D      [ 9] 1467                         jp      P, print_no_sense_and_ret       ; yes, exit
   5AAE F5            [11] 1468                         push    af                              ; tmp store direction
   5AAF CD AC 5E      [16] 1469                         call    get_next_cmd_char               ; speed
   5AB2 CA C4 5A      [ 9] 1470                         jp      Z, loc_58BF                     ; none, skip
   5AB5 D6 30         [ 6] 1471                         sub     #0x30 ; '0'                     ; less than '0'?
   5AB7 FA 0A 5D      [ 9] 1472                         jp      M, print_no_sense_and_ret       ; yes, exit
   5ABA FE 0A         [ 6] 1473                         cp      #10                             ; greater than 9?
   5ABC F2 0A 5D      [ 9] 1474                         jp      P, print_no_sense_and_ret       ; yes, exit
   5ABF 3C            [ 4] 1475                         inc     a
   5AC0 07            [ 3] 1476                         rlca                                    ; scale
   5AC1 32 45 6A      [13] 1477                         ld      (pod_speed), a
                           1478 
   5AC4                    1479 loc_58BF:                                                       ; flag pod launched
   5AC4 36 01         [ 9] 1480                         ld      (hl), #1
   5AC6 F1            [ 9] 1481                         pop     af                              ; direction
   5AC7 E5            [11] 1482                         push    hl                              ; tmp store pod status
   5AC8 23            [ 4] 1483                         inc     hl                              ; ptr pod address delta
   5AC9 EB            [ 3] 1484                         ex      de, hl
   5ACA 21 9F 6B      [ 9] 1485                         ld      hl, #dir_addr_delta_tbl
ASxxxx Assembler V05.00  (Zilog Z80 / Hitachi HD64180), page 28.
Hexidecimal [16-Bits]



   5ACD 07            [ 3] 1486                         rlca
   5ACE 85            [ 4] 1487                         add     a, l
   5ACF 6F            [ 4] 1488                         ld      l, a
   5AD0 7C            [ 4] 1489                         ld      a, h
   5AD1 CE 00         [ 6] 1490                         adc     a, #0
   5AD3 67            [ 4] 1491                         ld      h, a                            ; ptr tbl entry
   5AD4 7E            [ 6] 1492                         ld      a, (hl)                         ; delta lsb
   5AD5 12            [ 7] 1493                         ld      (de), a                         ; store in pod delta lsb
   5AD6 23            [ 4] 1494                         inc     hl
   5AD7 13            [ 4] 1495                         inc     de
   5AD8 7E            [ 6] 1496                         ld      a, (hl)                         ; delta msb
   5AD9 12            [ 7] 1497                         ld      (de), a                         ; store in pod delta msb
   5ADA D5            [11] 1498                         push    de
   5ADB 1B            [ 4] 1499                         dec     de                              ; ptr pod delta lsb
   5ADC 2A 2D 6A      [15] 1500                         ld      hl, (hephaestus_video_addr)
   5ADF 1A            [ 6] 1501                         ld      a, (de)
   5AE0 85            [ 4] 1502                         add     a, l
   5AE1 6F            [ 4] 1503                         ld      l, a                            ; calc video address lsb
   5AE2 13            [ 4] 1504                         inc     de                              ; ptr pod delta msb
   5AE3 1A            [ 6] 1505                         ld      a, (de)
   5AE4 8C            [ 4] 1506                         adc     a, h
   5AE5 67            [ 4] 1507                         ld      h, a                            ; calc video address msb
   5AE6 D1            [ 9] 1508                         pop     de
   5AE7 13            [ 4] 1509                         inc     de                              ; ptr pod video address lsb
   5AE8 7D            [ 4] 1510                         ld      a, l
   5AE9 12            [ 7] 1511                         ld      (de), a                         ; store pod video address lsb
   5AEA 13            [ 4] 1512                         inc     de
   5AEB 7C            [ 4] 1513                         ld      a, h
   5AEC 12            [ 7] 1514                         ld      (de), a                         ; store pod video address msb
   5AED 7E            [ 6] 1515                         ld      a, (hl)                         ; get sector contents
   5AEE FE 2E         [ 6] 1516                         cp      #0x2E ; '.'                     ; empty?
   5AF0 C2 08 5B      [ 9] 1517                         jp      NZ, print_pod_blocked           ; no, exit
   5AF3 36 23         [ 9] 1518                         ld      (hl), #0x23 ; '#'               ; write pod graphic to video
   5AF5 13            [ 4] 1519                         inc     de
   5AF6 3A 45 6A      [12] 1520                         ld      a, (pod_speed)
   5AF9 12            [ 7] 1521                         ld      (de), a                         ; store pod speed
   5AFA 3A 30 6A      [12] 1522                         ld      a, (antimatter_pods)
   5AFD 3D            [ 4] 1523                         dec     a                               ; update
   5AFE 32 30 6A      [13] 1524                         ld      (antimatter_pods), a
   5B01 E1            [ 9] 1525                         pop     hl                              ; discard tmp store
   5B02 21 3E 3E      [ 9] 1526                         ld      hl, # VIDEO+0x23E               ; antimatter pods value video address
   5B05 C3 68 61      [ 9] 1527                         jp      print_BCD_byte
                           1528 ; ---------------------------------------------------------------------------
                           1529 
   5B08                    1530 print_pod_blocked:                                              ; "COMPUTER: POD LAUNCH IS BLOCKED"
   5B08 11 9F 69      [ 9] 1531                         ld      de, #aComputerPodLau
   5B0B E1            [ 9] 1532                         pop     hl                              ; ptr pod status
   5B0C 36 00         [ 9] 1533                         ld      (hl), #0                        ; flag unused again
   5B0E C3 3E 5F      [ 9] 1534                         jp      print_string_last_line
                           1535 ; ---------------------------------------------------------------------------
                           1536 
   5B11                    1537 explode_pod:                                                    ; pod #
   5B11 CD AC 5E      [16] 1538                         call    get_next_cmd_char
   5B14 CA 0A 5D      [ 9] 1539                         jp      Z, print_no_sense_and_ret       ; none, exit
   5B17 D6 31         [ 6] 1540                         sub     #0x31 ; '1'                     ; less than 1?
ASxxxx Assembler V05.00  (Zilog Z80 / Hitachi HD64180), page 29.
Hexidecimal [16-Bits]



   5B19 FA 0A 5D      [ 9] 1541                         jp      M, print_no_sense_and_ret       ; yes, exit
   5B1C FE 03         [ 6] 1542                         cp      #3                              ; greater than 3?
   5B1E F2 0A 5D      [ 9] 1543                         jp      P, print_no_sense_and_ret       ; yes exit
   5B21 47            [ 4] 1544                         ld      b, a                            ; 0-based pod #
   5B22 07            [ 3] 1545                         rlca                                    ; x2
   5B23 80            [ 4] 1546                         add     a, b                            ; x3
   5B24 07            [ 3] 1547                         rlca                                    ; x6
   5B25 21 A1 71      [ 9] 1548                         ld      hl, #antimatter_pod_tbl
   5B28 85            [ 4] 1549                         add     a, l
   5B29 6F            [ 4] 1550                         ld      l, a
   5B2A 7C            [ 4] 1551                         ld      a, h
   5B2B CE 00         [ 6] 1552                         adc     a, #0
   5B2D 67            [ 4] 1553                         ld      h, a                            ; get ptr pod entry
   5B2E 7E            [ 6] 1554                         ld      a, (hl)                         ; pod status
   5B2F A7            [ 4] 1555                         and     a                               ; used?
   5B30 CA 0A 5D      [ 9] 1556                         jp      Z, print_no_sense_and_ret       ; no, exit
   5B33 FE 01         [ 6] 1557                         cp      #1                              ; launched?
   5B35 CA 3E 5B      [ 9] 1558                         jp      Z, explode_pod_ok               ; yes, skip
   5B38 11 7F 69      [ 9] 1559                         ld      de, #aComputerThePod            ; "COMPUTER: THE POD HAS BEEN USED"
   5B3B C3 3E 5F      [ 9] 1560                         jp      print_string_last_line
                           1561 ; ---------------------------------------------------------------------------
                           1562 
   5B3E                    1563 explode_pod_ok:                                                 ; flag exploded
   5B3E 36 02         [ 9] 1564                         ld      (hl), #2
   5B40 23            [ 4] 1565                         inc     hl
   5B41 23            [ 4] 1566                         inc     hl
   5B42 23            [ 4] 1567                         inc     hl
   5B43 7E            [ 6] 1568                         ld      a, (hl)
   5B44 23            [ 4] 1569                         inc     hl
   5B45 66            [ 6] 1570                         ld      h, (hl)
   5B46 6F            [ 4] 1571                         ld      l, a                            ; get pod video address
   5B47 36 8F         [ 9] 1572                         ld      (hl), #0x8F ; 'è'               ; animate
   5B49 EB            [ 3] 1573                         ex      de, hl
   5B4A 21 9F 6B      [ 9] 1574                         ld      hl, #dir_addr_delta_tbl
   5B4D 06 08         [ 6] 1575                         ld      b, #8                           ; 8 directions to iterate
                           1576 
   5B4F                    1577 loc_594A:
   5B4F E5            [11] 1578                         push    hl
   5B50 7E            [ 6] 1579                         ld      a, (hl)
   5B51 23            [ 4] 1580                         inc     hl
   5B52 66            [ 6] 1581                         ld      h, (hl)
   5B53 6F            [ 4] 1582                         ld      l, a                            ; get delta
   5B54 19            [ 7] 1583                         add     hl, de                          ; add delta to pod video address
   5B55 7E            [ 6] 1584                         ld      a, (hl)                         ; get sector contents
   5B56 FE 26         [ 6] 1585                         cp      #0x26 ; '&'                     ; jovian battle cruiser?
   5B58 CA 92 5B      [ 9] 1586                         jp      Z, pod_hit_jovian               ; yes, go
   5B5B FE 40         [ 6] 1587                         cp      #0x40 ; '@'                     ; command cruiser?
   5B5D CA 92 5B      [ 9] 1588                         jp      Z, pod_hit_jovian               ; yes, go
   5B60 FE 25         [ 6] 1589                         cp      #0x25 ; '%'                     ; triton mine?
   5B62 CA 88 55      [ 9] 1590                         jp      Z, hit_triton_mine              ; yes, go
   5B65 FE 5B         [ 6] 1591                         cp      #0x5B ; '['                     ; USS Hephaestus?
   5B67 CA 8E 55      [ 9] 1592                         jp      Z, print_game_over_screen       ; yes, go (oops)
   5B6A FE 23         [ 6] 1593                         cp      #0x23 ; '#'                     ; antimatter pod?
   5B6C CA 8E 55      [ 9] 1594                         jp      Z, print_game_over_screen       ; yes, go (oops)
   5B6F FE 30         [ 6] 1595                         cp      #0x30 ; '0'                     ; space station?
ASxxxx Assembler V05.00  (Zilog Z80 / Hitachi HD64180), page 30.
Hexidecimal [16-Bits]



   5B71 CA 88 5B      [ 9] 1596                         jp      Z, pod_animate_object           ; yes, go
   5B74 FE 2A         [ 6] 1597                         cp      #0x2A ; '*'                     ; star?
   5B76 CA 88 5B      [ 9] 1598                         jp      Z, pod_animate_object           ; yes, go
   5B79 FE 2B         [ 6] 1599                         cp      #0x2B ; '+'                     ; triton missile?
   5B7B CA 88 5B      [ 9] 1600                         jp      Z, pod_animate_object           ; yes, go
   5B7E FE 58         [ 6] 1601                         cp      #0x58 ; 'X'                     ; unknown?
   5B80 CA 88 5B      [ 9] 1602                         jp      Z, pod_animate_object           ; yes, go
   5B83 FE 2E         [ 6] 1603                         cp      #0x2E ; '.'                     ; empty?
   5B85 C2 8A 5B      [ 9] 1604                         jp      NZ, loc_5985                    ; no, skip
                           1605 
   5B88                    1606 pod_animate_object:                                             ; animate
   5B88 36 8F         [ 9] 1607                         ld      (hl), #0x8F ; 'è'
                           1608 
   5B8A                    1609 loc_5985:                                                       ; direction address delta table ptr
   5B8A E1            [ 9] 1610                         pop     hl
   5B8B 23            [ 4] 1611                         inc     hl
   5B8C 23            [ 4] 1612                         inc     hl                              ; next entry
   5B8D 05            [ 4] 1613                         dec     b                               ; done all directions?
   5B8E C2 4F 5B      [ 9] 1614                         jp      NZ, loc_594A                    ; no, loop
   5B91 C9            [ 9] 1615                         ret
                           1616 ; ---------------------------------------------------------------------------
                           1617 
   5B92                    1618 pod_hit_jovian:
   5B92 E5            [11] 1619                         push    hl
   5B93 21 C5 3C      [ 9] 1620                         ld      hl, # VIDEO+0xC5                ; current quadrant LR sensor
   5B96 7E            [ 6] 1621                         ld      a, (hl)                         ; get warships
   5B97 C6 99         [ 6] 1622                         add     a, #0x99 ; 'ô'
   5B99 27            [ 4] 1623                         daa                                     ; decrement
   5B9A 77            [ 7] 1624                         ld      (hl), a                         ; write to video
   5B9B C5            [11] 1625                         push    bc
   5B9C D5            [11] 1626                         push    de
   5B9D CD 23 61      [16] 1627                         call    dec_jovians
   5BA0 D1            [ 9] 1628                         pop     de
   5BA1 C1            [ 9] 1629                         pop     bc
   5BA2 E1            [ 9] 1630                         pop     hl
   5BA3 C3 88 5B      [ 9] 1631                         jp      pod_animate_object
                           1632 
                           1633 ; =============== S U B R O U T I N E =======================================
                           1634 
                           1635 
   5BA6                    1636 handle_low_power:
                           1637 
                           1638 ; FUNCTION CHUNK AT 5001 SIZE 000001B5 BYTES
                           1639 ; FUNCTION CHUNK AT 51BD SIZE 00000017 BYTES
                           1640 ; FUNCTION CHUNK AT 538E SIZE 00000032 BYTES
                           1641 
   5BA6 3A 9A 6B      [12] 1642                         ld      a, (pwr_lr_sensor)              ; get power to LR sensor
   5BA9 FE 05         [ 6] 1643                         cp      #5                              ; greater than 4%?
   5BAB F2 D9 5B      [ 9] 1644                         jp      P, check_sr_sensor              ; yes, skip
   5BAE 21 41 3C      [ 9] 1645                         ld      hl, # VIDEO+0x41                ; 1st row
   5BB1 11 C1 3C      [ 9] 1646                         ld      de, # VIDEO+0xC1                ; 2nd row
   5BB4 01 41 3D      [ 9] 1647                         ld      bc, # VIDEO+0x141               ; 3rd row
   5BB7 3E 0B         [ 6] 1648                         ld      a, #11                          ; 11 bytes/row to wipe
                           1649 
   5BB9                    1650 loc_59B4:
ASxxxx Assembler V05.00  (Zilog Z80 / Hitachi HD64180), page 31.
Hexidecimal [16-Bits]



   5BB9 F5            [11] 1651                         push    af
   5BBA 3E 20         [ 6] 1652                         ld      a, #0x20 ; ' '
   5BBC 02            [ 7] 1653                         ld      (bc), a                         ; space over 3rd row digit
   5BBD 77            [ 7] 1654                         ld      (hl), a                         ; space over 1st row digit
   5BBE 7B            [ 4] 1655                         ld      a, e
   5BBF FE C5         [ 6] 1656                         cp      #0xC5 ; '≈'                     ; 1st digit current quadrant?
   5BC1 CA D1 5B      [ 9] 1657                         jp      Z, loc_59CC                     ; yes, skip
   5BC4 FE C6         [ 6] 1658                         cp      #0xC6 ; '∆'                     ; 2nd digit current quadrant?
   5BC6 CA D1 5B      [ 9] 1659                         jp      Z, loc_59CC                     ; yes, skip
   5BC9 FE C7         [ 6] 1660                         cp      #0xC7 ; '«'                     ; 3rd digit current quadrant?
   5BCB CA D1 5B      [ 9] 1661                         jp      Z, loc_59CC                     ; yes, skip
   5BCE 3E 20         [ 6] 1662                         ld      a, #0x20 ; ' '
   5BD0 12            [ 7] 1663                         ld      (de), a                         ; space over 2nd row digit
                           1664 
   5BD1                    1665 loc_59CC:
   5BD1 13            [ 4] 1666                         inc     de
   5BD2 23            [ 4] 1667                         inc     hl
   5BD3 03            [ 4] 1668                         inc     bc
   5BD4 F1            [ 9] 1669                         pop     af
   5BD5 3D            [ 4] 1670                         dec     a                               ; done row?
   5BD6 C2 B9 5B      [ 9] 1671                         jp      NZ, loc_59B4                    ; no, loop
                           1672 
   5BD9                    1673 check_sr_sensor:
   5BD9 3A 9B 6B      [12] 1674                         ld      a, (pwr_sr_sensor)
   5BDC FE 03         [ 6] 1675                         cp      #3                              ; greater than 2%?
   5BDE F2 FE 5B      [ 9] 1676                         jp      P, check_jovian_threat          ; yes, skip
   5BE1 3E 01         [ 6] 1677                         ld      a, #1                           ; flag disabled
   5BE3 32 BE 71      [13] 1678                         ld      (disable_pod_update), a
   5BE6 21 57 3C      [ 9] 1679                         ld      hl, # VIDEO+0x57                ; SR sensor display
   5BE9 11 2C 00      [ 9] 1680                         ld      de, #0x2C ; ','                 ; offset to next sector row
   5BEC 06 0A         [ 6] 1681                         ld      b, #10                          ; 10 rows to overwrite
                           1682 
   5BEE                    1683 loc_59E9:                                                       ; 20 bytes to overwrite
   5BEE 0E 14         [ 6] 1684                         ld      c, #20
                           1685 
   5BF0                    1686 loc_59EB:                                                       ; space over sector
   5BF0 36 20         [ 9] 1687                         ld      (hl), #0x20 ; ' '
   5BF2 23            [ 4] 1688                         inc     hl                              ; next video address
   5BF3 0D            [ 4] 1689                         dec     c                               ; done row?
   5BF4 C2 F0 5B      [ 9] 1690                         jp      NZ, loc_59EB                    ; no, loop
   5BF7 36 20         [ 9] 1691                         ld      (hl), #0x20 ; ' '               ; space
   5BF9 19            [ 7] 1692                         add     hl, de                          ; next sector row
   5BFA 05            [ 4] 1693                         dec     b                               ; done all rows?
   5BFB C2 EE 5B      [ 9] 1694                         jp      NZ, loc_59E9                    ; no, loop
                           1695 
   5BFE                    1696 check_jovian_threat:
   5BFE 3A BC 71      [12] 1697                         ld      a, (jovian_time_frozen)
   5C01 A7            [ 4] 1698                         and     a                               ; frozen?
   5C02 FA 0E 5C      [ 9] 1699                         jp      M, condition_green              ; yes, skip
   5C05 3A C5 3C      [12] 1700                         ld      a, (VIDEO+0xC5)                 ; #jovian warships
   5C08 D6 30         [ 6] 1701                         sub     #0x30 ; '0'                     ; convert to binary
   5C0A A7            [ 4] 1702                         and     a                               ; zero?
   5C0B C2 22 5C      [ 9] 1703                         jp      NZ, condition_red               ; no, go
                           1704 
   5C0E                    1705 condition_green:
ASxxxx Assembler V05.00  (Zilog Z80 / Hitachi HD64180), page 32.
Hexidecimal [16-Bits]



   5C0E 3A BF 71      [12] 1706                         ld      a, (critical)
   5C11 A7            [ 4] 1707                         and     a                               ; exploding?
   5C12 F8            [10] 1708                         ret     M                               ; yes, return
   5C13 3A B4 71      [12] 1709                         ld      a, (always_zero)
   5C16 32 B5 71      [13] 1710                         ld      (delay_duty_cycle_i), a
   5C19 21 BB 3C      [ 9] 1711                         ld      hl, # VIDEO+0xBB                ; ptr to condition value
   5C1C 11 B1 63      [ 9] 1712                         ld      de, #aGreen                     ; "GREEN"
   5C1F C3 44 5F      [ 9] 1713                         jp      print_string
                           1714 ; ---------------------------------------------------------------------------
                           1715 
   5C22                    1716 condition_red:
   5C22 3A BF 71      [12] 1717                         ld      a, (critical)
   5C25 A7            [ 4] 1718                         and     a                               ; exploding?
   5C26 FA 37 5C      [ 9] 1719                         jp      M, loc_5A32                     ; yes, go
   5C29 3E 01         [ 6] 1720                         ld      a, #1
   5C2B 32 B5 71      [13] 1721                         ld      (delay_duty_cycle_i), a
   5C2E 21 BB 3C      [ 9] 1722                         ld      hl, # VIDEO+0xBB                ; ptr to condition value
   5C31 11 B7 63      [ 9] 1723                         ld      de, #aRed                       ; " RED "
   5C34 CD 44 5F      [16] 1724                         call    print_string
                           1725 
   5C37                    1726 loc_5A32:
   5C37 2A 2D 6A      [15] 1727                         ld      hl, (hephaestus_video_addr)
   5C3A 7E            [ 6] 1728                         ld      a, (hl)                         ; get Hephaestus graphic
   5C3B F6 80         [ 6] 1729                         or      #0x80 ; 'Ä'                     ; animate
   5C3D 77            [ 7] 1730                         ld      (hl), a                         ; write to video
   5C3E 3A AF 6B      [12] 1731                         ld      a, (game_delay_factor)
   5C41 0F            [ 3] 1732                         rrca                                    ; /2
   5C42 3C            [ 4] 1733                         inc     a                               ; /2+1
   5C43 47            [ 4] 1734                         ld      b, a
   5C44 CD 4D 5F      [16] 1735                         call    delay_B_and_update_all
   5C47 7E            [ 6] 1736                         ld      a, (hl)                         ; get Hephaestus graphic
   5C48 E6 7F         [ 6] 1737                         and     #0x7F ; ''                     ; animate
   5C4A 77            [ 7] 1738                         ld      (hl), a                         ; write to video
   5C4B 3A C5 3C      [12] 1739                         ld      a, (VIDEO+0xC5)                 ; #jovian warships
   5C4E D6 30         [ 6] 1740                         sub     #0x30 ; '0'                     ; convert to binary
   5C50 FE 04         [ 6] 1741                         cp      #4                              ; more than 3?
   5C52 F4 E3 5C      [16] 1742                         call    P, lose_power_crystal           ; yes, go
   5C55 3A 9C 6B      [12] 1743                         ld      a, (pwr_deflectors)
   5C58 FE 05         [ 6] 1744                         cp      #5                              ; less than 5%?
   5C5A FC 01 5D      [16] 1745                         call    M, print_shields_failing        ; yes, go
   5C5D 0E 00         [ 6] 1746                         ld      c, #0
   5C5F 21 9C 6B      [ 9] 1747                         ld      hl, #pwr_deflectors
   5C62 7E            [ 6] 1748                         ld      a, (hl)
   5C63 A7            [ 4] 1749                         and     a                               ; pwr zero?
   5C64 CA 6B 5C      [ 9] 1750                         jp      Z, jovian_attack_and_move       ; yes, skip
   5C67 C6 99         [ 6] 1751                         add     a, #0x99 ; 'ô'
   5C69 27            [ 4] 1752                         daa                                     ; decrement power
   5C6A 77            [ 7] 1753                         ld      (hl), a                         ; update pwr_deflectors
                           1754 
   5C6B                    1755 jovian_attack_and_move:
   5C6B 3A BD 6B      [12] 1756                         ld      a, (power_avail)
   5C6E C6 99         [ 6] 1757                         add     a, #0x99 ; 'ô'
   5C70 27            [ 4] 1758                         daa                                     ; decrement power
   5C71 32 BD 6B      [13] 1759                         ld      (power_avail), a
   5C74 CD BA 58      [16] 1760                         call    update_power_distribution
ASxxxx Assembler V05.00  (Zilog Z80 / Hitachi HD64180), page 33.
Hexidecimal [16-Bits]



   5C77 CD 62 61      [16] 1761                         call    print_power_avail
   5C7A 3A 5D 6A      [12] 1762                         ld      a, (jovians_left)
   5C7D A7            [ 4] 1763                         and     a                               ; any left?
   5C7E CA 8E 55      [ 9] 1764                         jp      Z, print_game_over_screen       ; no, go
   5C81 3A B0 6B      [12] 1765                         ld      a, (time_to_jovian_fire)
   5C84 3D            [ 4] 1766                         dec     a                               ; zero?
   5C85 32 B0 6B      [13] 1767                         ld      (time_to_jovian_fire), a
   5C88 C0            [10] 1768                         ret     NZ                              ; no, return
                           1769 
   5C89                    1770 loc_5A84:
   5C89 CD 05 5F      [16] 1771                         call    rand_0_9
   5C8C FE 01         [ 6] 1772                         cp      #1                              ; less than 1?
   5C8E FA 89 5C      [ 9] 1773                         jp      M, loc_5A84                     ; yes, regenerate
   5C91 FE 05         [ 6] 1774                         cp      #5                              ; greater than 4?
   5C93 F2 89 5C      [ 9] 1775                         jp      P, loc_5A84                     ; yes, regenerate
   5C96 32 B0 6B      [13] 1776                         ld      (time_to_jovian_fire), a        ; update with new random value
   5C99 16 04         [ 6] 1777                         ld      d, #4                           ; *** dead code
   5C9B 21 B3 6B      [ 9] 1778                         ld      hl, #jovian_tbl
                           1779 
   5C9E                    1780 get_jovian_address:
   5C9E 7E            [ 6] 1781                         ld      a, (hl)
   5C9F A7            [ 4] 1782                         and     a
   5CA0 C8            [10] 1783                         ret     Z
   5CA1 4E            [ 6] 1784                         ld      c, (hl)
   5CA2 23            [ 4] 1785                         inc     hl
   5CA3 46            [ 6] 1786                         ld      b, (hl)
   5CA4 E5            [11] 1787                         push    hl
                           1788 
   5CA5                    1789 move_jovian:
   5CA5 CD 05 5F      [16] 1790                         call    rand_0_9
   5CA8 FE 08         [ 6] 1791                         cp      #8                              ; greater than 7?
   5CAA F2 A5 5C      [ 9] 1792                         jp      P, move_jovian                  ; yes, regenerate
   5CAD 21 9F 6B      [ 9] 1793                         ld      hl, #dir_addr_delta_tbl
   5CB0 A7            [ 4] 1794                         and     a
                           1795 
   5CB1                    1796 loc_5AAC:
   5CB1 CA BA 5C      [ 9] 1797                         jp      Z, loc_5AB5
   5CB4 23            [ 4] 1798                         inc     hl
   5CB5 23            [ 4] 1799                         inc     hl
   5CB6 3D            [ 4] 1800                         dec     a                               ; found direction entry?
   5CB7 C3 B1 5C      [ 9] 1801                         jp      loc_5AAC                        ; no, loop
                           1802 ; ---------------------------------------------------------------------------
                           1803 
   5CBA                    1804 loc_5AB5:
   5CBA 5E            [ 6] 1805                         ld      e, (hl)
   5CBB 23            [ 4] 1806                         inc     hl
   5CBC 56            [ 6] 1807                         ld      d, (hl)                         ; DE=delta
   5CBD 60            [ 4] 1808                         ld      h, b
   5CBE 69            [ 4] 1809                         ld      l, c
   5CBF 19            [ 7] 1810                         add     hl, de                          ; add delta to jovian address
   5CC0 7E            [ 6] 1811                         ld      a, (hl)                         ; get sector contents
   5CC1 FE 2E         [ 6] 1812                         cp      #0x2E ; '.'                     ; empty?
   5CC3 C2 DF 5C      [ 9] 1813                         jp      NZ, next_jovian                 ; no, go
   5CC6 0A            [ 6] 1814                         ld      a, (bc)                         ; get jovian ship type
   5CC7 FE 26         [ 6] 1815                         cp      #0x26 ; '&'                     ; battle cruiser?
ASxxxx Assembler V05.00  (Zilog Z80 / Hitachi HD64180), page 34.
Hexidecimal [16-Bits]



   5CC9 CA D1 5C      [ 9] 1816                         jp      Z, loc_5ACC                     ; yes, skip
   5CCC FE 40         [ 6] 1817                         cp      #0x40 ; '@'                     ; command cruiser?
   5CCE C2 DF 5C      [ 9] 1818                         jp      NZ, next_jovian                 ; no, go
                           1819 
   5CD1                    1820 loc_5ACC:                                                       ; update sector with jovian vessel
   5CD1 77            [ 7] 1821                         ld      (hl), a
   5CD2 3E 2E         [ 6] 1822                         ld      a, #0x2E ; '.'                  ; empty sector
   5CD4 02            [ 7] 1823                         ld      (bc), a                         ; update original jovian vessel location
   5CD5 D1            [ 9] 1824                         pop     de                              ; jovain tbl ptr
   5CD6 1B            [ 4] 1825                         dec     de                              ; lsb
   5CD7 7D            [ 4] 1826                         ld      a, l
   5CD8 12            [ 7] 1827                         ld      (de), a                         ; update lsb of address
   5CD9 7C            [ 4] 1828                         ld      a, h
   5CDA 13            [ 4] 1829                         inc     de
   5CDB 12            [ 7] 1830                         ld      (de), a                         ; update msb of address
   5CDC EB            [ 3] 1831                         ex      de, hl
   5CDD 23            [ 4] 1832                         inc     hl                              ; adjust
   5CDE E5            [11] 1833                         push    hl
                           1834 
   5CDF                    1835 next_jovian:
   5CDF E1            [ 9] 1836                         pop     hl
   5CE0 C3 9E 5C      [ 9] 1837                         jp      get_jovian_address
                           1838 ; End of function handle_low_power
                           1839 
                           1840 
                           1841 ; =============== S U B R O U T I N E =======================================
                           1842 
                           1843 
   5CE3                    1844 lose_power_crystal:
   5CE3 11 7E 66      [ 9] 1845                         ld      de, #aEngineerThereG            ; "ENGINEER:THERE GOES A POWER CRYSTAL, CO"...
   5CE6 CD 3E 5F      [16] 1846                         call    print_string_last_line
                           1847 
   5CE9                    1848 dec_power_by_5:
   5CE9 3A BD 6B      [12] 1849                         ld      a, (power_avail)
   5CEC 06 05         [ 6] 1850                         ld      b, #5                           ; decrement by 5%
                           1851 
   5CEE                    1852 loc_5AE9:
   5CEE C6 99         [ 6] 1853                         add     a, #0x99 ; 'ô'
   5CF0 27            [ 4] 1854                         daa                                     ; dec power
   5CF1 CA 8E 55      [ 9] 1855                         jp      Z, print_game_over_screen       ; no power, game over
   5CF4 05            [ 4] 1856                         dec     b                               ; done decrementing?
   5CF5 C2 EE 5C      [ 9] 1857                         jp      NZ, loc_5AE9                    ; no, loop
   5CF8 32 BD 6B      [13] 1858                         ld      (power_avail), a                ; update
   5CFB CD 62 61      [16] 1859                         call    print_power_avail
   5CFE C3 BA 58      [ 9] 1860                         jp      update_power_distribution
                           1861 ; End of function lose_power_crystal
                           1862 
                           1863 
                           1864 ; =============== S U B R O U T I N E =======================================
                           1865 
                           1866 
   5D01                    1867 print_shields_failing:
   5D01 11 AD 66      [ 9] 1868                         ld      de, #aEngineerComm_3            ; "ENGINEER:COMMANDER, THE SHIELDS ARE FAL"...
   5D04 CD 3E 5F      [16] 1869                         call    print_string_last_line
   5D07 C3 E9 5C      [ 9] 1870                         jp      dec_power_by_5
ASxxxx Assembler V05.00  (Zilog Z80 / Hitachi HD64180), page 35.
Hexidecimal [16-Bits]



                           1871 ; End of function print_shields_failing
                           1872 
                           1873 ; ---------------------------------------------------------------------------
                           1874 
   5D0A                    1875 print_no_sense_and_ret:                                         ; "FIRST OFFICER:CAPTAIN, YOUR LAST COMMAN"...
   5D0A 11 EE 62      [ 9] 1876                         ld      de, #aFirstOfficerCa
   5D0D CD 3E 5F      [16] 1877                         call    print_string_last_line
   5D10 31 01 72      [ 9] 1878                         ld      sp, #STACK_WATERMARK            ; reset stack
   5D13 11 97 53      [ 9] 1879                         ld      de, #game_loop                  ; set return address
   5D16 D5            [11] 1880                         push    de
   5D17 E5            [11] 1881                         push    hl
   5D18 D5            [11] 1882                         push    de
   5D19 C5            [11] 1883                         push    bc
   5D1A C3 64 60      [ 9] 1884                         jp      clear_cmd_buffer
                           1885 ; move quadrant
                           1886 ; - A = direction (0-7), C = # quadrants
                           1887 
                           1888 ; =============== S U B R O U T I N E =======================================
                           1889 
                           1890 
   5D1D                    1891 move_quadrant:
   5D1D 21 5D 6A      [ 9] 1892                         ld      hl, #quadrant_delta_tbl-1
   5D20 3C            [ 4] 1893                         inc     a                               ; direction (1-8)???
   5D21 06 03         [ 6] 1894                         ld      b, #3                           ; 3 rows to print
   5D23 C5            [11] 1895                         push    bc
                           1896 
   5D24                    1897 loc_5B1F:                                                       ; ptr next entry
   5D24 23            [ 4] 1898                         inc     hl
   5D25 3D            [ 4] 1899                         dec     a                               ; found entry for direction?
   5D26 C2 24 5D      [ 9] 1900                         jp      NZ, loc_5B1F                    ; no, loop
   5D29 3A 66 6A      [12] 1901                         ld      a, (quadrant)                   ; current
                           1902 
   5D2C                    1903 loc_5B27:
   5D2C 86            [ 6] 1904                         add     a, (hl)
   5D2D 27            [ 4] 1905                         daa                                     ; calculate new quadrant
   5D2E 0D            [ 4] 1906                         dec     c                               ; done move?
   5D2F C2 2C 5D      [ 9] 1907                         jp      NZ, loc_5B27                    ; no, loop
   5D32 32 66 6A      [13] 1908                         ld      (quadrant), a
                           1909 ; print LR sensor
   5D35 C6 89         [ 6] 1910                         add     a, #0x89 ; 'â'                  ; NW quadrant
   5D37 27            [ 4] 1911                         daa
   5D38 11 41 3C      [ 9] 1912                         ld      de, # VIDEO+0x41                ; video address
                           1913 
   5D3B                    1914 loc_5B36:
   5D3B F5            [11] 1915                         push    af
   5D3C D5            [11] 1916                         push    de
   5D3D CD 9F 5D      [16] 1917                         call    get_ptr_quadrant_A_data
   5D40 D1            [ 9] 1918                         pop     de
   5D41 0E 03         [ 6] 1919                         ld      c, #3                           ; 3 values / row
                           1920 
   5D43                    1921 loc_5B3E:                                                       ; 3 digits / value
   5D43 06 03         [ 6] 1922                         ld      b, #3
                           1923 
   5D45                    1924 loc_5B40:
   5D45 7E            [ 6] 1925                         ld      a, (hl)
ASxxxx Assembler V05.00  (Zilog Z80 / Hitachi HD64180), page 36.
Hexidecimal [16-Bits]



   5D46 E6 0F         [ 6] 1926                         and     #0xF                            ; low nibble only
   5D48 C6 30         [ 6] 1927                         add     a, #0x30 ; '0'                  ; convert to ASCII digit
   5D4A 12            [ 7] 1928                         ld      (de), a                         ; write to video
   5D4B 13            [ 4] 1929                         inc     de                              ; next video address
   5D4C 23            [ 4] 1930                         inc     hl                              ; next data address
   5D4D 05            [ 4] 1931                         dec     b                               ; done all digits?
   5D4E C2 45 5D      [ 9] 1932                         jp      NZ, loc_5B40                    ; no, loop
   5D51 13            [ 4] 1933                         inc     de                              ; skip (space)
   5D52 0D            [ 4] 1934                         dec     c                               ; done a row?
   5D53 C2 43 5D      [ 9] 1935                         jp      NZ, loc_5B3E                    ; no, loop
   5D56 F1            [ 9] 1936                         pop     af                              ; left quadrant
   5D57 C6 10         [ 6] 1937                         add     a, #0x10                        ; down a quadrant
   5D59 27            [ 4] 1938                         daa
   5D5A C1            [ 9] 1939                         pop     bc
   5D5B 05            [ 4] 1940                         dec     b                               ; done all rows?
   5D5C CA 68 5D      [ 9] 1941                         jp      Z, loc_5B63                     ; yes, exit
   5D5F C5            [11] 1942                         push    bc
   5D60 21 74 00      [ 9] 1943                         ld      hl, #0x74 ; 't'                 ; offset for next row
   5D63 19            [ 7] 1944                         add     hl, de                          ; update video address
   5D64 EB            [ 3] 1945                         ex      de, hl
   5D65 C3 3B 5D      [ 9] 1946                         jp      loc_5B36                        ; loop
                           1947 ; ---------------------------------------------------------------------------
                           1948 ; why do we need to do current quadrant again???
                           1949 
   5D68                    1950 loc_5B63:
   5D68 3A 66 6A      [12] 1951                         ld      a, (quadrant)
   5D6B 0E 01         [ 6] 1952                         ld      c, #1                           ; *** dead code
   5D6D CD 9F 5D      [16] 1953                         call    get_ptr_quadrant_A_data
   5D70 06 03         [ 6] 1954                         ld      b, #3                           ; 3 bytes to print
   5D72 11 C5 3C      [ 9] 1955                         ld      de, # VIDEO+0xC5                ; current quadrant on LR display
                           1956 
   5D75                    1957 loc_5B70:                                                       ; byte from tbl
   5D75 7E            [ 6] 1958                         ld      a, (hl)
   5D76 E6 0F         [ 6] 1959                         and     #0xF                            ; low nibble only
   5D78 C6 30         [ 6] 1960                         add     a, #0x30 ; '0'                  ; convert to ASCII
   5D7A 12            [ 7] 1961                         ld      (de), a                         ; warships/space stations/stars
   5D7B 13            [ 4] 1962                         inc     de                              ; next byte in table
   5D7C 23            [ 4] 1963                         inc     hl                              ; next video address
   5D7D 05            [ 4] 1964                         dec     b                               ; done all bytes?
   5D7E C2 75 5D      [ 9] 1965                         jp      NZ, loc_5B70                    ; no, loop
   5D81 97            [ 4] 1966                         sub     a                               ; flag normal
   5D82 32 BC 71      [13] 1967                         ld      (jovian_time_frozen), a
   5D85 C9            [ 9] 1968                         ret
                           1969 ; End of function move_quadrant
                           1970 
                           1971 
                           1972 ; =============== S U B R O U T I N E =======================================
                           1973 
                           1974 
   5D86                    1975 print_quadrant:
   5D86 3A 66 6A      [12] 1976                         ld      a, (quadrant)
   5D89 21 FC 3C      [ 9] 1977                         ld      hl, # VIDEO+0xFC                ; video address
   5D8C 4F            [ 4] 1978                         ld      c, a
   5D8D E6 F0         [ 6] 1979                         and     #0xF0 ; ''                     ; high nibble only
   5D8F 0F            [ 3] 1980                         rrca
ASxxxx Assembler V05.00  (Zilog Z80 / Hitachi HD64180), page 37.
Hexidecimal [16-Bits]



   5D90 0F            [ 3] 1981                         rrca
   5D91 0F            [ 3] 1982                         rrca
   5D92 0F            [ 3] 1983                         rrca                                    ; high->low nibble
   5D93 C6 30         [ 6] 1984                         add     a, #0x30 ; '0'                  ; convert to ASCII digit
   5D95 77            [ 7] 1985                         ld      (hl), a                         ; write to video
   5D96 23            [ 4] 1986                         inc     hl
   5D97 23            [ 4] 1987                         inc     hl                              ; video address += 2
   5D98 79            [ 4] 1988                         ld      a, c
   5D99 E6 0F         [ 6] 1989                         and     #0xF                            ; low nibble only
   5D9B C6 30         [ 6] 1990                         add     a, #0x30 ; '0'                  ; convert to ASCII digit
   5D9D 77            [ 7] 1991                         ld      (hl), a                         ; write to video
   5D9E C9            [ 9] 1992                         ret
                           1993 ; End of function print_quadrant
                           1994 
                           1995 
                           1996 ; =============== S U B R O U T I N E =======================================
                           1997 
                           1998 
   5D9F                    1999 get_ptr_quadrant_A_data:
   5D9F 4F            [ 4] 2000                         ld      c, a
   5DA0 E6 F0         [ 6] 2001                         and     #0xF0 ; ''                     ; high nibble only
   5DA2 0F            [ 3] 2002                         rrca
   5DA3 0F            [ 3] 2003                         rrca
   5DA4 0F            [ 3] 2004                         rrca
   5DA5 0F            [ 3] 2005                         rrca                                    ; high->low nibble
                           2006 ; fast multiply HL=A(7:4)*30
   5DA6 21 00 00      [ 9] 2007                         ld      hl, #0
   5DA9 11 1E 00      [ 9] 2008                         ld      de, #30
   5DAC 06 08         [ 6] 2009                         ld      b, #8                           ; 8 bits
                           2010 
   5DAE                    2011 loc_5BA9:
   5DAE 29            [ 7] 2012                         add     hl, hl
   5DAF 17            [ 3] 2013                         rla
   5DB0 D2 B6 5D      [ 9] 2014                         jp      NC, loc_5BB1
   5DB3 19            [ 7] 2015                         add     hl, de
   5DB4 CE 00         [ 6] 2016                         adc     a, #0
                           2017 
   5DB6                    2018 loc_5BB1:                                                       ; done all bits?
   5DB6 05            [ 4] 2019                         dec     b
   5DB7 C2 AE 5D      [ 9] 2020                         jp      NZ, loc_5BA9                    ; no, loop
   5DBA EB            [ 3] 2021                         ex      de, hl                          ; DE=result
                           2022 ; add A(3:0)*3 to the result
   5DBB 79            [ 4] 2023                         ld      a, c
   5DBC E6 0F         [ 6] 2024                         and     #0xF                            ; low nibble only
   5DBE 6F            [ 4] 2025                         ld      l, a                            ; L=low nibble
   5DBF 06 03         [ 6] 2026                         ld      b, #3                           ; multiplier=3
                           2027 
   5DC1                    2028 loc_5BBC:
   5DC1 83            [ 4] 2029                         add     a, e
   5DC2 5F            [ 4] 2030                         ld      e, a
   5DC3 3E 00         [ 6] 2031                         ld      a, #0
   5DC5 8A            [ 4] 2032                         adc     a, d
   5DC6 57            [ 4] 2033                         ld      d, a
   5DC7 7D            [ 4] 2034                         ld      a, l
   5DC8 05            [ 4] 2035                         dec     b                               ; done multiplication?
ASxxxx Assembler V05.00  (Zilog Z80 / Hitachi HD64180), page 38.
Hexidecimal [16-Bits]



   5DC9 C2 C1 5D      [ 9] 2036                         jp      NZ, loc_5BBC                    ; no, loop
   5DCC 21 67 6A      [ 9] 2037                         ld      hl, #quadrant_tbl
   5DCF 19            [ 7] 2038                         add     hl, de                          ; get ptr to quadrant data
   5DD0 C9            [ 9] 2039                         ret
                           2040 ; End of function get_ptr_quadrant_A_data
                           2041 
                           2042 
                           2043 ; =============== S U B R O U T I N E =======================================
                           2044 
                           2045 
   5DD1                    2046 init_quadrant:
   5DD1 E5            [11] 2047                         push    hl                              ; ptr current quadrant on LR sensor
   5DD2 97            [ 4] 2048                         sub     a                               ; flag enabled
   5DD3 32 BE 71      [13] 2049                         ld      (disable_pod_update), a
                           2050 ; init quadrant with all '.'
   5DD6 11 2C 00      [ 9] 2051                         ld      de, #0x2C ; ','                 ; offset to next line of quadrant display
   5DD9 21 57 3C      [ 9] 2052                         ld      hl, # VIDEO+0x57                ; quadrant display video address
   5DDC 06 0A         [ 6] 2053                         ld      b, #10                          ; 10 rows
                           2054 
   5DDE                    2055 loc_5BD9:                                                       ; 10 columns
   5DDE 0E 0A         [ 6] 2056                         ld      c, #10
                           2057 
   5DE0                    2058 loc_5BDB:                                                       ; <SPACE>
   5DE0 36 20         [ 9] 2059                         ld      (hl), #0x20 ; ' '
   5DE2 23            [ 4] 2060                         inc     hl                              ; next video address
   5DE3 36 2E         [ 9] 2061                         ld      (hl), #0x2E ; '.'               ; '.'
   5DE5 23            [ 4] 2062                         inc     hl                              ; next video address
   5DE6 0D            [ 4] 2063                         dec     c                               ; done all columns?
   5DE7 C2 E0 5D      [ 9] 2064                         jp      NZ, loc_5BDB                    ; no, loop
   5DEA 36 20         [ 9] 2065                         ld      (hl), #0x20 ; ' '               ; <SPACE>
   5DEC 19            [ 7] 2066                         add     hl, de                          ; next line of quadrant display
   5DED 05            [ 4] 2067                         dec     b                               ; done all rows?
   5DEE C2 DE 5D      [ 9] 2068                         jp      NZ, loc_5BD9                    ; no, loop
                           2069 ; init warships
   5DF1 E1            [ 9] 2070                         pop     hl                              ; ptr current quadrant on LR sensor
   5DF2 7E            [ 6] 2071                         ld      a, (hl)                         ; get warships
   5DF3 23            [ 4] 2072                         inc     hl                              ; ptr space stations
   5DF4 E5            [11] 2073                         push    hl
   5DF5 D6 30         [ 6] 2074                         sub     #0x30 ; '0'                     ; convert to binary
   5DF7 CA 17 5E      [ 9] 2075                         jp      Z, loc_5C12                     ; no warships, skip
   5DFA 21 B3 6B      [ 9] 2076                         ld      hl, #jovian_tbl                 ; ptr table of warships
   5DFD 22 B1 6B      [16] 2077                         ld      (tmp_jovian_tbl_ptr), hl        ; save copy
   5E00 57            [ 4] 2078                         ld      d, a                            ; D=warships
                           2079 
   5E01                    2080 loc_5BFC:
   5E01 CD 05 5F      [16] 2081                         call    rand_0_9
   5E04 FE 01         [ 6] 2082                         cp      #1                              ; zero?
   5E06 F2 0E 5E      [ 9] 2083                         jp      P, loc_5C09                     ; no, skip
   5E09 1E 40         [ 6] 2084                         ld      e, #0x40 ; '@'                  ; Command Cruiser
   5E0B C3 10 5E      [ 9] 2085                         jp      loc_5C0B
                           2086 ; ---------------------------------------------------------------------------
                           2087 
   5E0E                    2088 loc_5C09:                                                       ; Battle Cruiser
   5E0E 1E 26         [ 6] 2089                         ld      e, #0x26 ; '&'
                           2090 
ASxxxx Assembler V05.00  (Zilog Z80 / Hitachi HD64180), page 39.
Hexidecimal [16-Bits]



   5E10                    2091 loc_5C0B:
   5E10 CD 74 5E      [16] 2092                         call    add_obj_to_quadrant
   5E13 15            [ 4] 2093                         dec     d                               ; done all warships in quadrant?
   5E14 C2 01 5E      [ 9] 2094                         jp      NZ, loc_5BFC                    ; no, loop
                           2095 ; init space stations
                           2096 
   5E17                    2097 loc_5C12:                                                       ; get current ptr
   5E17 2A B1 6B      [15] 2098                         ld      hl, (tmp_jovian_tbl_ptr)
   5E1A 36 00         [ 9] 2099                         ld      (hl), #0                        ; terminate
   5E1C E1            [ 9] 2100                         pop     hl                              ; ptr space stations
   5E1D 7E            [ 6] 2101                         ld      a, (hl)                         ; get space stations
   5E1E 23            [ 4] 2102                         inc     hl                              ; ptr stars
   5E1F E5            [11] 2103                         push    hl
   5E20 D6 30         [ 6] 2104                         sub     #0x30 ; '0'                     ; convert to binary
   5E22 CA 2F 5E      [ 9] 2105                         jp      Z, loc_5C2A                     ; none, skip
   5E25 57            [ 4] 2106                         ld      d, a                            ; number of space stations
   5E26 1E 30         [ 6] 2107                         ld      e, #0x30 ; '0'                  ; space station graphic
                           2108 
   5E28                    2109 loc_5C23:
   5E28 CD 74 5E      [16] 2110                         call    add_obj_to_quadrant
   5E2B 15            [ 4] 2111                         dec     d                               ; done all space stations?
   5E2C C2 28 5E      [ 9] 2112                         jp      NZ, loc_5C23                    ; no, loop
                           2113 ; init stars
                           2114 
   5E2F                    2115 loc_5C2A:                                                       ; ptr stars in quadrant
   5E2F E1            [ 9] 2116                         pop     hl
   5E30 7E            [ 6] 2117                         ld      a, (hl)                         ; get stars
   5E31 D6 30         [ 6] 2118                         sub     #0x30 ; '0'                     ; convert to binary
   5E33 CA 40 5E      [ 9] 2119                         jp      Z, loc_5C3B                     ; none, skip
   5E36 57            [ 4] 2120                         ld      d, a                            ; number of stars
   5E37 1E 2A         [ 6] 2121                         ld      e, #0x2A ; '*'                  ; star graphic
                           2122 
   5E39                    2123 loc_5C34:
   5E39 CD 74 5E      [16] 2124                         call    add_obj_to_quadrant
   5E3C 15            [ 4] 2125                         dec     d                               ; done all stars?
   5E3D C2 39 5E      [ 9] 2126                         jp      NZ, loc_5C34                    ; no, loop
                           2127 ; init USS Hephaestus
                           2128 
   5E40                    2129 loc_5C3B:                                                       ; USS Hephaestus graphic
   5E40 1E 5B         [ 6] 2130                         ld      e, #0x5B ; '['
   5E42 CD 74 5E      [16] 2131                         call    add_obj_to_quadrant
   5E45 22 2D 6A      [16] 2132                         ld      (hephaestus_video_addr), hl
                           2133 ; init mines
                           2134 
   5E48                    2135 loc_5C43:
   5E48 CD 05 5F      [16] 2136                         call    rand_0_9
   5E4B FE 03         [ 6] 2137                         cp      #3                              ; more than 2?
   5E4D F2 48 5E      [ 9] 2138                         jp      P, loc_5C43                     ; yes, regenerate
   5E50 A7            [ 4] 2139                         and     a                               ; zero?
   5E51 CA 5E 5E      [ 9] 2140                         jp      Z, loc_5C59                     ; yes, skip
   5E54 57            [ 4] 2141                         ld      d, a                            ; (1-2)
   5E55 1E 25         [ 6] 2142                         ld      e, #0x25 ; '%'                  ; mine graphic
                           2143 
   5E57                    2144 loc_5C52:
   5E57 CD 74 5E      [16] 2145                         call    add_obj_to_quadrant
ASxxxx Assembler V05.00  (Zilog Z80 / Hitachi HD64180), page 40.
Hexidecimal [16-Bits]



   5E5A 15            [ 4] 2146                         dec     d                               ; done all mines?
   5E5B C2 57 5E      [ 9] 2147                         jp      NZ, loc_5C52                    ; no, loop
                           2148 ; init unknowns
                           2149 
   5E5E                    2150 loc_5C59:
   5E5E CD 05 5F      [16] 2151                         call    rand_0_9
   5E61 FE 04         [ 6] 2152                         cp      #4                              ; more than 3?
   5E63 F2 5E 5E      [ 9] 2153                         jp      P, loc_5C59                     ; yes, regenerate
   5E66 A7            [ 4] 2154                         and     a                               ; zero?
   5E67 57            [ 4] 2155                         ld      d, a
                           2156 
   5E68                    2157 loc_5C63:                                                       ; yes, skip
   5E68 CA E8 60      [ 9] 2158                         jp      Z, print_sector
   5E6B 1E 58         [ 6] 2159                         ld      e, #0x58 ; 'X'                  ; Unknown graphic
   5E6D CD 74 5E      [16] 2160                         call    add_obj_to_quadrant
   5E70 15            [ 4] 2161                         dec     d                               ; done all unknowns?
   5E71 C3 68 5E      [ 9] 2162                         jp      loc_5C63                        ; no, loop
                           2163 ; End of function init_quadrant
                           2164 
                           2165 ; D=num of (this) object in quadrant, E=object (graphic)
                           2166 
                           2167 ; =============== S U B R O U T I N E =======================================
                           2168 
                           2169 
   5E74                    2170 add_obj_to_quadrant:
   5E74 CD 05 5F      [16] 2171                         call    rand_0_9                        ; rand Y coord
   5E77 21 58 3C      [ 9] 2172                         ld      hl, # VIDEO+0x58                ; first '.' in quadrant display
   5E7A 01 40 00      [ 9] 2173                         ld      bc, #0x40 ; '@'                 ; offset to next line
   5E7D A7            [ 4] 2174                         and     a                               ; zero?
   5E7E CA 86 5E      [ 9] 2175                         jp      Z, loc_5C81                     ; yes, skip
                           2176 
   5E81                    2177 loc_5C7C:                                                       ; next line
   5E81 09            [ 7] 2178                         add     hl, bc
   5E82 3D            [ 4] 2179                         dec     a                               ; at random line?
   5E83 C2 81 5E      [ 9] 2180                         jp      NZ, loc_5C7C                    ; no, loop
                           2181 
   5E86                    2182 loc_5C81:                                                       ; rand X coord
   5E86 CD 05 5F      [16] 2183                         call    rand_0_9
   5E89 07            [ 3] 2184                         rlca                                    ; x2 for display offset
   5E8A 4F            [ 4] 2185                         ld      c, a
   5E8B 06 00         [ 6] 2186                         ld      b, #0
   5E8D 09            [ 7] 2187                         add     hl, bc                          ; offset to X coord
   5E8E 7E            [ 6] 2188                         ld      a, (hl)                         ; get current contents
   5E8F FE 2E         [ 6] 2189                         cp      #0x2E ; '.'                     ; empty?
   5E91 C2 74 5E      [ 9] 2190                         jp      NZ, add_obj_to_quadrant         ; no, regenerate
   5E94 73            [ 7] 2191                         ld      (hl), e                         ; store object
   5E95 7B            [ 4] 2192                         ld      a, e
   5E96 FE 40         [ 6] 2193                         cp      #0x40 ; '@'                     ; Jovian Command Cruiser?
   5E98 CA 9E 5E      [ 9] 2194                         jp      Z, loc_5C99                     ; yes, skip
   5E9B FE 26         [ 6] 2195                         cp      #0x26 ; '&'                     ; Jovian Battle Cruiser?
   5E9D C0            [10] 2196                         ret     NZ                              ; no, return
                           2197 
   5E9E                    2198 loc_5C99:
   5E9E D5            [11] 2199                         push    de
   5E9F EB            [ 3] 2200                         ex      de, hl
ASxxxx Assembler V05.00  (Zilog Z80 / Hitachi HD64180), page 41.
Hexidecimal [16-Bits]



   5EA0 2A B1 6B      [15] 2201                         ld      hl, (tmp_jovian_tbl_ptr)
   5EA3 73            [ 7] 2202                         ld      (hl), e                         ; warship video address lsb
   5EA4 23            [ 4] 2203                         inc     hl
   5EA5 72            [ 7] 2204                         ld      (hl), d                         ; warship video address msb
   5EA6 23            [ 4] 2205                         inc     hl                              ; next entry
   5EA7 22 B1 6B      [16] 2206                         ld      (tmp_jovian_tbl_ptr), hl        ; update
   5EAA D1            [ 9] 2207                         pop     de
   5EAB C9            [ 9] 2208                         ret
                           2209 ; End of function add_obj_to_quadrant
                           2210 
                           2211 
                           2212 ; =============== S U B R O U T I N E =======================================
                           2213 
                           2214 
   5EAC                    2215 get_next_cmd_char:
   5EAC E5            [11] 2216                         push    hl
   5EAD 2A 05 6A      [15] 2217                         ld      hl, (cmd_entry_addr)
   5EB0 7E            [ 6] 2218                         ld      a, (hl)                         ; get next cmd char
   5EB1 FE 80         [ 6] 2219                         cp      #0x80 ; 'Ä'                     ; graphic space?
   5EB3 CA BC 5E      [ 9] 2220                         jp      Z, loc_5CB7                     ; yes, skip
   5EB6 23            [ 4] 2221                         inc     hl                              ; next cmd char
   5EB7 22 05 6A      [16] 2222                         ld      (cmd_entry_addr), hl            ; update
   5EBA E1            [ 9] 2223                         pop     hl
   5EBB C9            [ 9] 2224                         ret
                           2225 ; ---------------------------------------------------------------------------
                           2226 
   5EBC                    2227 loc_5CB7:                                                       ; zero char
   5EBC 97            [ 4] 2228                         sub     a
   5EBD E1            [ 9] 2229                         pop     hl
   5EBE C9            [ 9] 2230                         ret
                           2231 ; End of function get_next_cmd_char
                           2232 
                           2233 
                           2234 ; =============== S U B R O U T I N E =======================================
                           2235 
                           2236 
   5EBF                    2237 rnd_delay:
   5EBF CD 05 5F      [16] 2238                         call    rand_0_9
   5EC2 3C            [ 4] 2239                         inc     a                               ; 1-10
   5EC3 47            [ 4] 2240                         ld      b, a
                           2241 ; End of function rnd_delay
                           2242 
                           2243 ; some sort of random time delay loop
                           2244 ; - which calls update_chaser_pods_cmd_entry
                           2245 ; B=out loop counter
                           2246 ; E,C=inner loop counters (random?)
                           2247 
                           2248 ; =============== S U B R O U T I N E =======================================
                           2249 
                           2250 
   5EC4                    2251 delay_B_with_duty_cycle:
   5EC4 E5            [11] 2252                         push    hl
   5EC5 D5            [11] 2253                         push    de
                           2254 
   5EC6                    2255 loc_5CC1:
ASxxxx Assembler V05.00  (Zilog Z80 / Hitachi HD64180), page 42.
Hexidecimal [16-Bits]



   5EC6 21 FB 69      [ 9] 2256                         ld      hl, #delay_duty_cycle_tbl
   5EC9 3A B5 71      [12] 2257                         ld      a, (delay_duty_cycle_i)
   5ECC 07            [ 3] 2258                         rlca                                    ; x2
   5ECD 85            [ 4] 2259                         add     a, l
   5ECE 6F            [ 4] 2260                         ld      l, a                            ; get ptr entry
   5ECF 3E 01         [ 6] 2261                         ld      a, #1
                           2262 
   5ED1                    2263 loc_5CCC:
   5ED1 32 F7 69      [13] 2264                         ld      (delay_cycle), a
   5ED4 16 10         [ 6] 2265                         ld      d, #16
                           2266 
   5ED6                    2267 loc_5CD1:                                                       ; e=0-duty (not initialised)
   5ED6 1D            [ 4] 2268                         dec     e
   5ED7 C2 DB 5E      [ 9] 2269                         jp      NZ, loc_5CD6
   5EDA 5E            [ 6] 2270                         ld      e, (hl)                         ; reload duty
                           2271 
   5EDB                    2272 loc_5CD6:                                                       ; c=0-255 (not initialised)
   5EDB 0D            [ 4] 2273                         dec     c
   5EDC C2 D6 5E      [ 9] 2274                         jp      NZ, loc_5CD1
   5EDF 15            [ 4] 2275                         dec     d
   5EE0 C2 D6 5E      [ 9] 2276                         jp      NZ, loc_5CD1
   5EE3 23            [ 4] 2277                         inc     hl                              ; next cycle entry
   5EE4 CD 50 5F      [16] 2278                         call    update_chaser_pods_cmd_entry
   5EE7 05            [ 4] 2279                         dec     b                               ; done all iterations?
   5EE8 CA F6 5E      [ 9] 2280                         jp      Z, delay_exit                   ; yes, exit
   5EEB 3A F7 69      [12] 2281                         ld      a, (delay_cycle)
   5EEE EE 01         [ 6] 2282                         xor     #1                              ; toggle
   5EF0 CA D1 5E      [ 9] 2283                         jp      Z, loc_5CCC
   5EF3 C3 C6 5E      [ 9] 2284                         jp      loc_5CC1
                           2285 ; ---------------------------------------------------------------------------
                           2286 
   5EF6                    2287 delay_exit:
   5EF6 D1            [ 9] 2288                         pop     de
   5EF7 E1            [ 9] 2289                         pop     hl
   5EF8 C9            [ 9] 2290                         ret
                           2291 ; End of function delay_B_with_duty_cycle
                           2292 
                           2293 
                           2294 ; =============== S U B R O U T I N E =======================================
                           2295 
                           2296 
   5EF9                    2297 clear_video_with_B:
   5EF9 21 00 3C      [ 9] 2298                         ld      hl, #VIDEO
                           2299 
   5EFC                    2300 loc_5CF7:                                                       ; set char
   5EFC 70            [ 7] 2301                         ld      (hl), b
   5EFD 23            [ 4] 2302                         inc     hl                              ; next video location
   5EFE 7C            [ 4] 2303                         ld      a, h
   5EFF FE 40         [ 6] 2304                         cp      #0x40 ; '@'                     ; end of video?
   5F01 C2 FC 5E      [ 9] 2305                         jp      NZ, loc_5CF7                    ; no, loop
   5F04 C9            [ 9] 2306                         ret
                           2307 ; End of function clear_video_with_B
                           2308 
                           2309 
                           2310 ; =============== S U B R O U T I N E =======================================
ASxxxx Assembler V05.00  (Zilog Z80 / Hitachi HD64180), page 43.
Hexidecimal [16-Bits]



                           2311 
                           2312 
   5F05                    2313 rand_0_9:
   5F05 C5            [11] 2314                         push    bc
   5F06 E5            [11] 2315                         push    hl
   5F07 2A 01 72      [15] 2316                         ld      hl, (STACK_WATERMARK)
                           2317 
   5F0A                    2318 loc_5D05:
   5F0A 06 17         [ 6] 2319                         ld      b, #23
   5F0C 7D            [ 4] 2320                         ld      a, l
                           2321 
   5F0D                    2322 loc_5D08:
   5F0D E6 06         [ 6] 2323                         and     #6
   5F0F 37            [ 3] 2324                         scf
   5F10 EA 14 5F      [ 9] 2325                         jp      PE, loc_5D0F
   5F13 3F            [ 3] 2326                         ccf
                           2327 
   5F14                    2328 loc_5D0F:
   5F14 7C            [ 4] 2329                         ld      a, h
   5F15 1F            [ 3] 2330                         rra
   5F16 67            [ 4] 2331                         ld      h, a
   5F17 7D            [ 4] 2332                         ld      a, l
   5F18 1F            [ 3] 2333                         rra
   5F19 E6 FE         [ 6] 2334                         and     #0xFE ; '˛'
   5F1B 6F            [ 4] 2335                         ld      l, a
   5F1C 05            [ 4] 2336                         dec     b
   5F1D C2 0D 5F      [ 9] 2337                         jp      NZ, loc_5D08
   5F20 22 01 72      [16] 2338                         ld      (STACK_WATERMARK), hl
   5F23 7C            [ 4] 2339                         ld      a, h
   5F24 E6 0F         [ 6] 2340                         and     #0xF                            ; low nibble only
   5F26 FE 0A         [ 6] 2341                         cp      #0xA                            ; greater than 9?
   5F28 D2 0A 5F      [ 9] 2342                         jp      NC, loc_5D05                    ; yes, regenerate
   5F2B E1            [ 9] 2343                         pop     hl
   5F2C C1            [ 9] 2344                         pop     bc
   5F2D C9            [ 9] 2345                         ret
                           2346 ; End of function rand_0_9
                           2347 
                           2348 
                           2349 ; =============== S U B R O U T I N E =======================================
                           2350 
                           2351 
   5F2E                    2352 print_experimental_ray_outcome:
   5F2E D5            [11] 2353                         push    de
   5F2F 11 4B 67      [ 9] 2354                         ld      de, #aFirstOfficerTh            ; "FIRST OFFICER: THE EXPERIMENTAL RAY"
   5F32 21 80 3F      [ 9] 2355                         ld      hl, # VIDEO+0x380
   5F35 CD 41 5F      [16] 2356                         call    clear_last_2_lines_print_string
   5F38 D1            [ 9] 2357                         pop     de
   5F39 23            [ 4] 2358                         inc     hl
   5F3A CD 44 5F      [16] 2359                         call    print_string
   5F3D C9            [ 9] 2360                         ret
                           2361 ; End of function print_experimental_ray_outcome
                           2362 
                           2363 
                           2364 ; =============== S U B R O U T I N E =======================================
                           2365 
ASxxxx Assembler V05.00  (Zilog Z80 / Hitachi HD64180), page 44.
Hexidecimal [16-Bits]



                           2366 
   5F3E                    2367 print_string_last_line:
   5F3E 21 C0 3F      [ 9] 2368                         ld      hl, # VIDEO+0x3C0               ; last line
                           2369 ; End of function print_string_last_line
                           2370 
                           2371 
                           2372 ; =============== S U B R O U T I N E =======================================
                           2373 
                           2374 
   5F41                    2375 clear_last_2_lines_print_string:
   5F41 CD C5 60      [16] 2376                         call    clear_last_2_lines
                           2377 ; End of function clear_last_2_lines_print_string
                           2378 
                           2379 ; HL=video address, DE=string (null-terminated)
                           2380 
                           2381 ; =============== S U B R O U T I N E =======================================
                           2382 
                           2383 
   5F44                    2384 print_string:
   5F44 1A            [ 6] 2385                         ld      a, (de)                         ; get character
   5F45 B7            [ 4] 2386                         or      a                               ; end of string?
   5F46 C8            [10] 2387                         ret     Z                               ; yes, return
   5F47 77            [ 7] 2388                         ld      (hl), a                         ; write to video
   5F48 13            [ 4] 2389                         inc     de                              ; next string char
   5F49 23            [ 4] 2390                         inc     hl                              ; next video address
   5F4A C3 44 5F      [ 9] 2391                         jp      print_string                    ; loop
                           2392 ; End of function print_string
                           2393 
                           2394 
                           2395 ; =============== S U B R O U T I N E =======================================
                           2396 
                           2397 
   5F4D                    2398 delay_B_and_update_all:
   5F4D CD C4 5E      [16] 2399                         call    delay_B_with_duty_cycle
                           2400 ; End of function delay_B_and_update_all
                           2401 
                           2402 
                           2403 ; =============== S U B R O U T I N E =======================================
                           2404 
                           2405 
   5F50                    2406 update_chaser_pods_cmd_entry:
                           2407 
                           2408 ; FUNCTION CHUNK AT 5580 SIZE 00000005 BYTES
                           2409 
   5F50 E5            [11] 2410                         push    hl
   5F51 D5            [11] 2411                         push    de
   5F52 C5            [11] 2412                         push    bc
                           2413 ; update chaser
   5F53 2A F4 69      [15] 2414                         ld      hl, (chaser_addr)
   5F56 7E            [ 6] 2415                         ld      a, (hl)
   5F57 CD 05 5F      [16] 2416                         call    rand_0_9
   5F5A C6 80         [ 6] 2417                         add     a, #0x80 ; 'Ä'
   5F5C 36 20         [ 9] 2418                         ld      (hl), #0x20 ; ' '               ; wipe chaser
   5F5E 23            [ 4] 2419                         inc     hl
   5F5F 23            [ 4] 2420                         inc     hl                              ; next chaser_addr
ASxxxx Assembler V05.00  (Zilog Z80 / Hitachi HD64180), page 45.
Hexidecimal [16-Bits]



   5F60 7D            [ 4] 2421                         ld      a, l
   5F61 FE 2B         [ 6] 2422                         cp      #0x2B ; '+'                     ; end? (right)
   5F63 FA 68 5F      [ 9] 2423                         jp      M, loc_5D63                     ; no, skip
   5F66 2E 19         [ 6] 2424                         ld      l, #0x19                        ; reset to start (left)
                           2425 
   5F68                    2426 loc_5D63:                                                       ; read char (why?)
   5F68 7E            [ 6] 2427                         ld      a, (hl)
   5F69 3E 8F         [ 6] 2428                         ld      a, #0x8F ; 'è'                  ; chaser graphic
   5F6B 77            [ 7] 2429                         ld      (hl), a                         ; write to video
   5F6C 22 F4 69      [16] 2430                         ld      (chaser_addr), hl               ; save new chaser address
   5F6F 3A BF 71      [12] 2431                         ld      a, (critical)
   5F72 A7            [ 4] 2432                         and     a                               ; condition critical?
   5F73 CA 84 5F      [ 9] 2433                         jp      Z, loc_5D7F                     ; no, skip
                           2434 ; toggles "CONDITION" value w/graphics
   5F76 06 05         [ 6] 2435                         ld      b, #5                           ; 5 chars to toggle
   5F78 21 BB 3C      [ 9] 2436                         ld      hl, # VIDEO+0xBB                ; ptr to condition value
                           2437 
   5F7B                    2438 loc_5D76:                                                       ; get char
   5F7B 7E            [ 6] 2439                         ld      a, (hl)
   5F7C C6 80         [ 6] 2440                         add     a, #0x80 ; 'Ä'                  ; toggle graphics
   5F7E 77            [ 7] 2441                         ld      (hl), a                         ; write back to video
   5F7F 23            [ 4] 2442                         inc     hl                              ; next address
   5F80 05            [ 4] 2443                         dec     b                               ; done?
   5F81 C2 7B 5F      [ 9] 2444                         jp      NZ, loc_5D76                    ; no, loop
                           2445 
   5F84                    2446 loc_5D7F:
   5F84 3A BE 71      [12] 2447                         ld      a, (disable_pod_update)
   5F87 A7            [ 4] 2448                         and     a                               ; disabled?
   5F88 C2 05 60      [ 9] 2449                         jp      NZ, handle_cmd_entry            ; yes, skip
   5F8B 11 06 00      [ 9] 2450                         ld      de, #6                          ; 6 bytes per pod entry
   5F8E 21 A1 71      [ 9] 2451                         ld      hl, #antimatter_pod_tbl
                           2452 
   5F91                    2453 loc_5D8C:                                                       ; pod status
   5F91 7E            [ 6] 2454                         ld      a, (hl)
   5F92 FE FF         [ 6] 2455                         cp      #0xFF                           ; end of table?
   5F94 CA 05 60      [ 9] 2456                         jp      Z, handle_cmd_entry             ; yes, exit
   5F97 A7            [ 4] 2457                         and     a                               ; unused?
   5F98 C2 9F 5F      [ 9] 2458                         jp      NZ, get_pod_data                ; no, exit
                           2459 
   5F9B                    2460 next_pod:                                                       ; next pod entry
   5F9B 19            [ 7] 2461                         add     hl, de
   5F9C C3 91 5F      [ 9] 2462                         jp      loc_5D8C                        ; loop
                           2463 ; ---------------------------------------------------------------------------
                           2464 
   5F9F                    2465 get_pod_data:                                                   ; pod launched?
   5F9F FE 01         [ 6] 2466                         cp      #1
   5FA1 C2 9B 5F      [ 9] 2467                         jp      NZ, next_pod                    ; no, return
   5FA4 E5            [11] 2468                         push    hl                              ; pod table entry
   5FA5 23            [ 4] 2469                         inc     hl
   5FA6 4E            [ 6] 2470                         ld      c, (hl)
   5FA7 23            [ 4] 2471                         inc     hl
   5FA8 46            [ 6] 2472                         ld      b, (hl)                         ; BC = video address delta
   5FA9 23            [ 4] 2473                         inc     hl
   5FAA 5E            [ 6] 2474                         ld      e, (hl)
   5FAB 23            [ 4] 2475                         inc     hl
ASxxxx Assembler V05.00  (Zilog Z80 / Hitachi HD64180), page 46.
Hexidecimal [16-Bits]



   5FAC 56            [ 6] 2476                         ld      d, (hl)                         ; DE = video address
   5FAD 23            [ 4] 2477                         inc     hl
   5FAE 7E            [ 6] 2478                         ld      a, (hl)                         ; speed countdown
   5FAF A7            [ 4] 2479                         and     a                               ; zero?
   5FB0 CA BC 5F      [ 9] 2480                         jp      Z, move_pod                     ; yes, go
   5FB3 3D            [ 4] 2481                         dec     a                               ; decrement speed countdown
   5FB4 77            [ 7] 2482                         ld      (hl), a                         ; update
   5FB5 E1            [ 9] 2483                         pop     hl
                           2484 
   5FB6                    2485 offset_for_next_pod:                                            ; offset to next pod entry
   5FB6 11 06 00      [ 9] 2486                         ld      de, #6
   5FB9 C3 9B 5F      [ 9] 2487                         jp      next_pod
                           2488 ; ---------------------------------------------------------------------------
                           2489 
   5FBC                    2490 move_pod:                                                       ; reinit speed countdown
   5FBC 3A 45 6A      [12] 2491                         ld      a, (pod_speed)
   5FBF 77            [ 7] 2492                         ld      (hl), a                         ; update pod speed
   5FC0 62            [ 4] 2493                         ld      h, d
   5FC1 6B            [ 4] 2494                         ld      l, e                            ; HL = video address
   5FC2 36 2E         [ 9] 2495                         ld      (hl), #0x2E ; '.'               ; write empty sector to video
   5FC4 09            [ 7] 2496                         add     hl, bc                          ; add delta to address
   5FC5 7E            [ 6] 2497                         ld      a, (hl)                         ; get sector contents
   5FC6 FE 2E         [ 6] 2498                         cp      #0x2E ; '.'                     ; empty?
   5FC8 C2 DA 5F      [ 9] 2499                         jp      NZ, change_pod_dir              ; no, go
   5FCB 36 23         [ 9] 2500                         ld      (hl), #0x23 ; '#'               ; write pod graphic to video
   5FCD D1            [ 9] 2501                         pop     de                              ; pod table entry
   5FCE D5            [11] 2502                         push    de
   5FCF 13            [ 4] 2503                         inc     de
   5FD0 13            [ 4] 2504                         inc     de
   5FD1 EB            [ 3] 2505                         ex      de, hl                          ; HL = pod table entry+2
                           2506 
   5FD2                    2507 update_pod_address:                                             ; next entry address
   5FD2 23            [ 4] 2508                         inc     hl
   5FD3 73            [ 7] 2509                         ld      (hl), e                         ; video address lsb
   5FD4 23            [ 4] 2510                         inc     hl
   5FD5 72            [ 7] 2511                         ld      (hl), d                         ; video address msb
   5FD6 E1            [ 9] 2512                         pop     hl
   5FD7 C3 B6 5F      [ 9] 2513                         jp      offset_for_next_pod
                           2514 ; ---------------------------------------------------------------------------
                           2515 
   5FDA                    2516 change_pod_dir:                                                 ; direction
   5FDA CD 05 5F      [16] 2517                         call    rand_0_9
   5FDD FE 08         [ 6] 2518                         cp      #8                              ; greater than 7?
   5FDF F2 DA 5F      [ 9] 2519                         jp      P, change_pod_dir               ; regenerate
   5FE2 21 9F 6B      [ 9] 2520                         ld      hl, #dir_addr_delta_tbl
   5FE5 07            [ 3] 2521                         rlca                                    ; x2
   5FE6 85            [ 4] 2522                         add     a, l
   5FE7 6F            [ 4] 2523                         ld      l, a
   5FE8 7C            [ 4] 2524                         ld      a, h
   5FE9 CE 00         [ 6] 2525                         adc     a, #0
   5FEB 67            [ 4] 2526                         ld      h, a                            ; ptr direction delta address entry
   5FEC 7E            [ 6] 2527                         ld      a, (hl)
   5FED 23            [ 4] 2528                         inc     hl
   5FEE 66            [ 6] 2529                         ld      h, (hl)
   5FEF 6F            [ 4] 2530                         ld      l, a                            ; HL = delta
ASxxxx Assembler V05.00  (Zilog Z80 / Hitachi HD64180), page 47.
Hexidecimal [16-Bits]



   5FF0 44            [ 4] 2531                         ld      b, h
   5FF1 4D            [ 4] 2532                         ld      c, l                            ; BC = delta
   5FF2 19            [ 7] 2533                         add     hl, de                          ; add delta to video address
   5FF3 7E            [ 6] 2534                         ld      a, (hl)                         ; get sector contents
   5FF4 FE 2E         [ 6] 2535                         cp      #0x2E ; '.'                     ; empty?
   5FF6 C2 DA 5F      [ 9] 2536                         jp      NZ, change_pod_dir              ; no, regenerate
   5FF9 36 23         [ 9] 2537                         ld      (hl), #0x23 ; '#'               ; write pod graphic to video
   5FFB D1            [ 9] 2538                         pop     de                              ; pod table entry
   5FFC D5            [11] 2539                         push    de
   5FFD 13            [ 4] 2540                         inc     de
   5FFE EB            [ 3] 2541                         ex      de, hl
   5FFF 71            [ 7] 2542                         ld      (hl), c                         ; new delta lsb
   6000 23            [ 4] 2543                         inc     hl
   6001 70            [ 7] 2544                         ld      (hl), b                         ; new delta msb
   6002 C3 D2 5F      [ 9] 2545                         jp      update_pod_address
                           2546 ; ---------------------------------------------------------------------------
                           2547 
   6005                    2548 handle_cmd_entry:
   6005 3A B7 71      [12] 2549                         ld      a, (cmd_flag)
   6008 A7            [ 4] 2550                         and     a                               ; new command already?
   6009 CA 7D 60      [ 9] 2551                         jp      Z, loc_5E78                     ; yes, exit
   600C CD B6 53      [16] 2552                         call    keyboard_scan
   600F CA 7D 60      [ 9] 2553                         jp      Z, loc_5E78                     ; no key, exit
   6012 FE 09         [ 6] 2554                         cp      #9                              ; <TAB>? (cancel command)
   6014 CA 64 60      [ 9] 2555                         jp      Z, clear_cmd_buffer             ; yes, go
   6017 2A 05 6A      [15] 2556                         ld      hl, (cmd_entry_addr)
   601A 77            [ 7] 2557                         ld      (hl), a                         ; display key
   601B 23            [ 4] 2558                         inc     hl                              ; next address
   601C 22 05 6A      [16] 2559                         ld      (cmd_entry_addr), hl            ; save
   601F FE 0D         [ 6] 2560                         cp      #0xD                            ; <ENTER>?
   6021 CA 33 60      [ 9] 2561                         jp      Z, cmd_entered                  ; yes, go
   6024 3A B8 71      [12] 2562                         ld      a, (cmd_len)
   6027 3C            [ 4] 2563                         inc     a
   6028 FE 07         [ 6] 2564                         cp      #7                              ; buffer full?
   602A F2 64 60      [ 9] 2565                         jp      P, clear_cmd_buffer             ; yes, skip
   602D 32 B8 71      [13] 2566                         ld      (cmd_len), a                    ; save new length
   6030 C3 7D 60      [ 9] 2567                         jp      loc_5E78                        ; exit
                           2568 ; ---------------------------------------------------------------------------
                           2569 
   6033                    2570 cmd_entered:                                                    ; zero
   6033 97            [ 4] 2571                         sub     a
   6034 32 B7 71      [13] 2572                         ld      (cmd_flag), a                   ; flag new command
   6037 2B            [ 4] 2573                         dec     hl                              ; back to <ENTER>
   6038 36 80         [ 9] 2574                         ld      (hl), #0x80 ; 'Ä'               ; overwrite with graphical space
   603A 21 37 3F      [ 9] 2575                         ld      hl, # VIDEO+0x337               ; cmd entry
   603D 46            [ 6] 2576                         ld      b, (hl)                         ; get 1st char
   603E 3A BB 71      [12] 2577                         ld      a, (computer_malfunction)
   6041 A7            [ 4] 2578                         and     a
   6042 CA 4B 60      [ 9] 2579                         jp      Z, loc_5E46
   6045 78            [ 4] 2580                         ld      a, b                            ; 1st char of command
   6046 FE 49         [ 6] 2581                         cp      #0x49 ; 'I'                     ; ???
   6048 C2 64 60      [ 9] 2582                         jp      NZ, clear_cmd_buffer            ; no, skip
                           2583 
   604B                    2584 loc_5E46:
   604B 23            [ 4] 2585                         inc     hl
ASxxxx Assembler V05.00  (Zilog Z80 / Hitachi HD64180), page 48.
Hexidecimal [16-Bits]



   604C 22 05 6A      [16] 2586                         ld      (cmd_entry_addr), hl
   604F 21 1B 6A      [ 9] 2587                         ld      hl, #cmd_tbl                    ; "HIMTDSEXAL"
   6052 11 07 6A      [ 9] 2588                         ld      de, #cmd_jmp_vectors
                           2589 
   6055                    2590 lookup_cmd:                                                     ; get cmd entry
   6055 7E            [ 6] 2591                         ld      a, (hl)
   6056 A7            [ 4] 2592                         and     a                               ; end of table?
   6057 CA 64 60      [ 9] 2593                         jp      Z, clear_cmd_buffer             ; yes, exit
   605A B8            [ 4] 2594                         cp      b                               ; found cmd?
   605B CA 81 60      [ 9] 2595                         jp      Z, found_cmd                    ; yes, go
   605E 23            [ 4] 2596                         inc     hl                              ; next table entry
   605F 13            [ 4] 2597                         inc     de
   6060 13            [ 4] 2598                         inc     de                              ; next vector entry
   6061 C3 55 60      [ 9] 2599                         jp      lookup_cmd                      ; loop
                           2600 ; ---------------------------------------------------------------------------
                           2601 
   6064                    2602 clear_cmd_buffer:
   6064 21 37 3F      [ 9] 2603                         ld      hl, # VIDEO+0x337
   6067 22 05 6A      [16] 2604                         ld      (cmd_entry_addr), hl            ; reset cmd entry
   606A 3E FF         [ 6] 2605                         ld      a, #0xFF
   606C 32 B7 71      [13] 2606                         ld      (cmd_flag), a                   ; flag no command
                           2607 
   606F                    2608 loc_5E6A:
   606F 3E 20         [ 6] 2609                         ld      a, #0x20 ; ' '
   6071 77            [ 7] 2610                         ld      (hl), a                         ; write space
   6072 23            [ 4] 2611                         inc     hl                              ; next video address
   6073 7E            [ 6] 2612                         ld      a, (hl)                         ; get char
   6074 FE 20         [ 6] 2613                         cp      #0x20 ; ' '                     ; space?
   6076 C2 6F 60      [ 9] 2614                         jp      NZ, loc_5E6A                    ; no, loop
   6079 97            [ 4] 2615                         sub     a                               ; zero cmd_len
   607A 32 B8 71      [13] 2616                         ld      (cmd_len), a
                           2617 
   607D                    2618 loc_5E78:
   607D C1            [ 9] 2619                         pop     bc
   607E D1            [ 9] 2620                         pop     de
   607F E1            [ 9] 2621                         pop     hl
   6080 C9            [ 9] 2622                         ret
                           2623 ; ---------------------------------------------------------------------------
                           2624 
   6081                    2625 found_cmd:                                                      ; HL = jump vector
   6081 EB            [ 3] 2626                         ex      de, hl
   6082 11 64 60      [ 9] 2627                         ld      de, #clear_cmd_buffer
   6085 D5            [11] 2628                         push    de                              ; set return address
   6086 C3 80 57      [ 9] 2629                         jp      jump_HL_vector
                           2630 ; End of function update_chaser_pods_cmd_entry
                           2631 
                           2632 
                           2633 ; =============== S U B R O U T I N E =======================================
                           2634 
                           2635 
   6089                    2636 animate_destruction:
   6089 3E 01         [ 6] 2637                         ld      a, #1                           ; flag disabled
   608B 32 BE 71      [13] 2638                         ld      (disable_pod_update), a
   608E 3E 01         [ 6] 2639                         ld      a, #1                           ; flag critical (self-destruct)
   6090 32 BF 71      [13] 2640                         ld      (critical), a
ASxxxx Assembler V05.00  (Zilog Z80 / Hitachi HD64180), page 49.
Hexidecimal [16-Bits]



   6093 3E 03         [ 6] 2641                         ld      a, #3
   6095 32 B5 71      [13] 2642                         ld      (delay_duty_cycle_i), a
   6098 21 BB 3C      [ 9] 2643                         ld      hl, # VIDEO+0xBB                ; condition value video address
   609B 11 BD 63      [ 9] 2644                         ld      de, #aCrtcl                     ; "CRTCL"
   609E CD 44 5F      [16] 2645                         call    print_string
   60A1 06 32         [ 6] 2646                         ld      b, #50
   60A3 CD C4 5E      [16] 2647                         call    delay_B_with_duty_cycle
   60A6 0E 1E         [ 6] 2648                         ld      c, #30                          ; loop 30 times
                           2649 
   60A8                    2650 loc_5EA3:
   60A8 06 2B         [ 6] 2651                         ld      b, #0x2B ; '+'
   60AA CD F9 5E      [16] 2652                         call    clear_video_with_B
   60AD 06 23         [ 6] 2653                         ld      b, #0x23 ; '#'
   60AF CD F9 5E      [16] 2654                         call    clear_video_with_B
   60B2 06 2A         [ 6] 2655                         ld      b, #0x2A ; '*'
   60B4 CD F9 5E      [16] 2656                         call    clear_video_with_B
   60B7 06 BF         [ 6] 2657                         ld      b, #0xBF ; 'ø'
   60B9 CD F9 5E      [16] 2658                         call    clear_video_with_B
   60BC 0D            [ 4] 2659                         dec     c                               ; done?
   60BD C2 A8 60      [ 9] 2660                         jp      NZ, loc_5EA3                    ; no, loop
   60C0 97            [ 4] 2661                         sub     a                               ; flag enabled
   60C1 32 BE 71      [13] 2662                         ld      (disable_pod_update), a
   60C4 C9            [ 9] 2663                         ret
                           2664 ; End of function animate_destruction
                           2665 
                           2666 
                           2667 ; =============== S U B R O U T I N E =======================================
                           2668 
                           2669 
   60C5                    2670 clear_last_2_lines:
   60C5 E5            [11] 2671                         push    hl                              ; save video address
   60C6 3E 80         [ 6] 2672                         ld      a, #0x80 ; 'Ä'                  ; 2 lines to clear
   60C8 21 80 3F      [ 9] 2673                         ld      hl, # VIDEO+0x380               ; 2nd-last line
                           2674 
   60CB                    2675 loc_5EC6:                                                       ; <SPACE>
   60CB 36 20         [ 9] 2676                         ld      (hl), #0x20 ; ' '
   60CD 3D            [ 4] 2677                         dec     a                               ; done 2 lines?
   60CE 23            [ 4] 2678                         inc     hl                              ; next video location
   60CF C2 CB 60      [ 9] 2679                         jp      NZ, loc_5EC6                    ; no, loop
   60D2 E1            [ 9] 2680                         pop     hl                              ; restore video location
   60D3 C9            [ 9] 2681                         ret
                           2682 ; End of function clear_last_2_lines
                           2683 
                           2684 
                           2685 ; =============== S U B R O U T I N E =======================================
                           2686 
                           2687 
   60D4                    2688 print_10_lines:
   60D4 21 57 3C      [ 9] 2689                         ld      hl, # VIDEO+0x57
   60D7 3E 0A         [ 6] 2690                         ld      a, #10                          ; # lines to print
                           2691 
   60D9                    2692 loc_5ED4:
   60D9 F5            [11] 2693                         push    af
   60DA CD 44 5F      [16] 2694                         call    print_string
   60DD F1            [ 9] 2695                         pop     af
ASxxxx Assembler V05.00  (Zilog Z80 / Hitachi HD64180), page 50.
Hexidecimal [16-Bits]



   60DE 01 2B 00      [ 9] 2696                         ld      bc, #0x2B ; '+'                 ; offset to next line
   60E1 09            [ 7] 2697                         add     hl, bc                          ; next video address
   60E2 3D            [ 4] 2698                         dec     a                               ; done all lines?
   60E3 13            [ 4] 2699                         inc     de                              ; skip null
   60E4 C2 D9 60      [ 9] 2700                         jp      NZ, loc_5ED4                    ; no, loop
   60E7 C9            [ 9] 2701                         ret
                           2702 ; End of function print_10_lines
                           2703 
                           2704 
                           2705 ; =============== S U B R O U T I N E =======================================
                           2706 
                           2707 
   60E8                    2708 print_sector:
   60E8 2A 2D 6A      [15] 2709                         ld      hl, (hephaestus_video_addr)
   60EB 11 A9 C3      [ 9] 2710                         ld      de, #0xC3A9                     ; $3C58+$C3A9=$10001
   60EE 19            [ 7] 2711                         add     hl, de
   60EF 11 C0 FF      [ 9] 2712                         ld      de, #0xFFC0                     ; -64 (1 line)
   60F2 06 00         [ 6] 2713                         ld      b, #0
                           2714 
   60F4                    2715 loc_5EEF:                                                       ; subtract a line
   60F4 19            [ 7] 2716                         add     hl, de
   60F5 7C            [ 4] 2717                         ld      a, h
   60F6 A7            [ 4] 2718                         and     a                               ; negative?
   60F7 FA FE 60      [ 9] 2719                         jp      M, loc_5EF9                     ; yes, exit
   60FA 04            [ 4] 2720                         inc     b                               ; inc Y coord
   60FB C3 F4 60      [ 9] 2721                         jp      loc_5EEF                        ; loop
                           2722 ; ---------------------------------------------------------------------------
                           2723 
   60FE                    2724 loc_5EF9:
   60FE 11 40 00      [ 9] 2725                         ld      de, #0x40 ; '@'
   6101 19            [ 7] 2726                         add     hl, de                          ; re-adjust
   6102 7D            [ 4] 2727                         ld      a, l
   6103 0F            [ 3] 2728                         rrca                                    ; X coord
   6104 E6 0F         [ 6] 2729                         and     #0xF
   6106 C6 30         [ 6] 2730                         add     a, #0x30 ; '0'                  ; convert to ASCII
   6108 21 3E 3D      [ 9] 2731                         ld      hl, # VIDEO+0x13E               ; sector X video address
   610B 77            [ 7] 2732                         ld      (hl), a                         ; write to video
   610C 21 3C 3D      [ 9] 2733                         ld      hl, # VIDEO+0x13C               ; sector Y video address
   610F 78            [ 4] 2734                         ld      a, b
   6110 C6 30         [ 6] 2735                         add     a, #0x30 ; '0'                  ; convert to ASCII
   6112 77            [ 7] 2736                         ld      (hl), a                         ; write to video
   6113 C9            [ 9] 2737                         ret
                           2738 ; End of function print_sector
                           2739 
                           2740 
                           2741 ; =============== S U B R O U T I N E =======================================
                           2742 
                           2743 
   6114                    2744 update_star_time:
   6114 21 7F 3C      [ 9] 2745                         ld      hl, # VIDEO+0x7F                ; last digit STAR-TIME
                           2746 
   6117                    2747 loc_5F12:                                                       ; get digit
   6117 7E            [ 6] 2748                         ld      a, (hl)
   6118 3C            [ 4] 2749                         inc     a
   6119 77            [ 7] 2750                         ld      (hl), a                         ; write back to video
ASxxxx Assembler V05.00  (Zilog Z80 / Hitachi HD64180), page 51.
Hexidecimal [16-Bits]



   611A FE 3A         [ 6] 2751                         cp      #0x3A ; ':'                     ; ASCII '9'+1?
   611C C0            [10] 2752                         ret     NZ                              ; no, return
   611D 36 30         [ 9] 2753                         ld      (hl), #0x30 ; '0'               ; write '0' to video
   611F 2B            [ 4] 2754                         dec     hl                              ; previous digit
   6120 C3 17 61      [ 9] 2755                         jp      loc_5F12                        ; loop
                           2756 ; End of function update_star_time
                           2757 
                           2758 
                           2759 ; =============== S U B R O U T I N E =======================================
                           2760 
                           2761 
   6123                    2762 dec_jovians:
   6123 3A 66 6A      [12] 2763                         ld      a, (quadrant)
   6126 CD 9F 5D      [16] 2764                         call    get_ptr_quadrant_A_data
   6129 35            [10] 2765                         dec     (hl)                            ; dec warships
   612A 3A 5D 6A      [12] 2766                         ld      a, (jovians_left)
   612D C6 99         [ 6] 2767                         add     a, #0x99 ; 'ô'
   612F 27            [ 4] 2768                         daa                                     ; dec jovians left
   6130 32 5D 6A      [13] 2769                         ld      (jovians_left), a               ; update
                           2770 ; End of function dec_jovians
                           2771 
                           2772 
                           2773 ; =============== S U B R O U T I N E =======================================
                           2774 
                           2775 
   6133                    2776 print_jovians_left:
   6133 3A 5D 6A      [12] 2777                         ld      a, (jovians_left)
   6136 21 FE 3D      [ 9] 2778                         ld      hl, # VIDEO+0x1FE               ; video address
   6139 A7            [ 4] 2779                         and     a                               ; any left?
   613A C2 68 61      [ 9] 2780                         jp      NZ, print_BCD_byte              ; yes, go
   613D CD 68 61      [16] 2781                         call    print_BCD_byte                  ; display Jovians left
   6140 21 80 3F      [ 9] 2782                         ld      hl, # VIDEO+0x380               ; 2nd-last line
   6143 11 E0 66      [ 9] 2783                         ld      de, #aCommandHeadq_0            ; "COMMAND HEADQUARTERS:  CONGRATULATIONS,"...
   6146 CD 41 5F      [16] 2784                         call    clear_last_2_lines_print_string
   6149 21 C5 3C      [ 9] 2785                         ld      hl, # VIDEO+0xC5                ; current quadrant in LR sensor
   614C 36 30         [ 9] 2786                         ld      (hl), #0x30 ; '0'               ; write '0' to warships
                           2787 ; display officer from HQ
   614E 11 9C 6C      [ 9] 2788                         ld      de, #aHQ_Officer                ; "                     "
   6151 CD D4 60      [16] 2789                         call    print_10_lines
   6154 97            [ 4] 2790                         sub     a                               ; flag no command
   6155 32 B7 71      [13] 2791                         ld      (cmd_flag), a
   6158 3E 01         [ 6] 2792                         ld      a, #1                           ; flag disabled
   615A 32 BE 71      [13] 2793                         ld      (disable_pod_update), a
   615D 06 0C         [ 6] 2794                         ld      b, #0xC
   615F C3 AB 55      [ 9] 2795                         jp      loc_53AB
                           2796 ; End of function print_jovians_left
                           2797 
                           2798 
                           2799 ; =============== S U B R O U T I N E =======================================
                           2800 
                           2801 
   6162                    2802 print_power_avail:
   6162 21 BD 3D      [ 9] 2803                         ld      hl, # VIDEO+0x1BD               ; POWER AVAIL value
   6165 3A BD 6B      [12] 2804                         ld      a, (power_avail)
                           2805 ; End of function print_power_avail
ASxxxx Assembler V05.00  (Zilog Z80 / Hitachi HD64180), page 52.
Hexidecimal [16-Bits]



                           2806 
                           2807 
                           2808 ; =============== S U B R O U T I N E =======================================
                           2809 
                           2810 
   6168                    2811 print_BCD_byte:
   6168 5F            [ 4] 2812                         ld      e, a
   6169 0F            [ 3] 2813                         rrca
   616A 0F            [ 3] 2814                         rrca
   616B 0F            [ 3] 2815                         rrca
   616C 0F            [ 3] 2816                         rrca                                    ; high->low nibble
   616D E6 0F         [ 6] 2817                         and     #0xF                            ; nibble only
   616F C6 30         [ 6] 2818                         add     a, #0x30 ; '0'                  ; convert to ASCII digit
   6171 77            [ 7] 2819                         ld      (hl), a                         ; write to video
   6172 23            [ 4] 2820                         inc     hl                              ; next video address
   6173 7B            [ 4] 2821                         ld      a, e
   6174 E6 0F         [ 6] 2822                         and     #0xF                            ; low nibble only
   6176 C6 30         [ 6] 2823                         add     a, #0x30 ; '0'                  ; convert to ASCII digit
   6178 77            [ 7] 2824                         ld      (hl), a                         ; write to video
   6179 C9            [ 9] 2825                         ret
                           2826 ; End of function print_BCD_byte
                           2827 
                           2828 
                           2829 ; =============== S U B R O U T I N E =======================================
                           2830 
                           2831 
   617A                    2832 dec_triton_misls_and_print:
   617A 21 7D 3D      [ 9] 2833                         ld      hl, # VIDEO+0x17D               ; triton msls value video address
   617D 3A BE 6B      [12] 2834                         ld      a, (triton_misls)
   6180 A7            [ 4] 2835                         and     a                               ; none?
   6181 C2 86 61      [ 9] 2836                         jp      NZ, loc_5F81                    ; no, skip
   6184 37            [ 3] 2837                         scf
   6185 C9            [ 9] 2838                         ret
                           2839 ; ---------------------------------------------------------------------------
                           2840 
   6186                    2841 loc_5F81:
   6186 C6 99         [ 6] 2842                         add     a, #0x99 ; 'ô'
   6188 27            [ 4] 2843                         daa                                     ; decrement
   6189 32 BE 6B      [13] 2844                         ld      (triton_misls), a               ; update
   618C C3 68 61      [ 9] 2845                         jp      print_BCD_byte
                           2846 ; End of function dec_triton_misls_and_print
                           2847 
                           2848 ; ---------------------------------------------------------------------------
                     0000  2849 .ifndef BUILD_OPT_MIXED_CASE
                           2850 
                           2851 aCommandHeadqua:        .ascii 'COMMAND HEADQUARTERS: THE JOVIANS HAVE INVADED EARTH SPACE.     YOUR OR'
                           2852                         .ascii 'DERS ARE TO SEARCH FOR AND DESTROY ALL JOVIAN WAR        VESSELS IN EAR'
                           2853                         .ascii 'TH'
                           2854                         .db 0x27
                           2855                         .ascii 'S 100 QUADRANTS OF SPACE'
                           2856                         .db 0
                           2857 aHyprHIonIMsrMT:        .ascii 'HYPR=H,ION=I,MSR=M,TRM=T,PWRDST=D,SELFD=S,EXPRAY=E,POD=A,XPOD=X '
                           2858                         .db 0
                           2859 aEngineerComman:        .ascii 'ENGINEER:COMMANDER, THE ENGINES HAVEN'
                           2860                         .db 0x27
ASxxxx Assembler V05.00  (Zilog Z80 / Hitachi HD64180), page 53.
Hexidecimal [16-Bits]



                           2861                         .ascii 'T THE POWER TO OPERATE'
                           2862                         .db 0
                           2863 aEngineerTheUnk:        .ascii 'ENGINEER:THE UNKNOWN WE SHOT DISABLED THE HYPERDRIVE. '
                           2864                         .db 0
                           2865 aFirstOfficerCa:        .ascii 'FIRST OFFICER:CAPTAIN, YOUR LAST COMMAND MADE NO SENSE'
                           2866                         .db 0
                           2867 aFirstOfficer_0:        .ascii 'FIRST OFFICER:CAPTAIN, WE HAVE BEEN BLOCKED BY AN UNKNOWN       OBJECT'
                           2868                         .db 0
                           2869 aCommunications:        .ascii 'COMMUNICATIONS:THE SPACE STATION HAS ACKNOWLEDGED OUR DOCKING.'
                           2870                         .db 0
                           2871 aDock:                  .ascii ' DOCK'
                           2872                         .db 0
                           2873 aGreen:                 .ascii 'GREEN'
                           2874                         .db 0
                           2875 aRed:                   .ascii ' RED '
                           2876                         .db 0
                           2877 aCrtcl:                 .ascii 'CRTCL'
                           2878                         .db 0
                           2879 aFirstOfficerSi:        .ascii 'FIRST OFFICER: SIR, WE HAVE HIT A TRITON MINE'
                           2880                         .db 0
                           2881 aCommunicatio_0:        .ascii 'COMMUNICATIONS:SIR, WE MADE CONTACT WITH A JOVIAN VESSEL'
                           2882                         .db 0
                           2883 aJovianWatchWhe:        .ascii 'JOVIAN: WATCH WHERE YOU ARE GOING YOU TURKEY!!'
                           2884                         .db 0
                           2885 aNavigatorWeHit:        .ascii 'NAVIGATOR:WE HIT A STAR!?!'
                           2886                         .db 0
                           2887 aEngineerComm_0:        .ascii 'ENGINEER:COMMANDER, WE HAVEN'
                           2888                         .db 0x27
                           2889                         .ascii 'T THE POWER TO FIRE MASERS'
                           2890                         .db 0
                           2891 aFirstOfficer_1:        .ascii 'FIRST OFFICER:SIR, MY SENSORS SHOW MASER HAD NO EFFECT'
                           2892                         .db 0
                           2893 aEngineerComm_1:        .ascii 'ENGINEER:COMMANDER, THE MISSILE TUBES ARE POWER DEFICIENT'
                           2894                         .db 0
                           2895 aComputerObject:        .ascii 'COMPUTER:OBJECT DESTROYED'
                           2896                         .db 0
                           2897 aNavigatorTheEn:        .ascii 'NAVIGATOR:THE ENGINES ARE EXPLODING'
                           2898                         .db 0
                           2899 aEngineerComm_2:        .ascii 'ENGINEER:COMMANDER, THE ENGINES ARE OVERLOADED, THEY CAN'
                           2900                         .db 0x27
                           2901                         .ascii 'T LAST    AT THAT RATE'
                           2902                         .db 0
                           2903 aComputerSelfDe:        .ascii 'COMPUTER:SELF DESTRUCT SEQUENCE INITIATED. 15 SECONDS REMAIN'
                           2904                         .db 0
                           2905 aComputerSelf_0:        .ascii 'COMPUTER:SELF DESTRUCT SEQUENCE ABORTED'
                           2906                         .db 0
                           2907 aMedicalOfficer:        .ascii 'MEDICAL OFFICER:I CAN'
                           2908                         .db 0x27
                           2909                         .ascii 'T ALLOW YOU TO FIRE THE EXPERIMENTAL RAY!'
                           2910                         .db 0
                           2911 aWeaponrySirWeH:        .ascii 'WEAPONRY:SIR, WE HAVE NO MORE TRITON MISSILES'
                           2912                         .db 0
                           2913 aEngineerThereG:        .ascii 'ENGINEER:THERE GOES A POWER CRYSTAL, COMMANDER'
                           2914                         .db 0
                           2915 aEngineerComm_3:        .ascii 'ENGINEER:COMMANDER, THE SHIELDS ARE FALLING APART!'
ASxxxx Assembler V05.00  (Zilog Z80 / Hitachi HD64180), page 54.
Hexidecimal [16-Bits]



                           2916                         .db 0
                           2917 aCommandHeadq_0:        .ascii 'COMMAND HEADQUARTERS:  CONGRATULATIONS, YOU HAVE DESTROYED ALL    THE J'
                           2918                         .ascii 'OVIANS. YOU ARE PROMOTED TO ADMIRAL'
                           2919                         .db 0
                           2920 aFirstOfficerTh:        .ascii 'FIRST OFFICER: THE EXPERIMENTAL RAY'
                           2921                         .db 0
                           2922 aIsFiringTriton:        .ascii 'IS FIRING TRITON MISSILES'
                           2923                         .db 0
                           2924 aCausedAChangeI:        .ascii 'CAUSED A CHANGE IN SPACIAL     STRUCTURE'
                           2925                         .db 0
                           2926 aHasFrozenTimeF:        .ascii 'HAS FROZEN TIME FOR THE        JOVIANS'
                           2927                         .db 0
                           2928 aHasCausedTheJo:        .ascii 'HAS CAUSED THE JOVIANS TO      BECOME INVISIBLE'
                           2929                         .db 0
                           2930 aComputerTriton:        .ascii 'COMPUTER:TRITON MISSILE HAS NO EFFECT'
                           2931                         .db 0
                           2932 aHasJumbledTheQ:        .ascii 'HAS JUMBLED THE QUADRANT'
                           2933                         .db 0
                           2934 aHasDestroyedAl:        .ascii 'HAS DESTROYED ALL THE          JOVIANS IN THE QUADRANT'
                           2935                         .db 0
                           2936 aDestroysItself:        .ascii 'DESTROYS ITSELF'
                           2937                         .db 0
                           2938 aHasBackfiredOn:        .ascii 'HAS BACKFIRED ON US'
                           2939                         .db 0
                           2940 aHasCausedAComp:        .ascii 'HAS CAUSED A COMPUTER          MALFUNCTION'
                           2941                         .db 0
                           2942 aIsPermanentlyD:        .ascii 'IS PERMANENTLY DISABLED'
                           2943                         .db 0
                           2944 aShipLogUssPhae:        .ascii 'SHIP LOG-USS PHAETON-CAPTAIN DAR: SENSORS FOUND DEBRIS BELIEVED THAT OF'
                           2945                         .ascii ' USS HEPHAESTUS.'
                           2946                         .db 0
                           2947 aEnterSpeedFact:        .ascii 'ENTER SPEED FACTOR (0(FAST)-9(SLOW))'
                           2948                         .db 0
                           2949 aWeaponryWeReOu:        .ascii 'WEAPONRY: WE'
                           2950                         .db 0x27
                           2951                         .ascii 'RE OUT OF PODS'
                           2952                         .db 0
                           2953 aComputerThePod:        .ascii 'COMPUTER: THE POD HAS BEEN USED'
                           2954                         .db 0
                           2955 aComputerPodLau:        .ascii 'COMPUTER: POD LAUNCH IS BLOCKED'
                           2956                         .db 0
                           2957 aFirstOfficer_2:        .ascii 'FIRST OFFICER: THE UNKNOWN IS STEALING POWER CAPTAIN'
                           2958                         .db 0
                     0001  2959 .else
                           2960 
   618F 43 4F 4D 4D 41 4E  2961 aCommandHeadqua:        .ascii 'COMMAND HEADQUARTERS: The Jovians have invaded earth space.     your or'
        44 20 48 45 41 44
        51 55 41 52 54 45
        52 53 3A 20 54 68
        65 20 4A 6F 76 69
        61 6E 73 20 68 61
        76 65 20 69 6E 76
        61 64 65 64 20 65
        61 72 74 68 20 73
        70 61 63 65 2E 20
ASxxxx Assembler V05.00  (Zilog Z80 / Hitachi HD64180), page 55.
Hexidecimal [16-Bits]



        20 20 20 20 79 6F
        75 72 20 6F 72
   61D6 64 65 72 73 20 61  2962                         .ascii 'ders are to search for and destroy all Jovian war        vessels in ear'
        72 65 20 74 6F 20
        73 65 61 72 63 68
        20 66 6F 72 20 61
        6E 64 20 64 65 73
        74 72 6F 79 20 61
        6C 6C 20 4A 6F 76
        69 61 6E 20 77 61
        72 20 20 20 20 20
        20 20 20 76 65 73
        73 65 6C 73 20 69
        6E 20 65 61 72
   621D 74 68              2963                         .ascii 'th'
   621F 27                 2964                         .db 0x27
   6220 73 20 31 30 30 20  2965                         .ascii 's 100 quadrants of space'
        71 75 61 64 72 61
        6E 74 73 20 6F 66
        20 73 70 61 63 65
   6238 00                 2966                         .db 0
   6239 48 79 70 72 3D 48  2967 aHyprHIonIMsrMT:        .ascii 'Hypr=H,Ion=I,Msr=M,Trm=T,Pwrdst=D,Selfd=S,Expray=E,Pod=A,Xpod=X '
        2C 49 6F 6E 3D 49
        2C 4D 73 72 3D 4D
        2C 54 72 6D 3D 54
        2C 50 77 72 64 73
        74 3D 44 2C 53 65
        6C 66 64 3D 53 2C
        45 78 70 72 61 79
        3D 45 2C 50 6F 64
        3D 41 2C 58 70 6F
        64 3D 58 20
   6279 00                 2968                         .db 0
   627A 45 4E 47 49 4E 45  2969 aEngineerComman:        .ascii 'ENGINEER:Commander, the engines haven'
        45 52 3A 43 6F 6D
        6D 61 6E 64 65 72
        2C 20 74 68 65 20
        65 6E 67 69 6E 65
        73 20 68 61 76 65
        6E
   629F 27                 2970                         .db 0x27
   62A0 74 20 74 68 65 20  2971                         .ascii 't the power to operate'
        70 6F 77 65 72 20
        74 6F 20 6F 70 65
        72 61 74 65
   62B6 00                 2972                         .db 0
   62B7 45 4E 47 49 4E 45  2973 aEngineerTheUnk:        .ascii 'ENGINEER:The unknown we shot disabled the hyperdrive. '
        45 52 3A 54 68 65
        20 75 6E 6B 6E 6F
        77 6E 20 77 65 20
        73 68 6F 74 20 64
        69 73 61 62 6C 65
        64 20 74 68 65 20
        68 79 70 65 72 64
        72 69 76 65 2E 20
ASxxxx Assembler V05.00  (Zilog Z80 / Hitachi HD64180), page 56.
Hexidecimal [16-Bits]



   62ED 00                 2974                         .db 0
   62EE 46 49 52 53 54 20  2975 aFirstOfficerCa:        .ascii 'FIRST OFFICER:Captain, your last command made no sense'
        4F 46 46 49 43 45
        52 3A 43 61 70 74
        61 69 6E 2C 20 79
        6F 75 72 20 6C 61
        73 74 20 63 6F 6D
        6D 61 6E 64 20 6D
        61 64 65 20 6E 6F
        20 73 65 6E 73 65
   6324 00                 2976                         .db 0
   6325 46 49 52 53 54 20  2977 aFirstOfficer_0:        .ascii 'FIRST OFFICER:Captain, we have been blocked by an unknown       object'
        4F 46 46 49 43 45
        52 3A 43 61 70 74
        61 69 6E 2C 20 77
        65 20 68 61 76 65
        20 62 65 65 6E 20
        62 6C 6F 63 6B 65
        64 20 62 79 20 61
        6E 20 75 6E 6B 6E
        6F 77 6E 20 20 20
        20 20 20 20 6F 62
        6A 65 63 74
   636B 00                 2978                         .db 0
   636C 43 4F 4D 4D 55 4E  2979 aCommunications:        .ascii 'COMMUNICATIONS:The Space Station has acknowledged our docking.'
        49 43 41 54 49 4F
        4E 53 3A 54 68 65
        20 53 70 61 63 65
        20 53 74 61 74 69
        6F 6E 20 68 61 73
        20 61 63 6B 6E 6F
        77 6C 65 64 67 65
        64 20 6F 75 72 20
        64 6F 63 6B 69 6E
        67 2E
   63AA 00                 2980                         .db 0
   63AB 20 44 4F 43 4B     2981 aDock:                  .ascii ' DOCK'
   63B0 00                 2982                         .db 0
   63B1 47 52 45 45 4E     2983 aGreen:                 .ascii 'GREEN'
   63B6 00                 2984                         .db 0
   63B7 20 52 45 44 20     2985 aRed:                   .ascii ' RED '
   63BC 00                 2986                         .db 0
   63BD 43 52 54 43 4C     2987 aCrtcl:                 .ascii 'CRTCL'
   63C2 00                 2988                         .db 0
   63C3 46 49 52 53 54 20  2989 aFirstOfficerSi:        .ascii 'FIRST OFFICER: Sir, we have hit a Triton Mine'
        4F 46 46 49 43 45
        52 3A 20 53 69 72
        2C 20 77 65 20 68
        61 76 65 20 68 69
        74 20 61 20 54 72
        69 74 6F 6E 20 4D
        69 6E 65
   63F0 00                 2990                         .db 0
   63F1 43 4F 4D 4D 55 4E  2991 aCommunicatio_0:        .ascii 'COMMUNICATIONS:Sir, we made contact with a Jovian vessel'
        49 43 41 54 49 4F
ASxxxx Assembler V05.00  (Zilog Z80 / Hitachi HD64180), page 57.
Hexidecimal [16-Bits]



        4E 53 3A 53 69 72
        2C 20 77 65 20 6D
        61 64 65 20 63 6F
        6E 74 61 63 74 20
        77 69 74 68 20 61
        20 4A 6F 76 69 61
        6E 20 76 65 73 73
        65 6C
   6429 00                 2992                         .db 0
   642A 4A 4F 56 49 41 4E  2993 aJovianWatchWhe:        .ascii 'JOVIAN: Watch where you are going you TURKEY!!'
        3A 20 57 61 74 63
        68 20 77 68 65 72
        65 20 79 6F 75 20
        61 72 65 20 67 6F
        69 6E 67 20 79 6F
        75 20 54 55 52 4B
        45 59 21 21
   6458 00                 2994                         .db 0
   6459 4E 41 56 49 47 41  2995 aNavigatorWeHit:        .ascii 'NAVIGATOR:We hit a star!?!'
        54 4F 52 3A 57 65
        20 68 69 74 20 61
        20 73 74 61 72 21
        3F 21
   6473 00                 2996                         .db 0
   6474 45 4E 47 49 4E 45  2997 aEngineerComm_0:        .ascii 'ENGINEER:Commander, we haven'
        45 52 3A 43 6F 6D
        6D 61 6E 64 65 72
        2C 20 77 65 20 68
        61 76 65 6E
   6490 27                 2998                         .db 0x27
   6491 74 20 74 68 65 20  2999                         .ascii 't the power to fire Masers'
        70 6F 77 65 72 20
        74 6F 20 66 69 72
        65 20 4D 61 73 65
        72 73
   64AB 00                 3000                         .db 0
   64AC 46 49 52 53 54 20  3001 aFirstOfficer_1:        .ascii 'FIRST OFFICER:Sir, my sensors show Maser had no effect'
        4F 46 46 49 43 45
        52 3A 53 69 72 2C
        20 6D 79 20 73 65
        6E 73 6F 72 73 20
        73 68 6F 77 20 4D
        61 73 65 72 20 68
        61 64 20 6E 6F 20
        65 66 66 65 63 74
   64E2 00                 3002                         .db 0
   64E3 45 4E 47 49 4E 45  3003 aEngineerComm_1:        .ascii 'ENGINEER:Commander, the missile tubes are power deficient'
        45 52 3A 43 6F 6D
        6D 61 6E 64 65 72
        2C 20 74 68 65 20
        6D 69 73 73 69 6C
        65 20 74 75 62 65
        73 20 61 72 65 20
        70 6F 77 65 72 20
        64 65 66 69 63 69
ASxxxx Assembler V05.00  (Zilog Z80 / Hitachi HD64180), page 58.
Hexidecimal [16-Bits]



        65 6E 74
   651C 00                 3004                         .db 0
   651D 43 4F 4D 50 55 54  3005 aComputerObject:        .ascii 'COMPUTER:Object destroyed'
        45 52 3A 4F 62 6A
        65 63 74 20 64 65
        73 74 72 6F 79 65
        64
   6536 00                 3006                         .db 0
   6537 4E 41 56 49 47 41  3007 aNavigatorTheEn:        .ascii 'NAVIGATOR:The engines are exploding'
        54 4F 52 3A 54 68
        65 20 65 6E 67 69
        6E 65 73 20 61 72
        65 20 65 78 70 6C
        6F 64 69 6E 67
   655A 00                 3008                         .db 0
   655B 45 4E 47 49 4E 45  3009 aEngineerComm_2:        .ascii 'ENGINEER:Commander, the engines are overloaded, they can'
        45 52 3A 43 6F 6D
        6D 61 6E 64 65 72
        2C 20 74 68 65 20
        65 6E 67 69 6E 65
        73 20 61 72 65 20
        6F 76 65 72 6C 6F
        61 64 65 64 2C 20
        74 68 65 79 20 63
        61 6E
   6593 27                 3010                         .db 0x27
   6594 74 20 6C 61 73 74  3011                         .ascii 't last    at that rate'
        20 20 20 20 61 74
        20 74 68 61 74 20
        72 61 74 65
   65AA 00                 3012                         .db 0
   65AB 43 4F 4D 50 55 54  3013 aComputerSelfDe:        .ascii 'COMPUTER:Self Destruct Sequence initiated. 15 seconds remain'
        45 52 3A 53 65 6C
        66 20 44 65 73 74
        72 75 63 74 20 53
        65 71 75 65 6E 63
        65 20 69 6E 69 74
        69 61 74 65 64 2E
        20 31 35 20 73 65
        63 6F 6E 64 73 20
        72 65 6D 61 69 6E
   65E7 00                 3014                         .db 0
   65E8 43 4F 4D 50 55 54  3015 aComputerSelf_0:        .ascii 'COMPUTER:Self Destruct Sequence aborted'
        45 52 3A 53 65 6C
        66 20 44 65 73 74
        72 75 63 74 20 53
        65 71 75 65 6E 63
        65 20 61 62 6F 72
        74 65 64
   660F 00                 3016                         .db 0
   6610 4D 45 44 49 43 41  3017 aMedicalOfficer:        .ascii 'MEDICAL OFFICER:I can'
        4C 20 4F 46 46 49
        43 45 52 3A 49 20
        63 61 6E
   6625 27                 3018                         .db 0x27
ASxxxx Assembler V05.00  (Zilog Z80 / Hitachi HD64180), page 59.
Hexidecimal [16-Bits]



   6626 74 20 61 6C 6C 6F  3019                         .ascii 't allow you to fire the Experimental Ray!'
        77 20 79 6F 75 20
        74 6F 20 66 69 72
        65 20 74 68 65 20
        45 78 70 65 72 69
        6D 65 6E 74 61 6C
        20 52 61 79 21
   664F 00                 3020                         .db 0
   6650 57 45 41 50 4F 4E  3021 aWeaponrySirWeH:        .ascii 'WEAPONRY:Sir, We have no more Triton Missiles'
        52 59 3A 53 69 72
        2C 20 57 65 20 68
        61 76 65 20 6E 6F
        20 6D 6F 72 65 20
        54 72 69 74 6F 6E
        20 4D 69 73 73 69
        6C 65 73
   667D 00                 3022                         .db 0
   667E 45 4E 47 49 4E 45  3023 aEngineerThereG:        .ascii 'ENGINEER:There goes a power crystal, Commander'
        45 52 3A 54 68 65
        72 65 20 67 6F 65
        73 20 61 20 70 6F
        77 65 72 20 63 72
        79 73 74 61 6C 2C
        20 43 6F 6D 6D 61
        6E 64 65 72
   66AC 00                 3024                         .db 0
   66AD 45 4E 47 49 4E 45  3025 aEngineerComm_3:        .ascii 'ENGINEER:Commander, the shields are falling apart!'
        45 52 3A 43 6F 6D
        6D 61 6E 64 65 72
        2C 20 74 68 65 20
        73 68 69 65 6C 64
        73 20 61 72 65 20
        66 61 6C 6C 69 6E
        67 20 61 70 61 72
        74 21
   66DF 00                 3026                         .db 0
   66E0 43 4F 4D 4D 41 4E  3027 aCommandHeadq_0:        .ascii 'COMMAND HEADQUARTERS:  Congratulations, you have destroyed all    the J'
        44 20 48 45 41 44
        51 55 41 52 54 45
        52 53 3A 20 20 43
        6F 6E 67 72 61 74
        75 6C 61 74 69 6F
        6E 73 2C 20 79 6F
        75 20 68 61 76 65
        20 64 65 73 74 72
        6F 79 65 64 20 61
        6C 6C 20 20 20 20
        74 68 65 20 4A
   6727 6F 76 69 61 6E 73  3028                         .ascii 'ovians. You are promoted to Admiral'
        2E 20 59 6F 75 20
        61 72 65 20 70 72
        6F 6D 6F 74 65 64
        20 74 6F 20 41 64
        6D 69 72 61 6C
   674A 00                 3029                         .db 0
ASxxxx Assembler V05.00  (Zilog Z80 / Hitachi HD64180), page 60.
Hexidecimal [16-Bits]



   674B 46 49 52 53 54 20  3030 aFirstOfficerTh:        .ascii 'FIRST OFFICER: The Experimental Ray'
        4F 46 46 49 43 45
        52 3A 20 54 68 65
        20 45 78 70 65 72
        69 6D 65 6E 74 61
        6C 20 52 61 79
   676E 00                 3031                         .db 0
   676F 69 73 20 66 69 72  3032 aIsFiringTriton:        .ascii 'is firing Triton Missiles'
        69 6E 67 20 54 72
        69 74 6F 6E 20 4D
        69 73 73 69 6C 65
        73
   6788 00                 3033                         .db 0
   6789 63 61 75 73 65 64  3034 aCausedAChangeI:        .ascii 'caused a change in spacial     structure'
        20 61 20 63 68 61
        6E 67 65 20 69 6E
        20 73 70 61 63 69
        61 6C 20 20 20 20
        20 73 74 72 75 63
        74 75 72 65
   67B1 00                 3035                         .db 0
   67B2 68 61 73 20 66 72  3036 aHasFrozenTimeF:        .ascii 'has frozen time for the        Jovians'
        6F 7A 65 6E 20 74
        69 6D 65 20 66 6F
        72 20 74 68 65 20
        20 20 20 20 20 20
        20 4A 6F 76 69 61
        6E 73
   67D8 00                 3037                         .db 0
   67D9 68 61 73 20 63 61  3038 aHasCausedTheJo:        .ascii 'has caused the Jovians to      become invisible'
        75 73 65 64 20 74
        68 65 20 4A 6F 76
        69 61 6E 73 20 74
        6F 20 20 20 20 20
        20 62 65 63 6F 6D
        65 20 69 6E 76 69
        73 69 62 6C 65
   6808 00                 3039                         .db 0
   6809 43 4F 4D 50 55 54  3040 aComputerTriton:        .ascii 'COMPUTER:Triton Missile has no effect'
        45 52 3A 54 72 69
        74 6F 6E 20 4D 69
        73 73 69 6C 65 20
        68 61 73 20 6E 6F
        20 65 66 66 65 63
        74
   682E 00                 3041                         .db 0
   682F 68 61 73 20 6A 75  3042 aHasJumbledTheQ:        .ascii 'has jumbled the quadrant'
        6D 62 6C 65 64 20
        74 68 65 20 71 75
        61 64 72 61 6E 74
   6847 00                 3043                         .db 0
   6848 68 61 73 20 64 65  3044 aHasDestroyedAl:        .ascii 'has destroyed all the          Jovians in the quadrant'
        73 74 72 6F 79 65
        64 20 61 6C 6C 20
        74 68 65 20 20 20
ASxxxx Assembler V05.00  (Zilog Z80 / Hitachi HD64180), page 61.
Hexidecimal [16-Bits]



        20 20 20 20 20 20
        20 4A 6F 76 69 61
        6E 73 20 69 6E 20
        74 68 65 20 71 75
        61 64 72 61 6E 74
   687E 00                 3045                         .db 0
   687F 64 65 73 74 72 6F  3046 aDestroysItself:        .ascii 'destroys itself'
        79 73 20 69 74 73
        65 6C 66
   688E 00                 3047                         .db 0
   688F 68 61 73 20 62 61  3048 aHasBackfiredOn:        .ascii 'has backfired on us'
        63 6B 66 69 72 65
        64 20 6F 6E 20 75
        73
   68A2 00                 3049                         .db 0
   68A3 68 61 73 20 63 61  3050 aHasCausedAComp:        .ascii 'has caused a computer          malfunction'
        75 73 65 64 20 61
        20 63 6F 6D 70 75
        74 65 72 20 20 20
        20 20 20 20 20 20
        20 6D 61 6C 66 75
        6E 63 74 69 6F 6E
   68CD 00                 3051                         .db 0
   68CE 69 73 20 70 65 72  3052 aIsPermanentlyD:        .ascii 'is permanently disabled'
        6D 61 6E 65 6E 74
        6C 79 20 64 69 73
        61 62 6C 65 64
   68E5 00                 3053                         .db 0
   68E6 53 48 49 50 20 4C  3054 aShipLogUssPhae:        .ascii 'SHIP LOG-USS PHAETON-CAPTAIN DAR: Sensors found debris believed that of'
        4F 47 2D 55 53 53
        20 50 48 41 45 54
        4F 4E 2D 43 41 50
        54 41 49 4E 20 44
        41 52 3A 20 53 65
        6E 73 6F 72 73 20
        66 6F 75 6E 64 20
        64 65 62 72 69 73
        20 62 65 6C 69 65
        76 65 64 20 74 68
        61 74 20 6F 66
   692D 20 55 53 53 20 48  3055                         .ascii ' USS Hephaestus.'
        65 70 68 61 65 73
        74 75 73 2E
   693D 00                 3056                         .db 0
   693E 45 6E 74 65 72 20  3057 aEnterSpeedFact:        .ascii 'Enter Speed Factor (0(Fast)-9(Slow))'
        53 70 65 65 64 20
        46 61 63 74 6F 72
        20 28 30 28 46 61
        73 74 29 2D 39 28
        53 6C 6F 77 29 29
   6962 00                 3058                         .db 0
   6963 57 45 41 50 4F 4E  3059 aWeaponryWeReOu:        .ascii 'WEAPONRY: We'
        52 59 3A 20 57 65
   696F 27                 3060                         .db 0x27
   6970 72 65 20 6F 75 74  3061                         .ascii 're out of pods'
ASxxxx Assembler V05.00  (Zilog Z80 / Hitachi HD64180), page 62.
Hexidecimal [16-Bits]



        20 6F 66 20 70 6F
        64 73
   697E 00                 3062                         .db 0
   697F 43 4F 4D 50 55 54  3063 aComputerThePod:        .ascii 'COMPUTER: The pod has been used'
        45 52 3A 20 54 68
        65 20 70 6F 64 20
        68 61 73 20 62 65
        65 6E 20 75 73 65
        64
   699E 00                 3064                         .db 0
   699F 43 4F 4D 50 55 54  3065 aComputerPodLau:        .ascii 'COMPUTER: Pod launch is blocked'
        45 52 3A 20 50 6F
        64 20 6C 61 75 6E
        63 68 20 69 73 20
        62 6C 6F 63 6B 65
        64
   69BE 00                 3066                         .db 0
   69BF 46 49 52 53 54 20  3067 aFirstOfficer_2:        .ascii 'FIRST OFFICER: The unknown is stealing power Captain'
        4F 46 46 49 43 45
        52 3A 20 54 68 65
        20 75 6E 6B 6E 6F
        77 6E 20 69 73 20
        73 74 65 61 6C 69
        6E 67 20 70 6F 77
        65 72 20 43 61 70
        74 61 69 6E
   69F3 00                 3068                         .db 0
                           3069 .endif
                           3070                         
   69F4 19 3F              3071 chaser_addr:            .dw VIDEO+0x319
   69F6 00                 3072 tmp_delay_cycle:        .db 0
   69F7 00                 3073 delay_cycle:            .db 0
   69F8 00                 3074 tmp_sector_contents:    .db 0
   69F9 00                 3075                         .db 0
   69FA 00                 3076                         .db 0
                           3077 ; table used in delay routine
                           3078 ; - scaling factors for duty cycle
   69FB 02 02              3079 delay_duty_cycle_tbl:   .db 2, 2
   69FD 55 02              3080                         .db 85, 2
   69FF 18 18              3081                         .db 24, 24
   6A01 50 22              3082                         .db 80, 34
   6A03 00                 3083                         .db 0
   6A04 08                 3084 ion_speed:              .db 8
   6A05 37 3F              3085 cmd_entry_addr:         .dw VIDEO+0x337
   6A07 D4 53              3086 cmd_jmp_vectors:        .dw hyperdrive
   6A09 46 54              3087                         .dw ion_engine
   6A0B 2A 56              3088                         .dw maser
   6A0D EB 56              3089                         .dw triton_missile
   6A0F 7C 58              3090                         .dw power_distrib
   6A11 30 59              3091                         .dw self_destruct
   6A13 71 59              3092                         .dw experimental_ray
   6A15 11 5B              3093                         .dw explode_pod
   6A17 67 5A              3094                         .dw launch_antimatter
   6A19 19 1A              3095 cmd_l_vector:           .dw 0x1A19                              ; BASIC ENTRY POINT
   6A1B 48 49 4D 54 44 53  3096 cmd_tbl:                .ascii 'HIMTDSEXAL'
ASxxxx Assembler V05.00  (Zilog Z80 / Hitachi HD64180), page 63.
Hexidecimal [16-Bits]



        45 58 41 4C
   6A25 00                 3097                         .db 0
   6A26 48 4C 53 44 4D 54  3098 pwr_subcmd_tbl:         .ascii 'HLSDMT'
   6A2C 00                 3099                         .db 0
   6A2D 02 00              3100 hephaestus_video_addr:  .dw 2
   6A2F 00                 3101 engine_explode_countdown:.db 0
   6A30 03                 3102 antimatter_pods:        .db 3
                           3103 ; when a triton missile hits an unknown object
                           3104 ; randomly vector to one of these locations
   6A31 9C 57              3105 missile_hit_unknown_tbl:.dw missile_hit_unk_079
   6A33 D5 57              3106                         .dw missile_hit_unk_1
   6A35 05 58              3107                         .dw missile_hit_unk_2
   6A37 19 58              3108                         .dw missile_hit_unk_3
   6A39 3D 58              3109                         .dw missile_hit_unk_4
   6A3B 46 58              3110                         .dw missile_hit_unk_58
   6A3D 0D 58              3111                         .dw missile_hit_unk_6
   6A3F 9C 57              3112                         .dw missile_hit_unk_079
   6A41 46 58              3113                         .dw missile_hit_unk_58
   6A43 9C 57              3114                         .dw missile_hit_unk_079
   6A45 06                 3115 pod_speed:              .db 6
   6A46 A6 59              3116 expr_tbl:               .dw expr_0
   6A48 CA 59              3117                         .dw expr_1
   6A4A D5 59              3118                         .dw expr_2
   6A4C FD 59              3119                         .dw expr_3
   6A4E 09 5A              3120                         .dw expr_4
   6A50 36 5A              3121                         .dw expr_5
   6A52 41 5A              3122                         .dw expr_6
   6A54 56 5A              3123                         .dw expr_7
   6A56 61 5A              3124                         .dw expr_8
   6A58 92 59              3125                         .dw expr_9
   6A5A 00                 3126 blocked_by_unknown:     .db 0                                   ; $00=OK, $FF=blocked
   6A5B 00                 3127 ion_dir:                .db 0
   6A5C 00                 3128                         .db    0
   6A5D 00                 3129 jovians_left:           .db 0
   6A5E 90 91 01 11 10 09  3130 quadrant_delta_tbl:     .db 0x90, 0x91, 1, 0x11, 0x10, 9, 0x99, 0x89
        99 89
   6A66 00                 3131 quadrant:               .db 0
                           3132 ; -- start of quadrant table
                           3133 ; 300 bytes cleared at startup
                           3134 ; - quadrant data, 3 bytes
                           3135 ;   +$00 - (3:0)=warships
                           3136 ;   +$01 - (3:0)=space stations
                           3137 ;   +$02 - (3:0)=stars
   6A67 4C 4F 54 20 44 57  3138 quadrant_tbl:           .db 0x4C, 0x4F, 0x54, 0x20, 0x44, 0x57, 0x20, 0x30, 0xD
        20 30 0D
   6A70 19 31 33 38 32 20  3139                         .db 0x19, 0x31, 0x33, 0x38, 0x32, 0x20, 0x43, 0x4C, 0x45
        43 4C 45
   6A79 41 52 20 41 53 43  3140                         .db 0x41, 0x52, 0x20, 0x41, 0x53, 0x43, 0x20, 0x27, 0x20
        20 27 20
   6A82 20 20 20 20 20 27  3141                         .db 0x20, 0x20, 0x20, 0x20, 0x20, 0x27, 0xD, 0xC, 0x31, 0x33
        0D 0C 31 33
   6A8C 38 33 20 20 44 42  3142                         .db 0x38, 0x33, 0x20, 0x20, 0x44, 0x42, 0x20, 0x30, 0xD
        20 30 0D
   6A95 14 31 33 38 34 20  3143                         .db 0x14, 0x31, 0x33, 0x38, 0x34, 0x20, 0x20, 0x41, 0x53
        20 41 53
ASxxxx Assembler V05.00  (Zilog Z80 / Hitachi HD64180), page 64.
Hexidecimal [16-Bits]



   6A9E 43 20 27 20 20 20  3144                         .db 0x43, 0x20, 0x27, 0x20, 0x20, 0x20, 0x20, 0x20, 0x20
        20 20 20
   6AA7 27 0D 0C 31 33 38  3145                         .db 0x27, 0xD, 0xC, 0x31, 0x33, 0x38, 0x35, 0x20, 0x20, 0x44
        35 20 20 44
   6AB1 42 20 30 0D 13 31  3146                         .db 0x42, 0x20, 0x30, 0xD, 0x13, 0x31, 0x33, 0x38, 0x36
        33 38 36
   6ABA 20 53 57 54 31 20  3147                         .db 0x20, 0x53, 0x57, 0x54, 0x31, 0x20, 0x45, 0x51, 0x55
        45 51 55
   6AC3 20 27 30 27 0D 13  3148                         .db 0x20, 0x27, 0x30, 0x27, 0xD, 0x13, 0x31, 0x33, 0x38
        31 33 38
   6ACC 37 20 53 57 54 32  3149                         .db 0x37, 0x20, 0x53, 0x57, 0x54, 0x32, 0x20, 0x45, 0x51
        20 45 51
   6AD5 55 20 27 21 27 0D  3150                         .db 0x55, 0x20, 0x27, 0x21, 0x27, 0xD, 0x11, 0x31, 0x33
        11 31 33
   6ADE 38 38 20 58 46 4C  3151                         .db 0x38, 0x38, 0x20, 0x58, 0x46, 0x4C, 0x41, 0x47, 0x20
        41 47 20
   6AE7 44 42 20 30 0D 11  3152                         .db 0x44, 0x42, 0x20, 0x30, 0xD, 0x11, 0x31, 0x33, 0x38
        31 33 38
   6AF0 39 20 5A 46 4C 41  3153                         .db 0x39, 0x20, 0x5A, 0x46, 0x4C, 0x41, 0x47, 0x20, 0x44
        47 20 44
   6AF9 42 20 30 0D 0F 31  3154                         .db 0x42, 0x20, 0x30, 0xD, 0xF, 0x31, 0x33, 0x39, 0x30, 0x20
        33 39 30 20
   6B03 57 48 31 20 44 42  3155                         .db 0x57, 0x48, 0x31, 0x20, 0x44, 0x42, 0x20, 0x30, 0xD
        20 30 0D
   6B0C 0F 31 33 39 31 20  3156                         .db 0xF, 0x31, 0x33, 0x39, 0x31, 0x20, 0x57, 0x48, 0x32
        57 48 32
   6B15 20 44 42 20 30 0D  3157                         .db 0x20, 0x44, 0x42, 0x20, 0x30, 0xD, 0x11, 0x31, 0x33
        11 31 33
   6B1E 39 32 20 44 44 45  3158                         .db 0x39, 0x32, 0x20, 0x44, 0x44, 0x45, 0x4D, 0x4F, 0x20
        4D 4F 20
   6B27 44 42 20 30 0D 11  3159                         .db 0x44, 0x42, 0x20, 0x30, 0xD, 0x11, 0x31, 0x33, 0x39
        31 33 39
   6B30 33 20 42 54 59 50  3160                         .db 0x33, 0x20, 0x42, 0x54, 0x59, 0x50, 0x45, 0x20, 0x44
        45 20 44
   6B39 42 20 30 0D 11 31  3161                         .db 0x42, 0x20, 0x30, 0xD, 0x11, 0x31, 0x33, 0x39, 0x34
        33 39 34
   6B42 20 4E 53 48 54 53  3162                         .db 0x20, 0x4E, 0x53, 0x48, 0x54, 0x53, 0x20, 0x44, 0x57
        20 44 57
   6B4B 20 30 0D 11 31 33  3163                         .db 0x20, 0x30, 0xD, 0x11, 0x31, 0x33, 0x39, 0x35, 0x20
        39 35 20
   6B54 4E 48 49 54 53 20  3164                         .db 0x4E, 0x48, 0x49, 0x54, 0x53, 0x20, 0x44, 0x57, 0x20
        44 57 20
   6B5D 30 0D 27 31 33 39  3165                         .db 0x30, 0xD, 0x27, 0x31, 0x33, 0x39, 0x36, 0x20, 0x58
        36 20 58
   6B66 50 4C 4F 31 20 44  3166                         .db 0x50, 0x4C, 0x4F, 0x31, 0x20, 0x44, 0x42, 0x20, 0x30
        42 20 30
   6B6F 32 30 48 2C 27 2A  3167                         .db 0x32, 0x30, 0x48, 0x2C, 0x27, 0x2A, 0x27, 0x2C, 0x31
        27 2C 31
   6B78 39 31 2C 27 2A 27  3168                         .db 0x39, 0x31, 0x2C, 0x27, 0x2A, 0x27, 0x2C, 0x30, 0x32
        2C 30 32
   6B81 30 48 2C 30 0D 20  3169                         .db 0x30, 0x48, 0x2C, 0x30, 0xD, 0x20, 0x31, 0x33, 0x39
        31 33 39
   6B8A 37 20 20 44 42 20  3170                         .db 0x37, 0x20, 0x20, 0x44, 0x42, 0x20, 0x27, 0x2A, 0x27
        27 2A 27
                           3171 ; -- end of quadrant table
ASxxxx Assembler V05.00  (Zilog Z80 / Hitachi HD64180), page 65.
Hexidecimal [16-Bits]



   6B93 3F 3F 3F 3F 3F 3F  3172                         .db 0x3F, 0x3F, 0x3F, 0x3F, 0x3F, 0x3F
   6B99 20                 3173 pwr_hypr_ion:           .db 0x20
   6B9A 20                 3174 pwr_lr_sensor:          .db 0x20
   6B9B 10                 3175 pwr_sr_sensor:          .db 0x10
   6B9C 20                 3176 pwr_deflectors:         .db 0x20
   6B9D 09                 3177 pwr_masers:             .db 9
   6B9E 11                 3178 pwr_trt_missl:          .db 0x11
   6B9F C0 FF              3179 dir_addr_delta_tbl:     .dw 0xFFC0
   6BA1 C2 FF              3180                         .dw 0xFFC2
   6BA3 02 00              3181                         .dw 2
   6BA5 42 00              3182                         .dw 0x42
   6BA7 40 00              3183                         .dw 0x40
   6BA9 3E 00              3184                         .dw 0x3E
   6BAB FE FF              3185                         .dw 0xFFFE
   6BAD BE FF              3186                         .dw 0xFFBE
   6BAF 00                 3187 game_delay_factor:      .db 0                                   ; (0-9)x4+16
   6BB0 00                 3188 time_to_jovian_fire:    .db 0
   6BB1 00 00              3189 tmp_jovian_tbl_ptr:     .dw 0
                           3190 ; table of jovian vessel video addresses
                           3191 ; - maximum of 4 vessels, zero-terminated
   6BB3 48 2C              3192 jovian_tbl:             .dw 0x2C48
   6BB5 27 2A              3193                         .dw 0x2A27
   6BB7 27 2C              3194                         .dw 0x2C27
   6BB9 31 39              3195                         .dw 0x3931
   6BBB 31 2C              3196                         .dw 0x2C31
   6BBD 99                 3197 power_avail:            .db 0x99
   6BBE 10                 3198 triton_misls:           .db 0x10
   6BBF 03                 3199 unused_69BA:            .db 3
   6BC0 20 20 20 20 20 20  3200 aJovian_Officer:        .ascii '                     '
        20 20 20 20 20 20
        20 20 20 20 20 20
        20 20 20
   6BD5 00                 3201                         .db 0
   6BD6 20 20 20 20 20 20  3202                         .ascii '        '
        20 20
   6BDE 98 83 83 83 A4     3203                         .db 0x98, 0x83, 0x83, 0x83, 0xA4
   6BE3 20 20 20 20 20 20  3204                         .ascii '        '
        20 20
   6BEB 00                 3205                         .db 0
   6BEC 20 20 20 20 20 20  3206                         .ascii '       '
        20
   6BF3 96 A0              3207                         .db 0x96, 0xA0
   6BF5 20 20 20           3208                         .ascii '   '
   6BF8 90 A9              3209                         .db 0x90, 0xA9
   6BFA 20 20 20 20 20 20  3210                         .ascii '       '
        20
   6C01 00                 3211                         .db 0
   6C02 20 20 20 20 20 20  3212                         .ascii '       '
        20
   6C09 95                 3213                         .db 0x95
   6C0A 20                 3214                         .ascii ' '
   6C0B 89                 3215                         .db 0x89
   6C0C 20                 3216                         .ascii ' '
   6C0D 86                 3217                         .db 0x86
   6C0E 20                 3218                         .ascii ' '
ASxxxx Assembler V05.00  (Zilog Z80 / Hitachi HD64180), page 66.
Hexidecimal [16-Bits]



   6C0F AA                 3219                         .db 0xAA
   6C10 20 20 20 20 20 20  3220                         .ascii '       '
        20
   6C17 00                 3221                         .db 0
   6C18 20 20 20 20 20 20  3222                         .ascii '       '
        20
   6C1F 95 B7 95           3223                         .db 0x95, 0xB7, 0x95
   6C22 20                 3224                         .ascii ' '
   6C23 AA BB AA           3225                         .db 0xAA, 0xBB, 0xAA
   6C26 20 20 20 20 20 20  3226                         .ascii '       '
        20
   6C2D 00                 3227                         .db 0
   6C2E 20 20 20 20 20 20  3228                         .ascii '       '
        20
   6C35 95                 3229                         .db 0x95
   6C36 20 20 40 20 20     3230                         .ascii '  @  '
   6C3B AA                 3231                         .db 0xAA
   6C3C 20 20 20 20 20 20  3232                         .ascii '       '
        20
   6C43 00                 3233                         .db 0
   6C44 20 20 20 20 20 20  3234                         .ascii '       '
        20
   6C4B B5 B0              3235                         .db 0xB5, 0xB0
   6C4D 20 4F 20           3236                         .ascii ' O '
   6C50 B0 BA              3237                         .db 0xB0, 0xBA
   6C52 20 20 20 20 20 20  3238                         .ascii '       '
        20
   6C59 00                 3239                         .db 0
   6C5A 20 20 20 20 20 20  3240                         .ascii '       '
        20
   6C61 86 81 8C 8C 8C 82  3241                         .db 0x86, 0x81, 0x8C, 0x8C, 0x8C, 0x82, 0x89
        89
   6C68 20 20 20 20 20 20  3242                         .ascii '       '
        20
   6C6F 00                 3243                         .db 0
   6C70 20 20 20 20 20 20  3244                         .ascii '      '
   6C76 86                 3245                         .db 0x86
   6C77 20 20              3246                         .ascii '  '
   6C79 89                 3247                         .db 0x89
   6C7A 20                 3248                         .ascii ' '
   6C7B 86                 3249                         .db 0x86
   6C7C 20 20              3250                         .ascii '  '
   6C7E 89                 3251                         .db 0x89
   6C7F 20 20 20 20 20 20  3252                         .ascii '      '
   6C85 00                 3253                         .db 0
   6C86 20 20 20 20 20     3254                         .ascii '     '
   6C8B 86                 3255                         .db 0x86
   6C8C 20 21 3E 3E 20 3C  3256                         .ascii ' !>> <<! '
        3C 21 20
   6C95 89                 3257                         .db 0x89
   6C96 20 20 20 20 20     3258                         .ascii '     '
   6C9B 00                 3259                         .db 0
   6C9C 20 20 20 20 20 20  3260 aHQ_Officer:            .ascii '                     '
        20 20 20 20 20 20
        20 20 20 20 20 20
ASxxxx Assembler V05.00  (Zilog Z80 / Hitachi HD64180), page 67.
Hexidecimal [16-Bits]



        20 20 20
   6CB1 00                 3261                         .db 0
   6CB2 20 20 20 20 20 20  3262                         .ascii '        '
        20 20
   6CBA B0 8C 8F 8C B0     3263                         .db 0xB0, 0x8C, 0x8F, 0x8C, 0xB0
   6CBF 20 20 20 20 20 20  3264                         .ascii '        '
        20 20
   6CC7 00                 3265                         .db 0
   6CC8 20 20 20 20 20     3266                         .ascii '     '
   6CCD 83 83 9F 83 83 83  3267                         .db 0x83, 0x83, 0x9F, 0x83, 0x83, 0x83, 0x83, 0x83, 0xAF
        83 83 AF
   6CD6 83 83              3268                         .db 0x83, 0x83
   6CD8 20 20 20 20 20     3269                         .ascii '     '
   6CDD 00                 3270                         .db 0
   6CDE 20 20 20 20 20 20  3271                         .ascii '       '
        20
   6CE5 95 B7 95           3272                         .db 0x95, 0xB7, 0x95
   6CE8 20                 3273                         .ascii ' '
   6CE9 AA BB AA           3274                         .db 0xAA, 0xBB, 0xAA
   6CEC 20 20 20 20 20 20  3275                         .ascii '       '
        20
   6CF3 00                 3276                         .db 0
   6CF4 20 20 20 20 20 20  3277                         .ascii '       '
        20
   6CFB 95                 3278                         .db 0x95
   6CFC 20 20              3279                         .ascii '  '
   6CFE B0                 3280                         .db 0xB0
   6CFF 20 20              3281                         .ascii '  '
   6D01 AA                 3282                         .db 0xAA
   6D02 20 20 20 20 20 20  3283                         .ascii '       '
        20
   6D09 00                 3284                         .db 0
   6D0A 20 20 20 20 20 20  3285                         .ascii '       '
        20
   6D11 95                 3286                         .db 0x95
   6D12 20                 3287                         .ascii ' '
   6D13 8C 8F 8C           3288                         .db 0x8C, 0x8F, 0x8C
   6D16 20                 3289                         .ascii ' '
   6D17 AA                 3290                         .db 0xAA
   6D18 20 20 20 20 20 20  3291                         .ascii '       '
        20
   6D1F 00                 3292                         .db 0
   6D20 20 20 20 20 20 20  3293                         .ascii '       '
        20
   6D27 A5                 3294                         .db 0xA5
   6D28 20 20 4F 20 20     3295                         .ascii '  O  '
   6D2D 9A                 3296                         .db 0x9A
   6D2E 20 20 20 20 20 20  3297                         .ascii '       '
        20
   6D35 00                 3298                         .db 0
   6D36 20 20 20 20 20 20  3299                         .ascii '        '
        20 20
   6D3E 89 B0 B0 B0 86     3300                         .db 0x89, 0xB0, 0xB0, 0xB0, 0x86
   6D43 20 20 20 20 20 20  3301                         .ascii '        '
        20 20
ASxxxx Assembler V05.00  (Zilog Z80 / Hitachi HD64180), page 68.
Hexidecimal [16-Bits]



   6D4B 00                 3302                         .db 0
   6D4C 20 20 20 20 28 28  3303                         .ascii '    ((** < > **))    '
        2A 2A 20 3C 20 3E
        20 2A 2A 29 29 20
        20 20 20
   6D61 00                 3304                         .db 0
   6D62 20 20 20 20 28 28  3305                         .ascii '    ((  !! !!  ))    '
        20 20 21 21 20 21
        21 20 20 29 29 20
        20 20 20
   6D77 00                 3306                         .db 0
                     0000  3307 .ifndef BUILD_OPT_MIXED_CASE
                           3308 aTitle:                 .ascii '  INVASION FORCE  -------  RADIO SHACK '
                           3309                         .db 0
                           3310 aMainDisplay:           .ascii ' L-R SENSOR  %-MINE   ------RADIO SHACK------ [ USS HEPHAESTUS ['
                           3311                         .ascii ' 000 000 000 [-HEPHS 0I                     I STAR-TIME   300200'
                           3312                         .ascii ' ----------- 0-SSTN  1I                     I CONDITION    STDBY'
                           3313                         .ascii ' 000 000 000 @-JCC   2I                     I QUADRANT      0-0 '
                           3314                         .ascii ' ----------- &-JBC   3I                     I SECTOR        0-0 '
                           3315                         .ascii ' 000 000 000 X-UNKN  4I                     I TRITON MISLS   10 '
                           3316                         .ascii '  PWR DIST   %       5I                     I POWER AVAIL    99%'
                           3317                         .ascii '  HYPR&ION   20      6I                     I JOVIANS LEFT   000'
                           3318                         .ascii '  LR SENSOR  10      7I                     I ANTIMATTER PODS 03'
                           3319                         .ascii '  SR SENSOR  20      8I                     I          7  0  1  '
                           3320                         .ascii '  DEFLECTORS 20      9I                     I   SCDM:  6  -  2  '
                           3321                         .ascii '  MASERS     09       I---------------------I          5  4  3  '
                           3322                         .ascii '  TRT MISSL  11       I 0 1 2 3 4 5 6 7 8 9 I  COMMAND:         '
                     0001  3323 .else
   6D78 20 20 49 4E 56 41  3324 aTitle:                 .ascii '  INVASION FORCE+  -------  RADIO SHACK '
        53 49 4F 4E 20 46
        4F 52 43 45 2B 20
        20 2D 2D 2D 2D 2D
        2D 2D 20 20 52 41
        44 49 4F 20 53 48
        41 43 4B 20
   6DA0 00                 3325                         .db 0
   6DA1 20 4C 2D 52 20 53  3326 aMainDisplay:           .ascii ' L-R Sensor  %-Mine   ------RADIO SHACK------ [ USS Hephaestus ['
        65 6E 73 6F 72 20
        20 25 2D 4D 69 6E
        65 20 20 20 2D 2D
        2D 2D 2D 2D 52 41
        44 49 4F 20 53 48
        41 43 4B 2D 2D 2D
        2D 2D 2D 20 5B 20
        55 53 53 20 48 65
        70 68 61 65 73 74
        75 73 20 5B
   6DE1 20 30 30 30 20 30  3327                         .ascii ' 000 000 000 [-Hephs 0I                     I Star-Time   300200'
        30 30 20 30 30 30
        20 5B 2D 48 65 70
        68 73 20 30 49 20
        20 20 20 20 20 20
        20 20 20 20 20 20
        20 20 20 20 20 20
        20 20 49 20 53 74
ASxxxx Assembler V05.00  (Zilog Z80 / Hitachi HD64180), page 69.
Hexidecimal [16-Bits]



        61 72 2D 54 69 6D
        65 20 20 20 33 30
        30 32 30 30
   6E21 20 2D 2D 2D 2D 2D  3328                         .ascii ' ----------- 0-SStn  1I                     I Condition    STDBY'
        2D 2D 2D 2D 2D 2D
        20 30 2D 53 53 74
        6E 20 20 31 49 20
        20 20 20 20 20 20
        20 20 20 20 20 20
        20 20 20 20 20 20
        20 20 49 20 43 6F
        6E 64 69 74 69 6F
        6E 20 20 20 20 53
        54 44 42 59
   6E61 20 30 30 30 20 30  3329                         .ascii ' 000 000 000 @-JCC   2I                     I Quadrant      0-0 '
        30 30 20 30 30 30
        20 40 2D 4A 43 43
        20 20 20 32 49 20
        20 20 20 20 20 20
        20 20 20 20 20 20
        20 20 20 20 20 20
        20 20 49 20 51 75
        61 64 72 61 6E 74
        20 20 20 20 20 20
        30 2D 30 20
   6EA1 20 2D 2D 2D 2D 2D  3330                         .ascii ' ----------- &-JBC   3I                     I Sector        0-0 '
        2D 2D 2D 2D 2D 2D
        20 26 2D 4A 42 43
        20 20 20 33 49 20
        20 20 20 20 20 20
        20 20 20 20 20 20
        20 20 20 20 20 20
        20 20 49 20 53 65
        63 74 6F 72 20 20
        20 20 20 20 20 20
        30 2D 30 20
   6EE1 20 30 30 30 20 30  3331                         .ascii ' 000 000 000 X-Unkn  4I                     I Triton Misls   10 '
        30 30 20 30 30 30
        20 58 2D 55 6E 6B
        6E 20 20 34 49 20
        20 20 20 20 20 20
        20 20 20 20 20 20
        20 20 20 20 20 20
        20 20 49 20 54 72
        69 74 6F 6E 20 4D
        69 73 6C 73 20 20
        20 31 30 20
   6F21 20 20 50 77 72 20  3332                         .ascii '  Pwr Dist   %       5I                     I Power Avail    99%'
        44 69 73 74 20 20
        20 25 20 20 20 20
        20 20 20 35 49 20
        20 20 20 20 20 20
        20 20 20 20 20 20
        20 20 20 20 20 20
        20 20 49 20 50 6F
ASxxxx Assembler V05.00  (Zilog Z80 / Hitachi HD64180), page 70.
Hexidecimal [16-Bits]



        77 65 72 20 41 76
        61 69 6C 20 20 20
        20 39 39 25
   6F61 20 20 48 79 70 72  3333                         .ascii '  Hypr&Ion   20      6I                     I Jovians Left   000'
        26 49 6F 6E 20 20
        20 32 30 20 20 20
        20 20 20 36 49 20
        20 20 20 20 20 20
        20 20 20 20 20 20
        20 20 20 20 20 20
        20 20 49 20 4A 6F
        76 69 61 6E 73 20
        4C 65 66 74 20 20
        20 30 30 30
   6FA1 20 20 4C 52 20 53  3334                         .ascii '  LR Sensor  10      7I                     I Antimatter Pods 03'
        65 6E 73 6F 72 20
        20 31 30 20 20 20
        20 20 20 37 49 20
        20 20 20 20 20 20
        20 20 20 20 20 20
        20 20 20 20 20 20
        20 20 49 20 41 6E
        74 69 6D 61 74 74
        65 72 20 50 6F 64
        73 20 30 33
   6FE1 20 20 53 52 20 53  3335                         .ascii '  SR Sensor  20      8I                     I          7  0  1  '
        65 6E 73 6F 72 20
        20 32 30 20 20 20
        20 20 20 38 49 20
        20 20 20 20 20 20
        20 20 20 20 20 20
        20 20 20 20 20 20
        20 20 49 20 20 20
        20 20 20 20 20 20
        20 37 20 20 30 20
        20 31 20 20
   7021 20 20 44 65 66 6C  3336                         .ascii '  Deflectors 20      9I                     I   SCDM:  6  -  2  '
        65 63 74 6F 72 73
        20 32 30 20 20 20
        20 20 20 39 49 20
        20 20 20 20 20 20
        20 20 20 20 20 20
        20 20 20 20 20 20
        20 20 49 20 20 20
        53 43 44 4D 3A 20
        20 36 20 20 2D 20
        20 32 20 20
   7061 20 20 4D 61 73 65  3337                         .ascii '  Masers     09       I---------------------I          5  4  3  '
        72 73 20 20 20 20
        20 30 39 20 20 20
        20 20 20 20 49 2D
        2D 2D 2D 2D 2D 2D
        2D 2D 2D 2D 2D 2D
        2D 2D 2D 2D 2D 2D
        2D 2D 49 20 20 20
ASxxxx Assembler V05.00  (Zilog Z80 / Hitachi HD64180), page 71.
Hexidecimal [16-Bits]



        20 20 20 20 20 20
        20 35 20 20 34 20
        20 33 20 20
   70A1 20 20 54 72 74 20  3338                         .ascii '  Trt Missl  11       I 0 1 2 3 4 5 6 7 8 9 I  Command:         '
        4D 69 73 73 6C 20
        20 31 31 20 20 20
        20 20 20 20 49 20
        30 20 31 20 32 20
        33 20 34 20 35 20
        36 20 37 20 38 20
        39 20 49 20 20 43
        6F 6D 6D 61 6E 64
        3A 20 20 20 20 20
        20 20 20 20
                           3339 .endif
   70E1 20 20 20 20 20 20  3340                         .ascii '                                                                '
        20 20 20 20 20 20
        20 20 20 20 20 20
        20 20 20 20 20 20
        20 20 20 20 20 20
        20 20 20 20 20 20
        20 20 20 20 20 20
        20 20 20 20 20 20
        20 20 20 20 20 20
        20 20 20 20 20 20
        20 20 20 20
   7121 20 20 20 20 20 20  3341                         .ascii '                                                                '
        20 20 20 20 20 20
        20 20 20 20 20 20
        20 20 20 20 20 20
        20 20 20 20 20 20
        20 20 20 20 20 20
        20 20 20 20 20 20
        20 20 20 20 20 20
        20 20 20 20 20 20
        20 20 20 20 20 20
        20 20 20 20
   7161 20 20 20 20 20 20  3342                         .ascii '                                                                '
        20 20 20 20 20 20
        20 20 20 20 20 20
        20 20 20 20 20 20
        20 20 20 20 20 20
        20 20 20 20 20 20
        20 20 20 20 20 20
        20 20 20 20 20 20
        20 20 20 20 20 20
        20 20 20 20 20 20
        20 20 20 20
                           3343 
                           3344 ; $45 bytes cleared at startup
                           3345 
                           3346 ; - antimatter pod table
                           3347 ;   - 3x 6-byte entries
                           3348 ;     +$0 = pod status (0=used, 1=launched, 2=exploded)
                           3349 ;     +$1/2 = pod video address delta
ASxxxx Assembler V05.00  (Zilog Z80 / Hitachi HD64180), page 72.
Hexidecimal [16-Bits]



                           3350 ;     +$3/4 = pod video address
                           3351 ;     +$5 = pod speed countdown
   71A1 23 C3 BD 6F 01 CB  3352 antimatter_pod_tbl:     .db 0x23, 0xC3, 0xBD, 0x6F, 1, 0xCB
   71A7 21 7E FE C3 C2 E0  3353                         .db 0x21, 0x7E, 0xFE, 0xC3, 0xC2, 0xE0
   71AD 6F 2B 7E B7 CA BD  3354                         .db 0x6F, 0x2B, 0x7E, 0xB7, 0xCA, 0xBD
                           3355 ;
   71B3 6F                 3356 eot:                    .db 0x6F
   71B4 FE                 3357 always_zero:            .db 0xFE
   71B5 7F                 3358 delay_duty_cycle_i:     .db 0x7F
   71B6 C2                 3359 power_overflow:         .db 0xC2                                ; $00=OK, $FF=overflow
   71B7 E0                 3360 cmd_flag:               .db 0xE0                                ; 00=new, $FF=none
   71B8 6F                 3361 cmd_len:                .db 0x6F
   71B9 2E                 3362 hyperdrive_disabled:    .db 0x2E                                ; $00=OK, $FF=disabled
   71BA 1F                 3363 maser_fired:            .db 0x1F                                ; $00=NO, $FF=fired
   71BB 22                 3364 computer_malfunction:   .db 0x22                                ; $00=OK, $FF=malfunctioned
   71BC 06                 3365 jovian_time_frozen:     .db 6                                   ; $00=normal, $FF=frozen
   71BD 70                 3366 experimental_ray_disabled:.db 0x70                              ; $00=OK, $FF=disabled
   71BE 2E                 3367 disable_pod_update:     .db 0x2E                                ; $00=OK, $XX=disabled
   71BF 04                 3368 critical:               .db 4                                   ; $00=OK, $01=SELF-DESTRUCT, $FF=EXPLODING
   71C0 22                 3369                         .db 0x22 ; "
   71C1 14                 3370                         .db 0x14
   71C2 68                 3371                         .db 0x68 ; h
                           3372 ; looks like this had some debug code
                           3373 ; hooked at $7036
   71C3 21                 3374 unk_6FBD:               .db 0x21 ; !
   71C4 00                 3375                         .db    0
   71C5 00                 3376                         .db    0
   71C6 0A                 3377                         .db  0xA
   71C7 22                 3378                         .db 0x22 ; "
   71C8 00                 3379                         .db    0
   71C9 00                 3380                         .db    0
   71CA 22                 3381                         .db 0x22 ; "
   71CB 02                 3382                         .db    2
   71CC 00                 3383                         .db    0
   71CD 21                 3384                         .db 0x21 ; !
   71CE 73                 3385                         .db 0x73 ; s
   71CF 6B                 3386                         .db 0x6B ; k
   71D0 11                 3387                         .db 0x11
   71D1 42                 3388                         .db 0x42 ; B
   71D2 70                 3389                         .db 0x70 ; p
   71D3 C3                 3390                         .db 0xC3 ; √
   71D4 01                 3391                         .db    1
   71D5 50                 3392                         .db 0x50 ; P
   71D6 91                 3393                         .db 0x91 ; ë
   71D7 96                 3394                         .db 0x96 ; ñ
   71D8 E3                 3395                         .db 0xE3 ; „
   71D9 C2                 3396                         .db 0xC2 ; ¬
   71DA 0E                 3397                         .db  0xE
   71DB 70                 3398                         .db 0x70 ; p
   71DC E3                 3399                         .db 0xE3 ; „
   71DD 23                 3400                         .db 0x23 ; #
   71DE 05                 3401                         .db    5
   71DF 13                 3402                         .db 0x13
   71E0 C2                 3403                         .db 0xC2 ; ¬
   71E1 CD                 3404                         .db 0xCD ; Õ
ASxxxx Assembler V05.00  (Zilog Z80 / Hitachi HD64180), page 73.
Hexidecimal [16-Bits]



   71E2 6F                 3405                         .db 0x6F ; o
   71E3 C3                 3406                         .db 0xC3 ; √
   71E4 01                 3407                         .db    1
   71E5 50                 3408                         .db 0x50 ; P
                           3409 ;
                           3410 ; --- end of area cleared at startup ---
                           3411 ;
   71E6 3A                 3412                         .db 0x3A ; :
   71E7 00                 3413                         .db    0
   71E8 E0                 3414                         .db 0xE0 ; ‡
   71E9 B7                 3415                         .db 0xB7 ; ∑
   71EA C2                 3416                         .db 0xC2 ; ¬
   71EB 1C                 3417                         .db 0x1C
   71EC 70                 3418                         .db 0x70 ; p
   71ED 3A                 3419                         .db 0x3A ; :
   71EE 01                 3420                         .db    1
   71EF E0                 3421                         .db 0xE0 ; ‡
   71F0 FE                 3422                         .db 0xFE ; ˛
   71F1 C3                 3423                         .db 0xC3 ; √
   71F2 C2                 3424                         .db 0xC2 ; ¬
   71F3 1C                 3425                         .db 0x1C
   71F4 70                 3426                         .db 0x70 ; p
   71F5 3E                 3427                         .db 0x3E ; >
   71F6 CD                 3428                         .db 0xCD ; Õ
   71F7 32                 3429                         .db 0x32 ; 2
   71F8 B6                 3430                         .db 0xB6 ; ∂
   71F9 51                 3431                         .db 0x51 ; Q
   71FA 21                 3432                         .db 0x21 ; !
   71FB A4                 3433                         .db 0xA4 ; §
   71FC D0                 3434                         .db 0xD0 ; –
   71FD 22                 3435                         .db 0x22 ; "
   71FE 06                 3436                         .db    6
   71FF 70                 3437                         .db 0x70 ; p
   7200 21                 3438                         .db 0x21 ; !
   7201 60 E0              3439 STACK_WATERMARK:        .dw 0xE060
   7203 22                 3440                         .db 0x22 ; "
   7204 14                 3441                         .db 0x14
   7205 68                 3442                         .db 0x68 ; h
   7206 21                 3443                         .db 0x21 ; !
   7207 CC                 3444                         .db 0xCC ; Ã
   7208 D0                 3445                         .db 0xD0 ; –
   7209 22                 3446                         .db 0x22 ; "
   720A 08                 3447                         .db    8
   720B 70                 3448                         .db 0x70 ; p
   720C 3E                 3449                         .db 0x3E ; >
   720D CD                 3450                         .db 0xCD ; Õ
   720E 32                 3451                         .db 0x32 ; 2
   720F 0B                 3452                         .db  0xB
   7210 70                 3453                         .db 0x70 ; p
   7211 C3                 3454                         .db 0xC3 ; √
   7212 BD                 3455                         .db 0xBD ; Ω
   7213 6F                 3456                         .db 0x6F ; o
   7214 2A                 3457                         .db 0x2A ; *
   7215 2E                 3458                         .db 0x2E ; .
   7216 70                 3459                         .db 0x70 ; p
ASxxxx Assembler V05.00  (Zilog Z80 / Hitachi HD64180), page 74.
Hexidecimal [16-Bits]



   7217 77                 3460                         .db 0x77 ; w
   7218 23                 3461                         .db 0x23 ; #
   7219 1A                 3462                         .db 0x1A
   721A 77                 3463                         .db 0x77 ; w
   721B 23                 3464                         .db 0x23 ; #
   721C 22                 3465                         .db 0x22 ; "
   721D 2E                 3466                         .db 0x2E ; .
   721E 70                 3467                         .db 0x70 ; p
   721F C3                 3468                         .db 0xC3 ; √
   7220 D6                 3469                         .db 0xD6 ; ÷
   7221 6F                 3470                         .db 0x6F ; o
   7222 21                 3471                         .db 0x21 ; !
   7223 39                 3472                         .db 0x39 ; 9
   7224 70                 3473                         .db 0x70 ; p
   7225 11                 3474                         .db 0x11
   7226 B6                 3475                         .db 0xB6 ; ∂
   7227 51                 3476                         .db 0x51 ; Q
                           3477 ; ---------------------------------------------------------------------------
                           3478 
   7228                    3479 loc_7022:
   7228 7E            [ 6] 3480                         ld      a, (hl)
   7229 FE FF         [ 6] 3481                         cp      #0xFF
   722B CA 36 72      [ 9] 3482                         jp      Z, loc_7030
   722E 12            [ 7] 3483                         ld      (de), a
   722F 23            [ 4] 3484                         inc     hl
   7230 13            [ 4] 3485                         inc     de
   7231 C3 28 72      [ 9] 3486                         jp      loc_7022
                           3487 ; ---------------------------------------------------------------------------
   7234 0C                 3488                         .db  0xC
   7235 5B                 3489                         .db 0x5B ; [
                           3490 ; ---------------------------------------------------------------------------
                           3491 
   7236                    3492 loc_7030:
   7236 21 03 00      [ 9] 3493                         ld      hl, #3
   7239 22 19 6A      [16] 3494                         ld      (cmd_l_vector), hl              ; hook "L" cmd
   723C C3 C3 71      [ 9] 3495                         jp      unk_6FBD                        ; debug code???
                           3496 ; ---------------------------------------------------------------------------
   723F DB 00 00 E6 40 C8  3497                         .db 0xDB, 0, 0, 0xE6, 0x40, 0xC8, 0xDB, 1, 0xFF, 0, 0x27
        DB 01 FF 00 27
   724A 5A 2E 2C 5A 27 0D  3498                         .db 0x5A, 0x2E, 0x2C, 0x5A, 0x27, 0xD, 0xD, 0x31, 0x34, 0x37
        0D 31 34 37
   7254 31 20 20 44 53 20  3499                         .db 0x31, 0x20, 0x20, 0x44, 0x53, 0x20, 0x33, 0x32, 0xD
        33 32 0D
   725D 11 31 34 37 32 20  3500                         .db 0x11, 0x31, 0x34, 0x37, 0x32, 0x20, 0x53, 0x54, 0x41
        53 54 41
   7266 43 4B 20 44 42 20  3501                         .db 0x43, 0x4B, 0x20, 0x44, 0x42, 0x20, 0x30, 0xD, 1, 0x20
        30 0D 01 20
   7270 33 38 0D 34 31 32  3502                         .db 0x33, 0x38, 0xD, 0x34, 0x31, 0x32, 0x38, 0x30, 0x20
        38 30 20
   7279 20 41 53 43 20 2F  3503                         .db 0x20, 0x41, 0x53, 0x43, 0x20, 0x2F, 0x41, 0x52, 0x45
        41 52 45
   7282 20 53 55 43 48 20  3504                         .db 0x20, 0x53, 0x55, 0x43, 0x48, 0x20, 0x51, 0x55, 0x45
        51 55 45
   728B 53 54 49 4F 4E 53  3505                         .db 0x53, 0x54, 0x49, 0x4F, 0x4E, 0x53, 0x20, 0x4F, 0x4E
        20 4F 4E
ASxxxx Assembler V05.00  (Zilog Z80 / Hitachi HD64180), page 75.
Hexidecimal [16-Bits]



   7294 20 59 4F 55 52 20  3506                         .db 0x20, 0x59, 0x4F, 0x55, 0x52, 0x20, 0x4D, 0x49, 0x4E
        4D 49 4E
   729D 44 20 4F 46 54 45  3507                         .db 0x44, 0x20, 0x4F, 0x46, 0x54, 0x45, 0x4E, 0x3F, 0x2F
        4E 3F 2F
   72A6 0D 0D 31 32 38 31  3508                         .db 0xD, 0xD, 0x31, 0x32, 0x38, 0x31, 0x20, 0x20, 0x44, 0x42
        20 20 44 42
   72B0 20 34 30 0D 36 31  3509                         .db 0x20, 0x34, 0x30, 0xD, 0x36, 0x31, 0x32, 0x38, 0x32
        32 38 32
   72B9 20 20 41 53 43 20  3510                         .db 0x20, 0x20, 0x41, 0x53, 0x43, 0x20, 0x2F, 0x57, 0x48
        2F 57 48
   72C2 41 54 20 49 53 20  3511                         .db 0x41, 0x54, 0x20, 0x49, 0x53, 0x20, 0x49, 0x54, 0x20
        49 54 20
   72CB 54 48 41 54 20 59  3512                         .db 0x54, 0x48, 0x41, 0x54, 0x20, 0x59, 0x4F, 0x55, 0x20
        4F 55 20
   72D4 52 45 00 00 00 00  3513                         .db 0x52, 0x45, 0, 0, 0, 0, 0, 0, 0, 0, 0, 0, 0, 0, 0, 0
        00 00 00 00 00 00
        00 00 00 00
   72E4 00 00 00 00 00 00  3514                         .db 0, 0, 0, 0, 0, 0, 0, 0, 0, 0, 0, 0, 0, 0, 0, 0, 0, 0
        00 00 00 00 00 00
        00 00 00 00 00 00
   72F6 00 00 00 00 00 00  3515                         .db 0, 0, 0, 0, 0, 0, 0, 0, 0, 0, 0, 0, 0, 0, 0, 0, 0xF1
        00 00 00 00 00 00
        00 00 00 00 F1
                           3516 ; end of 'CODE'
                           3517 
                           3518 ; end of file
