Archive member included because of file (symbol)

e:/altera/10.1/nios2eds/bin/gnu/h-i686-mingw32/bin/../lib/gcc/nios2-elf/4.1.2/../../../../nios2-elf/lib\libstdc++.a(eh_personality.o)
                              obj/vip_helper.o (__gxx_personality_v0)
e:/altera/10.1/nios2eds/bin/gnu/h-i686-mingw32/bin/../lib/gcc/nios2-elf/4.1.2/../../../../nios2-elf/lib\libstdc++.a(eh_globals.o)
                              e:/altera/10.1/nios2eds/bin/gnu/h-i686-mingw32/bin/../lib/gcc/nios2-elf/4.1.2/../../../../nios2-elf/lib\libstdc++.a(eh_personality.o) (__cxa_get_globals_fast)
e:/altera/10.1/nios2eds/bin/gnu/h-i686-mingw32/bin/../lib/gcc/nios2-elf/4.1.2/../../../../nios2-elf/lib\libstdc++.a(eh_throw.o)
                              e:/altera/10.1/nios2eds/bin/gnu/h-i686-mingw32/bin/../lib/gcc/nios2-elf/4.1.2/../../../../nios2-elf/lib\libstdc++.a(eh_personality.o) (__cxa_rethrow)
e:/altera/10.1/nios2eds/bin/gnu/h-i686-mingw32/bin/../lib/gcc/nios2-elf/4.1.2/../../../../nios2-elf/lib\libstdc++.a(eh_call.o)
                              e:/altera/10.1/nios2eds/bin/gnu/h-i686-mingw32/bin/../lib/gcc/nios2-elf/4.1.2/../../../../nios2-elf/lib\libstdc++.a(eh_personality.o) (__cxa_call_terminate)
e:/altera/10.1/nios2eds/bin/gnu/h-i686-mingw32/bin/../lib/gcc/nios2-elf/4.1.2/../../../../nios2-elf/lib\libstdc++.a(eh_catch.o)
                              e:/altera/10.1/nios2eds/bin/gnu/h-i686-mingw32/bin/../lib/gcc/nios2-elf/4.1.2/../../../../nios2-elf/lib\libstdc++.a(eh_personality.o) (__cxa_end_catch)
e:/altera/10.1/nios2eds/bin/gnu/h-i686-mingw32/bin/../lib/gcc/nios2-elf/4.1.2/../../../../nios2-elf/lib\libstdc++.a(eh_exception.o)
                              e:/altera/10.1/nios2eds/bin/gnu/h-i686-mingw32/bin/../lib/gcc/nios2-elf/4.1.2/../../../../nios2-elf/lib\libstdc++.a(eh_personality.o) (vtable for std::bad_exception)
e:/altera/10.1/nios2eds/bin/gnu/h-i686-mingw32/bin/../lib/gcc/nios2-elf/4.1.2/../../../../nios2-elf/lib\libstdc++.a(eh_terminate.o)
                              e:/altera/10.1/nios2eds/bin/gnu/h-i686-mingw32/bin/../lib/gcc/nios2-elf/4.1.2/../../../../nios2-elf/lib\libstdc++.a(eh_personality.o) (__cxxabiv1::__terminate(void (*)()))
e:/altera/10.1/nios2eds/bin/gnu/h-i686-mingw32/bin/../lib/gcc/nios2-elf/4.1.2/../../../../nios2-elf/lib\libstdc++.a(si_class_type_info.o)
                              e:/altera/10.1/nios2eds/bin/gnu/h-i686-mingw32/bin/../lib/gcc/nios2-elf/4.1.2/../../../../nios2-elf/lib\libstdc++.a(eh_exception.o) (vtable for __cxxabiv1::__si_class_type_info)
e:/altera/10.1/nios2eds/bin/gnu/h-i686-mingw32/bin/../lib/gcc/nios2-elf/4.1.2/../../../../nios2-elf/lib\libstdc++.a(eh_alloc.o)
                              e:/altera/10.1/nios2eds/bin/gnu/h-i686-mingw32/bin/../lib/gcc/nios2-elf/4.1.2/../../../../nios2-elf/lib\libstdc++.a(eh_throw.o) (__cxa_free_exception)
e:/altera/10.1/nios2eds/bin/gnu/h-i686-mingw32/bin/../lib/gcc/nios2-elf/4.1.2/../../../../nios2-elf/lib\libstdc++.a(eh_term_handler.o)
                              e:/altera/10.1/nios2eds/bin/gnu/h-i686-mingw32/bin/../lib/gcc/nios2-elf/4.1.2/../../../../nios2-elf/lib\libstdc++.a(eh_throw.o) (__cxxabiv1::__terminate_handler)
e:/altera/10.1/nios2eds/bin/gnu/h-i686-mingw32/bin/../lib/gcc/nios2-elf/4.1.2/../../../../nios2-elf/lib\libstdc++.a(tinfo.o)
                              e:/altera/10.1/nios2eds/bin/gnu/h-i686-mingw32/bin/../lib/gcc/nios2-elf/4.1.2/../../../../nios2-elf/lib\libstdc++.a(si_class_type_info.o) (std::type_info::__is_pointer_p() const)
e:/altera/10.1/nios2eds/bin/gnu/h-i686-mingw32/bin/../lib/gcc/nios2-elf/4.1.2/../../../../nios2-elf/lib\libstdc++.a(del_op.o)
                              e:/altera/10.1/nios2eds/bin/gnu/h-i686-mingw32/bin/../lib/gcc/nios2-elf/4.1.2/../../../../nios2-elf/lib\libstdc++.a(eh_exception.o) (operator delete(void*))
e:/altera/10.1/nios2eds/bin/gnu/h-i686-mingw32/bin/../lib/gcc/nios2-elf/4.1.2/../../../../nios2-elf/lib\libstdc++.a(class_type_info.o)
                              e:/altera/10.1/nios2eds/bin/gnu/h-i686-mingw32/bin/../lib/gcc/nios2-elf/4.1.2/../../../../nios2-elf/lib\libstdc++.a(si_class_type_info.o) (__cxxabiv1::__class_type_info::__do_upcast(__cxxabiv1::__class_type_info const*, void**) const)
e:/altera/10.1/nios2eds/bin/gnu/h-i686-mingw32/bin/../lib/gcc/nios2-elf/4.1.2/../../../../nios2-elf/lib\libstdc++.a(eh_unex_handler.o)
                              e:/altera/10.1/nios2eds/bin/gnu/h-i686-mingw32/bin/../lib/gcc/nios2-elf/4.1.2/../../../../nios2-elf/lib\libstdc++.a(eh_throw.o) (__cxxabiv1::__unexpected_handler)
e:/altera/10.1/nios2eds/bin/gnu/h-i686-mingw32/bin/../lib/gcc/nios2-elf/4.1.2\libgcc.a(_muldi3.o)
                              obj/ts_helper.o (__muldi3)
e:/altera/10.1/nios2eds/bin/gnu/h-i686-mingw32/bin/../lib/gcc/nios2-elf/4.1.2\libgcc.a(_fixunsdfsi.o)
                              obj/ddc_helper.o (__fixunsdfsi)
e:/altera/10.1/nios2eds/bin/gnu/h-i686-mingw32/bin/../lib/gcc/nios2-elf/4.1.2\libgcc.a(_floatdidf.o)
                              obj/ts_helper.o (__floatdidf)
e:/altera/10.1/nios2eds/bin/gnu/h-i686-mingw32/bin/../lib/gcc/nios2-elf/4.1.2\libgcc.a(_divdi3.o)
                              obj/usb/kern_sysctl.o (__divdi3)
e:/altera/10.1/nios2eds/bin/gnu/h-i686-mingw32/bin/../lib/gcc/nios2-elf/4.1.2\libgcc.a(_addsub_df.o)
                              obj/ts_helper.o (__subdf3)
e:/altera/10.1/nios2eds/bin/gnu/h-i686-mingw32/bin/../lib/gcc/nios2-elf/4.1.2\libgcc.a(_mul_df.o)
                              obj/ddc_helper.o (__muldf3)
e:/altera/10.1/nios2eds/bin/gnu/h-i686-mingw32/bin/../lib/gcc/nios2-elf/4.1.2\libgcc.a(_div_df.o)
                              obj/ddc_helper.o (__divdf3)
e:/altera/10.1/nios2eds/bin/gnu/h-i686-mingw32/bin/../lib/gcc/nios2-elf/4.1.2\libgcc.a(_ne_df.o)
                              obj/ts_helper.o (__nedf2)
e:/altera/10.1/nios2eds/bin/gnu/h-i686-mingw32/bin/../lib/gcc/nios2-elf/4.1.2\libgcc.a(_ge_df.o)
                              e:/altera/10.1/nios2eds/bin/gnu/h-i686-mingw32/bin/../lib/gcc/nios2-elf/4.1.2\libgcc.a(_fixunsdfsi.o) (__gedf2)
e:/altera/10.1/nios2eds/bin/gnu/h-i686-mingw32/bin/../lib/gcc/nios2-elf/4.1.2\libgcc.a(_si_to_df.o)
                              obj/ddc_helper.o (__floatsidf)
e:/altera/10.1/nios2eds/bin/gnu/h-i686-mingw32/bin/../lib/gcc/nios2-elf/4.1.2\libgcc.a(_df_to_si.o)
                              obj/ts_helper.o (__fixdfsi)
e:/altera/10.1/nios2eds/bin/gnu/h-i686-mingw32/bin/../lib/gcc/nios2-elf/4.1.2\libgcc.a(_thenan_df.o)
                              e:/altera/10.1/nios2eds/bin/gnu/h-i686-mingw32/bin/../lib/gcc/nios2-elf/4.1.2\libgcc.a(_addsub_df.o) (__thenan_df)
e:/altera/10.1/nios2eds/bin/gnu/h-i686-mingw32/bin/../lib/gcc/nios2-elf/4.1.2\libgcc.a(_usi_to_df.o)
                              obj/ddc_helper.o (__floatunsidf)
e:/altera/10.1/nios2eds/bin/gnu/h-i686-mingw32/bin/../lib/gcc/nios2-elf/4.1.2\libgcc.a(lib2-divmod.o)
                              obj/dynedid.o (__divsi3)
e:/altera/10.1/nios2eds/bin/gnu/h-i686-mingw32/bin/../lib/gcc/nios2-elf/4.1.2\libgcc.a(unwind-dw2.o)
                              e:/altera/10.1/nios2eds/bin/gnu/h-i686-mingw32/bin/../lib/gcc/nios2-elf/4.1.2/../../../../nios2-elf/lib\libstdc++.a(eh_personality.o) (_Unwind_GetIP)
e:/altera/10.1/nios2eds/bin/gnu/h-i686-mingw32/bin/../lib/gcc/nios2-elf/4.1.2\libgcc.a(unwind-dw2-fde.o)
                              e:/altera/10.1/nios2eds/bin/gnu/h-i686-mingw32/bin/../lib/gcc/nios2-elf/4.1.2\libgcc.a(unwind-dw2.o) (_Unwind_Find_FDE)
e:/altera/10.1/nios2eds/bin/gnu/h-i686-mingw32/bin/../lib/gcc/nios2-elf/4.1.2\libgcc.a(_clz.o)
                              e:/altera/10.1/nios2eds/bin/gnu/h-i686-mingw32/bin/../lib/gcc/nios2-elf/4.1.2\libgcc.a(_divdi3.o) (__clz_tab)
e:/altera/10.1/nios2eds/bin/gnu/h-i686-mingw32/bin/../lib/gcc/nios2-elf/4.1.2\libgcc.a(_clzsi2.o)
                              e:/altera/10.1/nios2eds/bin/gnu/h-i686-mingw32/bin/../lib/gcc/nios2-elf/4.1.2\libgcc.a(_si_to_df.o) (__clzsi2)
e:/altera/10.1/nios2eds/bin/gnu/h-i686-mingw32/bin/../lib/gcc/nios2-elf/4.1.2\libgcc.a(_pack_df.o)
                              e:/altera/10.1/nios2eds/bin/gnu/h-i686-mingw32/bin/../lib/gcc/nios2-elf/4.1.2\libgcc.a(_addsub_df.o) (__pack_d)
e:/altera/10.1/nios2eds/bin/gnu/h-i686-mingw32/bin/../lib/gcc/nios2-elf/4.1.2\libgcc.a(_unpack_df.o)
                              e:/altera/10.1/nios2eds/bin/gnu/h-i686-mingw32/bin/../lib/gcc/nios2-elf/4.1.2\libgcc.a(_addsub_df.o) (__unpack_d)
e:/altera/10.1/nios2eds/bin/gnu/h-i686-mingw32/bin/../lib/gcc/nios2-elf/4.1.2\libgcc.a(_fpcmp_parts_df.o)
                              e:/altera/10.1/nios2eds/bin/gnu/h-i686-mingw32/bin/../lib/gcc/nios2-elf/4.1.2\libgcc.a(_ne_df.o) (__fpcmp_parts_d)
e:/altera/10.1/nios2eds/bin/gnu/h-i686-mingw32/bin/../lib/gcc/nios2-elf/4.1.2/../../../../nios2-elf/lib\libc.a(lib_a-abort.o)
                              e:/altera/10.1/nios2eds/bin/gnu/h-i686-mingw32/bin/../lib/gcc/nios2-elf/4.1.2/../../../../nios2-elf/lib\libstdc++.a(eh_personality.o) (abort)
e:/altera/10.1/nios2eds/bin/gnu/h-i686-mingw32/bin/../lib/gcc/nios2-elf/4.1.2/../../../../nios2-elf/lib\libc.a(lib_a-bcopy.o)
                              obj/usb/kern_sysctl.o (bcopy)
e:/altera/10.1/nios2eds/bin/gnu/h-i686-mingw32/bin/../lib/gcc/nios2-elf/4.1.2/../../../../nios2-elf/lib\libc.a(lib_a-ctype_.o)
                              obj/i2c_master.o (__ctype_ptr)
e:/altera/10.1/nios2eds/bin/gnu/h-i686-mingw32/bin/../lib/gcc/nios2-elf/4.1.2/../../../../nios2-elf/lib\libc.a(lib_a-malloc.o)
                              obj/os-support.o (free)
e:/altera/10.1/nios2eds/bin/gnu/h-i686-mingw32/bin/../lib/gcc/nios2-elf/4.1.2/../../../../nios2-elf/lib\libc.a(lib_a-mallocr.o)
                              e:/altera/10.1/nios2eds/bin/gnu/h-i686-mingw32/bin/../lib/gcc/nios2-elf/4.1.2/../../../../nios2-elf/lib\libc.a(lib_a-malloc.o) (_malloc_r)
e:/altera/10.1/nios2eds/bin/gnu/h-i686-mingw32/bin/../lib/gcc/nios2-elf/4.1.2/../../../../nios2-elf/lib\libc.a(lib_a-memcpy.o)
                              obj/ee_helper.o (memcpy)
e:/altera/10.1/nios2eds/bin/gnu/h-i686-mingw32/bin/../lib/gcc/nios2-elf/4.1.2/../../../../nios2-elf/lib\libc.a(lib_a-memmove.o)
                              e:/altera/10.1/nios2eds/bin/gnu/h-i686-mingw32/bin/../lib/gcc/nios2-elf/4.1.2/../../../../nios2-elf/lib\libc.a(lib_a-bcopy.o) (memmove)
e:/altera/10.1/nios2eds/bin/gnu/h-i686-mingw32/bin/../lib/gcc/nios2-elf/4.1.2/../../../../nios2-elf/lib\libc.a(lib_a-memset.o)
                              obj/ee_helper.o (memset)
e:/altera/10.1/nios2eds/bin/gnu/h-i686-mingw32/bin/../lib/gcc/nios2-elf/4.1.2/../../../../nios2-elf/lib\libc.a(lib_a-printf.o)
                              obj/usb/bsd-wrap.o (printf)
e:/altera/10.1/nios2eds/bin/gnu/h-i686-mingw32/bin/../lib/gcc/nios2-elf/4.1.2/../../../../nios2-elf/lib\libc.a(lib_a-putchar.o)
                              obj/usb/usb_debug.o (putchar)
e:/altera/10.1/nios2eds/bin/gnu/h-i686-mingw32/bin/../lib/gcc/nios2-elf/4.1.2/../../../../nios2-elf/lib\libc.a(lib_a-puts.o)
                              obj/sys-base.o (puts)
e:/altera/10.1/nios2eds/bin/gnu/h-i686-mingw32/bin/../lib/gcc/nios2-elf/4.1.2/../../../../nios2-elf/lib\libc.a(lib_a-rand.o)
                              obj/usb_helper.o (srand)
e:/altera/10.1/nios2eds/bin/gnu/h-i686-mingw32/bin/../lib/gcc/nios2-elf/4.1.2/../../../../nios2-elf/lib\libc.a(lib_a-sbrkr.o)
                              e:/altera/10.1/nios2eds/bin/gnu/h-i686-mingw32/bin/../lib/gcc/nios2-elf/4.1.2/../../../../nios2-elf/lib\libc.a(lib_a-mallocr.o) (_sbrk_r)
e:/altera/10.1/nios2eds/bin/gnu/h-i686-mingw32/bin/../lib/gcc/nios2-elf/4.1.2/../../../../nios2-elf/lib\libc.a(lib_a-signal.o)
                              e:/altera/10.1/nios2eds/bin/gnu/h-i686-mingw32/bin/../lib/gcc/nios2-elf/4.1.2/../../../../nios2-elf/lib\libc.a(lib_a-abort.o) (raise)
e:/altera/10.1/nios2eds/bin/gnu/h-i686-mingw32/bin/../lib/gcc/nios2-elf/4.1.2/../../../../nios2-elf/lib\libc.a(lib_a-signalr.o)
                              e:/altera/10.1/nios2eds/bin/gnu/h-i686-mingw32/bin/../lib/gcc/nios2-elf/4.1.2/../../../../nios2-elf/lib\libc.a(lib_a-signal.o) (_getpid_r)
e:/altera/10.1/nios2eds/bin/gnu/h-i686-mingw32/bin/../lib/gcc/nios2-elf/4.1.2/../../../../nios2-elf/lib\libc.a(lib_a-snprintf.o)
                              obj/usb/kern_sysctl.o (snprintf)
e:/altera/10.1/nios2eds/bin/gnu/h-i686-mingw32/bin/../lib/gcc/nios2-elf/4.1.2/../../../../nios2-elf/lib\libc.a(lib_a-sprintf.o)
                              obj/sys-base.o (sprintf)
e:/altera/10.1/nios2eds/bin/gnu/h-i686-mingw32/bin/../lib/gcc/nios2-elf/4.1.2/../../../../nios2-elf/lib\libc.a(lib_a-strcmp.o)
                              obj/usb/bsd-wrap.o (strcmp)
e:/altera/10.1/nios2eds/bin/gnu/h-i686-mingw32/bin/../lib/gcc/nios2-elf/4.1.2/../../../../nios2-elf/lib\libc.a(lib_a-strcpy.o)
                              obj/usb/bsd-wrap.o (strcpy)
e:/altera/10.1/nios2eds/bin/gnu/h-i686-mingw32/bin/../lib/gcc/nios2-elf/4.1.2/../../../../nios2-elf/lib\libc.a(lib_a-strdup.o)
                              obj/usb/bsd-wrap.o (strdup)
e:/altera/10.1/nios2eds/bin/gnu/h-i686-mingw32/bin/../lib/gcc/nios2-elf/4.1.2/../../../../nios2-elf/lib\libc.a(lib_a-strdup_r.o)
                              e:/altera/10.1/nios2eds/bin/gnu/h-i686-mingw32/bin/../lib/gcc/nios2-elf/4.1.2/../../../../nios2-elf/lib\libc.a(lib_a-strdup.o) (_strdup_r)
e:/altera/10.1/nios2eds/bin/gnu/h-i686-mingw32/bin/../lib/gcc/nios2-elf/4.1.2/../../../../nios2-elf/lib\libc.a(lib_a-strlcpy.o)
                              obj/usb/kern_sysctl.o (strlcpy)
e:/altera/10.1/nios2eds/bin/gnu/h-i686-mingw32/bin/../lib/gcc/nios2-elf/4.1.2/../../../../nios2-elf/lib\libc.a(lib_a-strlen.o)
                              obj/sys-base.o (strlen)
e:/altera/10.1/nios2eds/bin/gnu/h-i686-mingw32/bin/../lib/gcc/nios2-elf/4.1.2/../../../../nios2-elf/lib\libc.a(lib_a-strncpy.o)
                              obj/usb/bsd-wrap.o (strncpy)
e:/altera/10.1/nios2eds/bin/gnu/h-i686-mingw32/bin/../lib/gcc/nios2-elf/4.1.2/../../../../nios2-elf/lib\libc.a(lib_a-strnlen.o)
                              obj/usb/bsd-wrap.o (strnlen)
e:/altera/10.1/nios2eds/bin/gnu/h-i686-mingw32/bin/../lib/gcc/nios2-elf/4.1.2/../../../../nios2-elf/lib\libc.a(lib_a-vfprintf.o)
                              e:/altera/10.1/nios2eds/bin/gnu/h-i686-mingw32/bin/../lib/gcc/nios2-elf/4.1.2/../../../../nios2-elf/lib\libc.a(lib_a-printf.o) (___vfprintf_internal_r)
e:/altera/10.1/nios2eds/bin/gnu/h-i686-mingw32/bin/../lib/gcc/nios2-elf/4.1.2/../../../../nios2-elf/lib\libc.a(lib_a-vprintf.o)
                              obj/usb/bsd-wrap.o (vprintf)
e:/altera/10.1/nios2eds/bin/gnu/h-i686-mingw32/bin/../lib/gcc/nios2-elf/4.1.2/../../../../nios2-elf/lib\libc.a(lib_a-vsnprintf.o)
                              obj/usb/bsd-wrap.o (vsnprintf)
e:/altera/10.1/nios2eds/bin/gnu/h-i686-mingw32/bin/../lib/gcc/nios2-elf/4.1.2/../../../../nios2-elf/lib\libc.a(lib_a-vsprintf.o)
                              obj/vip_helper.o (vsprintf)
e:/altera/10.1/nios2eds/bin/gnu/h-i686-mingw32/bin/../lib/gcc/nios2-elf/4.1.2/../../../../nios2-elf/lib\libc.a(lib_a-wsetup.o)
                              e:/altera/10.1/nios2eds/bin/gnu/h-i686-mingw32/bin/../lib/gcc/nios2-elf/4.1.2/../../../../nios2-elf/lib\libc.a(lib_a-vfprintf.o) (__swsetup_r)
e:/altera/10.1/nios2eds/bin/gnu/h-i686-mingw32/bin/../lib/gcc/nios2-elf/4.1.2/../../../../nios2-elf/lib\libc.a(lib_a-dtoa.o)
                              e:/altera/10.1/nios2eds/bin/gnu/h-i686-mingw32/bin/../lib/gcc/nios2-elf/4.1.2/../../../../nios2-elf/lib\libc.a(lib_a-vfprintf.o) (_dtoa_r)
e:/altera/10.1/nios2eds/bin/gnu/h-i686-mingw32/bin/../lib/gcc/nios2-elf/4.1.2/../../../../nios2-elf/lib\libc.a(lib_a-fflush.o)
                              e:/altera/10.1/nios2eds/bin/gnu/h-i686-mingw32/bin/../lib/gcc/nios2-elf/4.1.2/../../../../nios2-elf/lib\libc.a(lib_a-vfprintf.o) (_fflush_r)
e:/altera/10.1/nios2eds/bin/gnu/h-i686-mingw32/bin/../lib/gcc/nios2-elf/4.1.2/../../../../nios2-elf/lib\libc.a(lib_a-findfp.o)
                              e:/altera/10.1/nios2eds/bin/gnu/h-i686-mingw32/bin/../lib/gcc/nios2-elf/4.1.2/../../../../nios2-elf/lib\libc.a(lib_a-vfprintf.o) (__sinit)
e:/altera/10.1/nios2eds/bin/gnu/h-i686-mingw32/bin/../lib/gcc/nios2-elf/4.1.2/../../../../nios2-elf/lib\libc.a(lib_a-freer.o)
                              e:/altera/10.1/nios2eds/bin/gnu/h-i686-mingw32/bin/../lib/gcc/nios2-elf/4.1.2/../../../../nios2-elf/lib\libc.a(lib_a-malloc.o) (_free_r)
e:/altera/10.1/nios2eds/bin/gnu/h-i686-mingw32/bin/../lib/gcc/nios2-elf/4.1.2/../../../../nios2-elf/lib\libc.a(lib_a-fvwrite.o)
                              e:/altera/10.1/nios2eds/bin/gnu/h-i686-mingw32/bin/../lib/gcc/nios2-elf/4.1.2/../../../../nios2-elf/lib\libc.a(lib_a-puts.o) (__sfvwrite_r)
e:/altera/10.1/nios2eds/bin/gnu/h-i686-mingw32/bin/../lib/gcc/nios2-elf/4.1.2/../../../../nios2-elf/lib\libc.a(lib_a-fwalk.o)
                              e:/altera/10.1/nios2eds/bin/gnu/h-i686-mingw32/bin/../lib/gcc/nios2-elf/4.1.2/../../../../nios2-elf/lib\libc.a(lib_a-fflush.o) (_fwalk_reent)
e:/altera/10.1/nios2eds/bin/gnu/h-i686-mingw32/bin/../lib/gcc/nios2-elf/4.1.2/../../../../nios2-elf/lib\libc.a(lib_a-impure.o)
                              e:/altera/10.1/nios2eds/bin/gnu/h-i686-mingw32/bin/../lib/gcc/nios2-elf/4.1.2/../../../../nios2-elf/lib\libc.a(lib_a-malloc.o) (_impure_ptr)
e:/altera/10.1/nios2eds/bin/gnu/h-i686-mingw32/bin/../lib/gcc/nios2-elf/4.1.2/../../../../nios2-elf/lib\libc.a(lib_a-int_errno.o)
                              e:/altera/10.1/nios2eds/bin/gnu/h-i686-mingw32/bin/../lib/gcc/nios2-elf/4.1.2/../../../../nios2-elf/lib\libc.a(lib_a-sbrkr.o) (errno)
e:/altera/10.1/nios2eds/bin/gnu/h-i686-mingw32/bin/../lib/gcc/nios2-elf/4.1.2/../../../../nios2-elf/lib\libc.a(lib_a-locale.o)
                              e:/altera/10.1/nios2eds/bin/gnu/h-i686-mingw32/bin/../lib/gcc/nios2-elf/4.1.2/../../../../nios2-elf/lib\libc.a(lib_a-vfprintf.o) (_localeconv_r)
e:/altera/10.1/nios2eds/bin/gnu/h-i686-mingw32/bin/../lib/gcc/nios2-elf/4.1.2/../../../../nios2-elf/lib\libc.a(lib_a-makebuf.o)
                              e:/altera/10.1/nios2eds/bin/gnu/h-i686-mingw32/bin/../lib/gcc/nios2-elf/4.1.2/../../../../nios2-elf/lib\libc.a(lib_a-wsetup.o) (__smakebuf_r)
e:/altera/10.1/nios2eds/bin/gnu/h-i686-mingw32/bin/../lib/gcc/nios2-elf/4.1.2/../../../../nios2-elf/lib\libc.a(lib_a-memchr.o)
                              e:/altera/10.1/nios2eds/bin/gnu/h-i686-mingw32/bin/../lib/gcc/nios2-elf/4.1.2/../../../../nios2-elf/lib\libc.a(lib_a-vfprintf.o) (memchr)
e:/altera/10.1/nios2eds/bin/gnu/h-i686-mingw32/bin/../lib/gcc/nios2-elf/4.1.2/../../../../nios2-elf/lib\libc.a(lib_a-mprec.o)
                              e:/altera/10.1/nios2eds/bin/gnu/h-i686-mingw32/bin/../lib/gcc/nios2-elf/4.1.2/../../../../nios2-elf/lib\libc.a(lib_a-dtoa.o) (_Bfree)
e:/altera/10.1/nios2eds/bin/gnu/h-i686-mingw32/bin/../lib/gcc/nios2-elf/4.1.2/../../../../nios2-elf/lib\libc.a(lib_a-putc.o)
                              e:/altera/10.1/nios2eds/bin/gnu/h-i686-mingw32/bin/../lib/gcc/nios2-elf/4.1.2/../../../../nios2-elf/lib\libc.a(lib_a-putchar.o) (_putc_r)
e:/altera/10.1/nios2eds/bin/gnu/h-i686-mingw32/bin/../lib/gcc/nios2-elf/4.1.2/../../../../nios2-elf/lib\libc.a(lib_a-reallocr.o)
                              e:/altera/10.1/nios2eds/bin/gnu/h-i686-mingw32/bin/../lib/gcc/nios2-elf/4.1.2/../../../../nios2-elf/lib\libc.a(lib_a-fvwrite.o) (_realloc_r)
e:/altera/10.1/nios2eds/bin/gnu/h-i686-mingw32/bin/../lib/gcc/nios2-elf/4.1.2/../../../../nios2-elf/lib\libc.a(lib_a-s_isinfd.o)
                              e:/altera/10.1/nios2eds/bin/gnu/h-i686-mingw32/bin/../lib/gcc/nios2-elf/4.1.2/../../../../nios2-elf/lib\libc.a(lib_a-vfprintf.o) (__isinfd)
e:/altera/10.1/nios2eds/bin/gnu/h-i686-mingw32/bin/../lib/gcc/nios2-elf/4.1.2/../../../../nios2-elf/lib\libc.a(lib_a-s_isnand.o)
                              e:/altera/10.1/nios2eds/bin/gnu/h-i686-mingw32/bin/../lib/gcc/nios2-elf/4.1.2/../../../../nios2-elf/lib\libc.a(lib_a-vfprintf.o) (__isnand)
e:/altera/10.1/nios2eds/bin/gnu/h-i686-mingw32/bin/../lib/gcc/nios2-elf/4.1.2/../../../../nios2-elf/lib\libc.a(lib_a-stdio.o)
                              e:/altera/10.1/nios2eds/bin/gnu/h-i686-mingw32/bin/../lib/gcc/nios2-elf/4.1.2/../../../../nios2-elf/lib\libc.a(lib_a-findfp.o) (__sclose)
e:/altera/10.1/nios2eds/bin/gnu/h-i686-mingw32/bin/../lib/gcc/nios2-elf/4.1.2/../../../../nios2-elf/lib\libc.a(lib_a-wbuf.o)
                              e:/altera/10.1/nios2eds/bin/gnu/h-i686-mingw32/bin/../lib/gcc/nios2-elf/4.1.2/../../../../nios2-elf/lib\libc.a(lib_a-putc.o) (__swbuf_r)
e:/altera/10.1/nios2eds/bin/gnu/h-i686-mingw32/bin/../lib/gcc/nios2-elf/4.1.2/../../../../nios2-elf/lib\libc.a(lib_a-writer.o)
                              e:/altera/10.1/nios2eds/bin/gnu/h-i686-mingw32/bin/../lib/gcc/nios2-elf/4.1.2/../../../../nios2-elf/lib\libc.a(lib_a-stdio.o) (_write_r)
e:/altera/10.1/nios2eds/bin/gnu/h-i686-mingw32/bin/../lib/gcc/nios2-elf/4.1.2/../../../../nios2-elf/lib\libc.a(lib_a-callocr.o)
                              e:/altera/10.1/nios2eds/bin/gnu/h-i686-mingw32/bin/../lib/gcc/nios2-elf/4.1.2/../../../../nios2-elf/lib\libc.a(lib_a-mprec.o) (_calloc_r)
e:/altera/10.1/nios2eds/bin/gnu/h-i686-mingw32/bin/../lib/gcc/nios2-elf/4.1.2/../../../../nios2-elf/lib\libc.a(lib_a-closer.o)
                              e:/altera/10.1/nios2eds/bin/gnu/h-i686-mingw32/bin/../lib/gcc/nios2-elf/4.1.2/../../../../nios2-elf/lib\libc.a(lib_a-stdio.o) (_close_r)
e:/altera/10.1/nios2eds/bin/gnu/h-i686-mingw32/bin/../lib/gcc/nios2-elf/4.1.2/../../../../nios2-elf/lib\libc.a(lib_a-fclose.o)
                              e:/altera/10.1/nios2eds/bin/gnu/h-i686-mingw32/bin/../lib/gcc/nios2-elf/4.1.2/../../../../nios2-elf/lib\libc.a(lib_a-findfp.o) (fclose)
e:/altera/10.1/nios2eds/bin/gnu/h-i686-mingw32/bin/../lib/gcc/nios2-elf/4.1.2/../../../../nios2-elf/lib\libc.a(lib_a-fstatr.o)
                              e:/altera/10.1/nios2eds/bin/gnu/h-i686-mingw32/bin/../lib/gcc/nios2-elf/4.1.2/../../../../nios2-elf/lib\libc.a(lib_a-makebuf.o) (_fstat_r)
e:/altera/10.1/nios2eds/bin/gnu/h-i686-mingw32/bin/../lib/gcc/nios2-elf/4.1.2/../../../../nios2-elf/lib\libc.a(lib_a-isattyr.o)
                              e:/altera/10.1/nios2eds/bin/gnu/h-i686-mingw32/bin/../lib/gcc/nios2-elf/4.1.2/../../../../nios2-elf/lib\libc.a(lib_a-makebuf.o) (_isatty_r)
e:/altera/10.1/nios2eds/bin/gnu/h-i686-mingw32/bin/../lib/gcc/nios2-elf/4.1.2/../../../../nios2-elf/lib\libc.a(lib_a-lseekr.o)
                              e:/altera/10.1/nios2eds/bin/gnu/h-i686-mingw32/bin/../lib/gcc/nios2-elf/4.1.2/../../../../nios2-elf/lib\libc.a(lib_a-stdio.o) (_lseek_r)
e:/altera/10.1/nios2eds/bin/gnu/h-i686-mingw32/bin/../lib/gcc/nios2-elf/4.1.2/../../../../nios2-elf/lib\libc.a(lib_a-readr.o)
                              e:/altera/10.1/nios2eds/bin/gnu/h-i686-mingw32/bin/../lib/gcc/nios2-elf/4.1.2/../../../../nios2-elf/lib\libc.a(lib_a-stdio.o) (_read_r)
e:/altera/10.1/nios2eds/bin/gnu/h-i686-mingw32/bin/../lib/gcc/nios2-elf/4.1.2\libgcc.a(_udivdi3.o)
                              e:/altera/10.1/nios2eds/bin/gnu/h-i686-mingw32/bin/../lib/gcc/nios2-elf/4.1.2/../../../../nios2-elf/lib\libc.a(lib_a-vfprintf.o) (__udivdi3)
e:/altera/10.1/nios2eds/bin/gnu/h-i686-mingw32/bin/../lib/gcc/nios2-elf/4.1.2\libgcc.a(_umoddi3.o)
                              e:/altera/10.1/nios2eds/bin/gnu/h-i686-mingw32/bin/../lib/gcc/nios2-elf/4.1.2/../../../../nios2-elf/lib\libc.a(lib_a-vfprintf.o) (__umoddi3)
e:/altera/10.1/nios2eds/bin/gnu/h-i686-mingw32/bin/../lib/gcc/nios2-elf/4.1.2\libgcc.a(_eq_df.o)
                              e:/altera/10.1/nios2eds/bin/gnu/h-i686-mingw32/bin/../lib/gcc/nios2-elf/4.1.2/../../../../nios2-elf/lib\libc.a(lib_a-vfprintf.o) (__eqdf2)
e:/altera/10.1/nios2eds/bin/gnu/h-i686-mingw32/bin/../lib/gcc/nios2-elf/4.1.2\libgcc.a(_gt_df.o)
                              e:/altera/10.1/nios2eds/bin/gnu/h-i686-mingw32/bin/../lib/gcc/nios2-elf/4.1.2/../../../../nios2-elf/lib\libc.a(lib_a-dtoa.o) (__gtdf2)
e:/altera/10.1/nios2eds/bin/gnu/h-i686-mingw32/bin/../lib/gcc/nios2-elf/4.1.2\libgcc.a(_lt_df.o)
                              e:/altera/10.1/nios2eds/bin/gnu/h-i686-mingw32/bin/../lib/gcc/nios2-elf/4.1.2/../../../../nios2-elf/lib\libc.a(lib_a-vfprintf.o) (__ltdf2)
../mf2_ddr_ucos_bsp/\libucosii_bsp.a(alt_close.o)
                              e:/altera/10.1/nios2eds/bin/gnu/h-i686-mingw32/bin/../lib/gcc/nios2-elf/4.1.2/../../../../nios2-elf/lib\libc.a(lib_a-closer.o) (close)
../mf2_ddr_ucos_bsp/\libucosii_bsp.a(alt_dev.o)
                              ../mf2_ddr_ucos_bsp/\libucosii_bsp.a(alt_close.o) (alt_fd_list)
../mf2_ddr_ucos_bsp/\libucosii_bsp.a(alt_errno.o)
                              ../mf2_ddr_ucos_bsp/\libucosii_bsp.a(alt_close.o) (alt_errno)
../mf2_ddr_ucos_bsp/\libucosii_bsp.a(alt_exit.o)
                              e:/altera/10.1/nios2eds/bin/gnu/h-i686-mingw32/bin/../lib/gcc/nios2-elf/4.1.2/../../../../nios2-elf/lib\libc.a(lib_a-abort.o) (_exit)
../mf2_ddr_ucos_bsp/\libucosii_bsp.a(alt_fstat.o)
                              e:/altera/10.1/nios2eds/bin/gnu/h-i686-mingw32/bin/../lib/gcc/nios2-elf/4.1.2/../../../../nios2-elf/lib\libc.a(lib_a-fstatr.o) (fstat)
../mf2_ddr_ucos_bsp/\libucosii_bsp.a(alt_getpid.o)
                              e:/altera/10.1/nios2eds/bin/gnu/h-i686-mingw32/bin/../lib/gcc/nios2-elf/4.1.2/../../../../nios2-elf/lib\libc.a(lib_a-signalr.o) (getpid)
../mf2_ddr_ucos_bsp/\libucosii_bsp.a(alt_iic.o)
                              obj/fifo_helper.o (alt_ic_irq_enable)
../mf2_ddr_ucos_bsp/\libucosii_bsp.a(alt_iic_isr_register.o)
                              ../mf2_ddr_ucos_bsp/\libucosii_bsp.a(alt_iic.o) (alt_iic_isr_register)
../mf2_ddr_ucos_bsp/\libucosii_bsp.a(alt_instruction_exception_register.o)
                              obj/uhe.o (alt_instruction_exception_register)
../mf2_ddr_ucos_bsp/\libucosii_bsp.a(alt_irq_entry.o)
                              ../mf2_ddr_ucos_bsp/\libucosii_bsp.a(alt_iic_isr_register.o) (alt_irq_entry)
../mf2_ddr_ucos_bsp/\libucosii_bsp.a(alt_irq_vars.o)
                              ../mf2_ddr_ucos_bsp/\libucosii_bsp.a(alt_iic.o) (alt_irq_active)
../mf2_ddr_ucos_bsp/\libucosii_bsp.a(alt_isatty.o)
                              e:/altera/10.1/nios2eds/bin/gnu/h-i686-mingw32/bin/../lib/gcc/nios2-elf/4.1.2/../../../../nios2-elf/lib\libc.a(lib_a-isattyr.o) (isatty)
../mf2_ddr_ucos_bsp/\libucosii_bsp.a(alt_kill.o)
                              e:/altera/10.1/nios2eds/bin/gnu/h-i686-mingw32/bin/../lib/gcc/nios2-elf/4.1.2/../../../../nios2-elf/lib\libc.a(lib_a-signalr.o) (kill)
../mf2_ddr_ucos_bsp/\libucosii_bsp.a(alt_load.o)
                              ../mf2_ddr_ucos_bsp//obj/HAL/src/crt0.o (alt_load)
../mf2_ddr_ucos_bsp/\libucosii_bsp.a(alt_lseek.o)
                              e:/altera/10.1/nios2eds/bin/gnu/h-i686-mingw32/bin/../lib/gcc/nios2-elf/4.1.2/../../../../nios2-elf/lib\libc.a(lib_a-lseekr.o) (lseek)
../mf2_ddr_ucos_bsp/\libucosii_bsp.a(alt_main.o)
                              ../mf2_ddr_ucos_bsp//obj/HAL/src/crt0.o (alt_main)
../mf2_ddr_ucos_bsp/\libucosii_bsp.a(alt_read.o)
                              e:/altera/10.1/nios2eds/bin/gnu/h-i686-mingw32/bin/../lib/gcc/nios2-elf/4.1.2/../../../../nios2-elf/lib\libc.a(lib_a-readr.o) (read)
../mf2_ddr_ucos_bsp/\libucosii_bsp.a(alt_release_fd.o)
                              ../mf2_ddr_ucos_bsp/\libucosii_bsp.a(alt_close.o) (alt_release_fd)
../mf2_ddr_ucos_bsp/\libucosii_bsp.a(alt_sbrk.o)
                              e:/altera/10.1/nios2eds/bin/gnu/h-i686-mingw32/bin/../lib/gcc/nios2-elf/4.1.2/../../../../nios2-elf/lib\libc.a(lib_a-sbrkr.o) (sbrk)
../mf2_ddr_ucos_bsp/\libucosii_bsp.a(alt_tick.o)
                              obj/sys-base.o (_alt_nticks)
../mf2_ddr_ucos_bsp/\libucosii_bsp.a(alt_usleep.o)
                              obj/i2c_master.o (usleep)
../mf2_ddr_ucos_bsp/\libucosii_bsp.a(alt_write.o)
                              e:/altera/10.1/nios2eds/bin/gnu/h-i686-mingw32/bin/../lib/gcc/nios2-elf/4.1.2/../../../../nios2-elf/lib\libc.a(lib_a-writer.o) (write)
../mf2_ddr_ucos_bsp/\libucosii_bsp.a(os_cpu_a.o)
                              obj/os_cpu_c.o (OSStartTsk)
../mf2_ddr_ucos_bsp/\libucosii_bsp.a(alt_env_lock.o)
                              ../mf2_ddr_ucos_bsp/\libucosii_bsp.a(alt_main.o) (alt_envsem)
../mf2_ddr_ucos_bsp/\libucosii_bsp.a(alt_malloc_lock.o)
                              e:/altera/10.1/nios2eds/bin/gnu/h-i686-mingw32/bin/../lib/gcc/nios2-elf/4.1.2/../../../../nios2-elf/lib\libc.a(lib_a-mallocr.o) (__malloc_unlock)
../mf2_ddr_ucos_bsp/\libucosii_bsp.a(os_core.o)
                              obj/os_bsem.o (OS_EventTaskWait)
../mf2_ddr_ucos_bsp/\libucosii_bsp.a(os_dbg.o)
                              ../mf2_ddr_ucos_bsp/\libucosii_bsp.a(os_core.o) (OSDebugInit)
../mf2_ddr_ucos_bsp/\libucosii_bsp.a(os_flag.o)
                              ../mf2_ddr_ucos_bsp/\libucosii_bsp.a(os_core.o) (OS_FlagInit)
../mf2_ddr_ucos_bsp/\libucosii_bsp.a(os_mem.o)
                              ../mf2_ddr_ucos_bsp/\libucosii_bsp.a(os_core.o) (OS_MemInit)
../mf2_ddr_ucos_bsp/\libucosii_bsp.a(os_q.o)
                              ../mf2_ddr_ucos_bsp/\libucosii_bsp.a(os_core.o) (OS_QInit)
../mf2_ddr_ucos_bsp/\libucosii_bsp.a(os_task.o)
                              ../mf2_ddr_ucos_bsp/\libucosii_bsp.a(alt_env_lock.o) (OSTaskQuery)
../mf2_ddr_ucos_bsp/\libucosii_bsp.a(os_time.o)
                              obj/os-support.o (OSTimeSet)
../mf2_ddr_ucos_bsp/\libucosii_bsp.a(os_tmr.o)
                              ../mf2_ddr_ucos_bsp/\libucosii_bsp.a(os_core.o) (OSTmr_Init)
../mf2_ddr_ucos_bsp/\libucosii_bsp.a(alt_sys_init.o)
                              ../mf2_ddr_ucos_bsp/\libucosii_bsp.a(alt_main.o) (alt_sys_init)
../mf2_ddr_ucos_bsp/\libucosii_bsp.a(altera_avalon_jtag_uart_fd.o)
                              ../mf2_ddr_ucos_bsp/\libucosii_bsp.a(alt_sys_init.o) (altera_avalon_jtag_uart_ioctl_fd)
../mf2_ddr_ucos_bsp/\libucosii_bsp.a(altera_avalon_jtag_uart_init.o)
                              ../mf2_ddr_ucos_bsp/\libucosii_bsp.a(altera_avalon_jtag_uart_fd.o) (altera_avalon_jtag_uart_close)
../mf2_ddr_ucos_bsp/\libucosii_bsp.a(altera_avalon_jtag_uart_ioctl.o)
                              ../mf2_ddr_ucos_bsp/\libucosii_bsp.a(altera_avalon_jtag_uart_fd.o) (altera_avalon_jtag_uart_ioctl)
../mf2_ddr_ucos_bsp/\libucosii_bsp.a(altera_avalon_jtag_uart_read.o)
                              ../mf2_ddr_ucos_bsp/\libucosii_bsp.a(altera_avalon_jtag_uart_fd.o) (altera_avalon_jtag_uart_read)
../mf2_ddr_ucos_bsp/\libucosii_bsp.a(altera_avalon_jtag_uart_write.o)
                              ../mf2_ddr_ucos_bsp/\libucosii_bsp.a(altera_avalon_jtag_uart_fd.o) (altera_avalon_jtag_uart_write)
../mf2_ddr_ucos_bsp/\libucosii_bsp.a(altera_avalon_spi.o)
                              obj/ee_helper.o (alt_avalon_spi_command)
../mf2_ddr_ucos_bsp/\libucosii_bsp.a(altera_avalon_timer_sc.o)
                              ../mf2_ddr_ucos_bsp/\libucosii_bsp.a(alt_sys_init.o) (alt_avalon_timer_sc_init)
../mf2_ddr_ucos_bsp/\libucosii_bsp.a(alt_alarm_start.o)
                              ../mf2_ddr_ucos_bsp/\libucosii_bsp.a(altera_avalon_jtag_uart_init.o) (alt_alarm_start)
../mf2_ddr_ucos_bsp/\libucosii_bsp.a(alt_busy_sleep.o)
                              ../mf2_ddr_ucos_bsp/\libucosii_bsp.a(alt_usleep.o) (alt_busy_sleep)
../mf2_ddr_ucos_bsp/\libucosii_bsp.a(alt_dcache_flush_all.o)
                              ../mf2_ddr_ucos_bsp/\libucosii_bsp.a(alt_load.o) (alt_dcache_flush_all)
../mf2_ddr_ucos_bsp/\libucosii_bsp.a(alt_dev_llist_insert.o)
                              ../mf2_ddr_ucos_bsp/\libucosii_bsp.a(alt_sys_init.o) (alt_dev_llist_insert)
../mf2_ddr_ucos_bsp/\libucosii_bsp.a(alt_do_ctors.o)
                              ../mf2_ddr_ucos_bsp/\libucosii_bsp.a(alt_main.o) (_do_ctors)
../mf2_ddr_ucos_bsp/\libucosii_bsp.a(alt_do_dtors.o)
                              ../mf2_ddr_ucos_bsp/\libucosii_bsp.a(alt_main.o) (_do_dtors)
../mf2_ddr_ucos_bsp/\libucosii_bsp.a(alt_exception_entry.o)
                              ../mf2_ddr_ucos_bsp/\libucosii_bsp.a(alt_instruction_exception_register.o) (alt_exception)
../mf2_ddr_ucos_bsp/\libucosii_bsp.a(alt_icache_flush_all.o)
                              ../mf2_ddr_ucos_bsp/\libucosii_bsp.a(alt_load.o) (alt_icache_flush_all)
../mf2_ddr_ucos_bsp/\libucosii_bsp.a(alt_instruction_exception_entry.o)
                              ../mf2_ddr_ucos_bsp/\libucosii_bsp.a(alt_exception_entry.o) (alt_instruction_exception_entry)
../mf2_ddr_ucos_bsp/\libucosii_bsp.a(alt_io_redirect.o)
                              ../mf2_ddr_ucos_bsp/\libucosii_bsp.a(alt_main.o) (alt_io_redirect)
../mf2_ddr_ucos_bsp/\libucosii_bsp.a(alt_open.o)
                              ../mf2_ddr_ucos_bsp/\libucosii_bsp.a(alt_io_redirect.o) (open)
../mf2_ddr_ucos_bsp/\libucosii_bsp.a(altera_nios2_irq.o)
                              ../mf2_ddr_ucos_bsp/\libucosii_bsp.a(alt_sys_init.o) (altera_nios2_irq_init)
../mf2_ddr_ucos_bsp/\libucosii_bsp.a(alt_find_dev.o)
                              ../mf2_ddr_ucos_bsp/\libucosii_bsp.a(alt_open.o) (alt_find_dev)
../mf2_ddr_ucos_bsp/\libucosii_bsp.a(alt_find_file.o)
                              ../mf2_ddr_ucos_bsp/\libucosii_bsp.a(alt_open.o) (alt_find_file)
../mf2_ddr_ucos_bsp/\libucosii_bsp.a(alt_get_fd.o)
                              ../mf2_ddr_ucos_bsp/\libucosii_bsp.a(alt_open.o) (alt_get_fd)
../mf2_ddr_ucos_bsp/\libucosii_bsp.a(alt_icache_flush.o)
                              ../mf2_ddr_ucos_bsp/\libucosii_bsp.a(alt_icache_flush_all.o) (alt_icache_flush)
e:/altera/10.1/nios2eds/bin/gnu/h-i686-mingw32/bin/../lib/gcc/nios2-elf/4.1.2/../../../../nios2-elf/lib\libc.a(lib_a-atexit.o)
                              ../mf2_ddr_ucos_bsp/\libucosii_bsp.a(alt_main.o) (atexit)
e:/altera/10.1/nios2eds/bin/gnu/h-i686-mingw32/bin/../lib/gcc/nios2-elf/4.1.2/../../../../nios2-elf/lib\libc.a(lib_a-exit.o)
                              ../mf2_ddr_ucos_bsp/\libucosii_bsp.a(alt_main.o) (exit)
e:/altera/10.1/nios2eds/bin/gnu/h-i686-mingw32/bin/../lib/gcc/nios2-elf/4.1.2/../../../../nios2-elf/lib\libc.a(lib_a-memcmp.o)
                              ../mf2_ddr_ucos_bsp/\libucosii_bsp.a(alt_find_dev.o) (memcmp)
e:/altera/10.1/nios2eds/bin/gnu/h-i686-mingw32/bin/../lib/gcc/nios2-elf/4.1.2/../../../../nios2-elf/lib\libc.a(lib_a-__atexit.o)
                              e:/altera/10.1/nios2eds/bin/gnu/h-i686-mingw32/bin/../lib/gcc/nios2-elf/4.1.2/../../../../nios2-elf/lib\libc.a(lib_a-atexit.o) (__register_exitproc)
e:/altera/10.1/nios2eds/bin/gnu/h-i686-mingw32/bin/../lib/gcc/nios2-elf/4.1.2/../../../../nios2-elf/lib\libc.a(lib_a-__call_atexit.o)
                              e:/altera/10.1/nios2eds/bin/gnu/h-i686-mingw32/bin/../lib/gcc/nios2-elf/4.1.2/../../../../nios2-elf/lib\libc.a(lib_a-exit.o) (__call_exitprocs)

Allocating common symbols
Common symbol       size              file

monitor_edid        0x80              obj/ddc_helper.o
OSTmrFreeList       0x4               ../mf2_ddr_ucos_bsp/\libucosii_bsp.a(os_core.o)
alt_irq             0x100             obj/alt-irq-handler.o
OSTmrWheelTbl       0x10              ../mf2_ddr_ucos_bsp/\libucosii_bsp.a(os_core.o)
root_bus            0x4               obj/usb/subr_bus.o
OSLockNesting       0x1               ../mf2_ddr_ucos_bsp/\libucosii_bsp.a(os_core.o)
OSTmrSemSignal      0x4               ../mf2_ddr_ucos_bsp/\libucosii_bsp.a(os_core.o)
OSRunning           0x1               ../mf2_ddr_ucos_bsp/\libucosii_bsp.a(os_core.o)
hz                  0x4               obj/usb/bsd-wrap.o
OSIdleCtr           0x4               ../mf2_ddr_ucos_bsp/\libucosii_bsp.a(os_core.o)
OSTmrUsed           0x2               ../mf2_ddr_ucos_bsp/\libucosii_bsp.a(os_core.o)
OSPrioHighRdy       0x1               ../mf2_ddr_ucos_bsp/\libucosii_bsp.a(os_core.o)
errno               0x4               e:/altera/10.1/nios2eds/bin/gnu/h-i686-mingw32/bin/../lib/gcc/nios2-elf/4.1.2/../../../../nios2-elf/lib\libc.a(lib_a-int_errno.o)
alt_heapsem         0x4               ../mf2_ddr_ucos_bsp/\libucosii_bsp.a(alt_malloc_lock.o)
OSFlagTbl           0x370             ../mf2_ddr_ucos_bsp/\libucosii_bsp.a(os_core.o)
OSTmrTbl            0x340             ../mf2_ddr_ucos_bsp/\libucosii_bsp.a(os_core.o)
OSPrioCur           0x1               ../mf2_ddr_ucos_bsp/\libucosii_bsp.a(os_core.o)
OSTCBList           0x4               ../mf2_ddr_ucos_bsp/\libucosii_bsp.a(os_core.o)
alt_fd_list_lock    0x4               ../mf2_ddr_ucos_bsp/\libucosii_bsp.a(alt_dev.o)
OSMemTbl            0xc30             ../mf2_ddr_ucos_bsp/\libucosii_bsp.a(os_core.o)
OSTickStepState     0x1               ../mf2_ddr_ucos_bsp/\libucosii_bsp.a(os_core.o)
OSTaskStatStk       0x800             ../mf2_ddr_ucos_bsp/\libucosii_bsp.a(os_core.o)
usbproc             0x4               obj/usb/usb_process.o
OSCtxSwCtr          0x4               ../mf2_ddr_ucos_bsp/\libucosii_bsp.a(os_core.o)
sysctl__kern_children
                    0x4               obj/usb/kern_sysctl.o
OSTmrFree           0x2               ../mf2_ddr_ucos_bsp/\libucosii_bsp.a(os_core.o)
OSIdleCtrMax        0x4               ../mf2_ddr_ucos_bsp/\libucosii_bsp.a(os_core.o)
pe_event            0x4               obj/os_sem.o
OSTCBFreeList       0x4               ../mf2_ddr_ucos_bsp/\libucosii_bsp.a(os_core.o)
sysctl__hw_children
                    0x4               obj/usb/kern_sysctl.o
sysctl__dev_children
                    0x4               obj/usb/subr_bus.o
OSCPUUsage          0x1               ../mf2_ddr_ucos_bsp/\libucosii_bsp.a(os_core.o)
OSTaskCtr           0x1               ../mf2_ddr_ucos_bsp/\libucosii_bsp.a(os_core.o)
tc_devclass         0x4               obj/usb/tc.o
stack_data          0x50              obj/uhe.o
OSMemFreeList       0x4               ../mf2_ddr_ucos_bsp/\libucosii_bsp.a(os_core.o)
spurious_ints       0x4               obj/uhe.o
OSQTbl              0x1e0             ../mf2_ddr_ucos_bsp/\libucosii_bsp.a(os_core.o)
OSTCBHighRdy        0x4               ../mf2_ddr_ucos_bsp/\libucosii_bsp.a(os_core.o)
OSQFreeList         0x4               ../mf2_ddr_ucos_bsp/\libucosii_bsp.a(os_core.o)
OSRdyGrp            0x1               ../mf2_ddr_ucos_bsp/\libucosii_bsp.a(os_core.o)
_atexit0            0x190             e:/altera/10.1/nios2eds/bin/gnu/h-i686-mingw32/bin/../lib/gcc/nios2-elf/4.1.2/../../../../nios2-elf/lib\libc.a(lib_a-atexit.o)
malloc_mtx          0xc               obj/usb/bsd-wrap.o
cmd_buf             0x400             obj/fifo_helper.o
OSRdyTbl            0x7               ../mf2_ddr_ucos_bsp/\libucosii_bsp.a(os_core.o)
sysctl__children    0x4               obj/usb/kern_sysctl.o
OSTmrTaskStk        0x800             ../mf2_ddr_ucos_bsp/\libucosii_bsp.a(os_core.o)
sysctl__hw_bus_children
                    0x4               obj/usb/subr_bus.o
OSEventFreeList     0x4               ../mf2_ddr_ucos_bsp/\libucosii_bsp.a(os_core.o)
malloc_type_head    0x4               obj/usb/bsd-wrap.o
modules_sx          0x8               obj/usb/kern_module.o
OSIntNesting        0x1               ../mf2_ddr_ucos_bsp/\libucosii_bsp.a(os_core.o)
OSTCBCur            0x4               ../mf2_ddr_ucos_bsp/\libucosii_bsp.a(os_core.o)
Giant               0xc               obj/usb/bsd-wrap.o
sysctl__debug_children
                    0x4               obj/usb/kern_sysctl.o
wait_for_me         0x4               obj/os_sem.o
OSTmrTime           0x4               ../mf2_ddr_ucos_bsp/\libucosii_bsp.a(os_core.o)
sbuf_buffer         0x800             obj/usb/bsd-wrap.o
cold                0x4               obj/usb/bsd-wrap.o
OSTime              0x4               ../mf2_ddr_ucos_bsp/\libucosii_bsp.a(os_core.o)
OSTmrSem            0x4               ../mf2_ddr_ucos_bsp/\libucosii_bsp.a(os_core.o)
OSTaskIdleStk       0x800             ../mf2_ddr_ucos_bsp/\libucosii_bsp.a(os_core.o)
OSEventTbl          0x1450            ../mf2_ddr_ucos_bsp/\libucosii_bsp.a(os_core.o)
OSTCBTbl            0xd80             ../mf2_ddr_ucos_bsp/\libucosii_bsp.a(os_core.o)
ee_map              0x242             obj/ee_helper.o
sysctl__sysctl_children
                    0x4               obj/usb/kern_sysctl.o
OSFlagFreeList      0x4               ../mf2_ddr_ucos_bsp/\libucosii_bsp.a(os_core.o)
OSStatRdy           0x1               ../mf2_ddr_ucos_bsp/\libucosii_bsp.a(os_core.o)
OSTCBPrioTbl        0xcc              ../mf2_ddr_ucos_bsp/\libucosii_bsp.a(os_core.o)
alt_envsem          0x4               ../mf2_ddr_ucos_bsp/\libucosii_bsp.a(alt_env_lock.o)
OSIdleCtrRun        0x4               ../mf2_ddr_ucos_bsp/\libucosii_bsp.a(os_core.o)
root_devclass       0x4               obj/usb/subr_bus.o

Discarded input sections

 .group         0x00000000        0x8 e:/altera/10.1/nios2eds/bin/gnu/h-i686-mingw32/bin/../lib/gcc/nios2-elf/4.1.2/../../../../nios2-elf/lib\libstdc++.a(eh_exception.o)
 .group         0x00000000        0x8 e:/altera/10.1/nios2eds/bin/gnu/h-i686-mingw32/bin/../lib/gcc/nios2-elf/4.1.2/../../../../nios2-elf/lib\libstdc++.a(eh_exception.o)
 .group         0x00000000        0x8 e:/altera/10.1/nios2eds/bin/gnu/h-i686-mingw32/bin/../lib/gcc/nios2-elf/4.1.2/../../../../nios2-elf/lib\libstdc++.a(eh_exception.o)
 .group         0x00000000        0x8 e:/altera/10.1/nios2eds/bin/gnu/h-i686-mingw32/bin/../lib/gcc/nios2-elf/4.1.2/../../../../nios2-elf/lib\libstdc++.a(eh_exception.o)
 .group         0x00000000        0x8 e:/altera/10.1/nios2eds/bin/gnu/h-i686-mingw32/bin/../lib/gcc/nios2-elf/4.1.2/../../../../nios2-elf/lib\libstdc++.a(eh_exception.o)
 .group         0x00000000        0x8 e:/altera/10.1/nios2eds/bin/gnu/h-i686-mingw32/bin/../lib/gcc/nios2-elf/4.1.2/../../../../nios2-elf/lib\libstdc++.a(eh_exception.o)
 .group         0x00000000        0x8 e:/altera/10.1/nios2eds/bin/gnu/h-i686-mingw32/bin/../lib/gcc/nios2-elf/4.1.2/../../../../nios2-elf/lib\libstdc++.a(si_class_type_info.o)
 .group         0x00000000        0x8 e:/altera/10.1/nios2eds/bin/gnu/h-i686-mingw32/bin/../lib/gcc/nios2-elf/4.1.2/../../../../nios2-elf/lib\libstdc++.a(si_class_type_info.o)
 .group         0x00000000        0x8 e:/altera/10.1/nios2eds/bin/gnu/h-i686-mingw32/bin/../lib/gcc/nios2-elf/4.1.2/../../../../nios2-elf/lib\libstdc++.a(si_class_type_info.o)
 .group         0x00000000        0x8 e:/altera/10.1/nios2eds/bin/gnu/h-i686-mingw32/bin/../lib/gcc/nios2-elf/4.1.2/../../../../nios2-elf/lib\libstdc++.a(tinfo.o)
 .group         0x00000000        0x8 e:/altera/10.1/nios2eds/bin/gnu/h-i686-mingw32/bin/../lib/gcc/nios2-elf/4.1.2/../../../../nios2-elf/lib\libstdc++.a(tinfo.o)
 .group         0x00000000        0x8 e:/altera/10.1/nios2eds/bin/gnu/h-i686-mingw32/bin/../lib/gcc/nios2-elf/4.1.2/../../../../nios2-elf/lib\libstdc++.a(tinfo.o)
 .group         0x00000000        0x8 e:/altera/10.1/nios2eds/bin/gnu/h-i686-mingw32/bin/../lib/gcc/nios2-elf/4.1.2/../../../../nios2-elf/lib\libstdc++.a(class_type_info.o)
 .group         0x00000000        0x8 e:/altera/10.1/nios2eds/bin/gnu/h-i686-mingw32/bin/../lib/gcc/nios2-elf/4.1.2/../../../../nios2-elf/lib\libstdc++.a(class_type_info.o)
 .group         0x00000000        0x8 e:/altera/10.1/nios2eds/bin/gnu/h-i686-mingw32/bin/../lib/gcc/nios2-elf/4.1.2/../../../../nios2-elf/lib\libstdc++.a(class_type_info.o)

Memory Configuration

Name             Origin             Length             Attributes
reset            0x20000000         0x00000020
bootloader       0x20000020         0x000017e0
altmemddr_0_BEFORE_EXCEPTION 0x40000000         0x00000100
altmemddr_0      0x40000100         0x03ffff00
*default*        0x00000000         0xffffffff

Linker script and memory map

LOAD ../mf2_ddr_ucos_bsp//obj/HAL/src/crt0.o
LOAD obj/alt-irq-handler.o
LOAD obj/dbg_helper.o
LOAD obj/ddc_helper.o
LOAD obj/dynedid.o
LOAD obj/ee_helper.o
LOAD obj/fifo_helper.o
LOAD obj/i2c_master.o
LOAD obj/main.o
LOAD obj/os-support.o
LOAD obj/os_bsem.o
LOAD obj/os_cpu_c.o
LOAD obj/os_sem.o
LOAD obj/ow.o
LOAD obj/pll_helper.o
LOAD obj/sys-base.o
LOAD obj/touchcon.o
LOAD obj/ts_helper.o
LOAD obj/tvp7002_helper.o
LOAD obj/uhe.o
LOAD obj/usb/bsd-bus-dma.o
LOAD obj/usb/bsd-wrap.o
LOAD obj/usb/bus_if.o
LOAD obj/usb/device_if.o
LOAD obj/usb/ehci.o
LOAD obj/usb/ehci_oxu210.o
LOAD obj/usb/init_main.o
LOAD obj/usb/kern_linker.o
LOAD obj/usb/kern_module.o
LOAD obj/usb/kern_sysctl.o
LOAD obj/usb/oxu210-alloc.o
LOAD obj/usb/oxu210-intr.o
LOAD obj/usb/pdev.o
LOAD obj/usb/s5a-autoconf.o
LOAD obj/usb/subr_bus.o
LOAD obj/usb/subr_kobj.o
LOAD obj/usb/subr_uio.o
LOAD obj/usb/tc-mtouch.o
LOAD obj/usb/tc-zytronic.o
LOAD obj/usb/tc.o
LOAD obj/usb/ums.o
LOAD obj/usb/usb_busdma.o
LOAD obj/usb/usb_controller.o
LOAD obj/usb/usb_debug.o
LOAD obj/usb/usb_device.o
LOAD obj/usb/usb_dynamic.o
LOAD obj/usb/usb_error.o
LOAD obj/usb/usb_handle_request.o
LOAD obj/usb/usb_hid.o
LOAD obj/usb/usb_hub.o
LOAD obj/usb/usb_if.o
LOAD obj/usb/usb_parse.o
LOAD obj/usb/usb_process.o
LOAD obj/usb/usb_request.o
LOAD obj/usb/usb_s5a.o
LOAD obj/usb/usb_transfer.o
LOAD obj/usb/usb_util.o
LOAD obj/usb/usbdev_oxu210.o
LOAD obj/usb_helper.o
LOAD obj/video_helper.o
LOAD obj/vip_helper.o
LOAD e:/altera/10.1/nios2eds/bin/gnu/h-i686-mingw32/bin/../lib/gcc/nios2-elf/4.1.2/../../../../nios2-elf/lib\libstdc++.a
LOAD e:/altera/10.1/nios2eds/bin/gnu/h-i686-mingw32/bin/../lib/gcc/nios2-elf/4.1.2/../../../../nios2-elf/lib\libm.a
LOAD e:/altera/10.1/nios2eds/bin/gnu/h-i686-mingw32/bin/../lib/gcc/nios2-elf/4.1.2\libgcc.a
START GROUP
LOAD e:/altera/10.1/nios2eds/bin/gnu/h-i686-mingw32/bin/../lib/gcc/nios2-elf/4.1.2/../../../../nios2-elf/lib\libc.a
LOAD e:/altera/10.1/nios2eds/bin/gnu/h-i686-mingw32/bin/../lib/gcc/nios2-elf/4.1.2\libgcc.a
LOAD ../mf2_ddr_ucos_bsp/\libucosii_bsp.a
END GROUP
LOAD e:/altera/10.1/nios2eds/bin/gnu/h-i686-mingw32/bin/../lib/gcc/nios2-elf/4.1.2\libgcc.a
                0x20000000                __alt_mem_bootloader = 0x20000000
                0x40000000                __alt_mem_altmemddr_0 = 0x40000000

.entry          0x20000000       0x20
 *(.entry)
 .entry         0x20000000       0x20 ../mf2_ddr_ucos_bsp//obj/HAL/src/crt0.o
                0x20000000                __reset

.exceptions     0x40000100      0x210
                0x40000100                PROVIDE (__ram_exceptions_start, ABSOLUTE (.))
                0x40000100                . = ALIGN (0x20)
 *(.irq)
 *(.exceptions.entry.label)
 .exceptions.entry.label
                0x40000100        0x0 ../mf2_ddr_ucos_bsp/\libucosii_bsp.a(alt_irq_entry.o)
                0x40000100                alt_irq_entry
 .exceptions.entry.label
                0x40000100        0x0 ../mf2_ddr_ucos_bsp/\libucosii_bsp.a(alt_exception_entry.o)
                0x40000100                alt_exception
 *(.exceptions.entry.user)
 *(.exceptions.entry)
 .exceptions.entry
                0x40000100       0x58 ../mf2_ddr_ucos_bsp/\libucosii_bsp.a(alt_exception_entry.o)
 *(.exceptions.irqtest.user)
 *(.exceptions.irqtest)
 .exceptions.irqtest
                0x40000158       0x10 ../mf2_ddr_ucos_bsp/\libucosii_bsp.a(alt_irq_entry.o)
 *(.exceptions.irqhandler.user)
 *(.exceptions.irqhandler)
 .exceptions.irqhandler
                0x40000168        0x4 ../mf2_ddr_ucos_bsp/\libucosii_bsp.a(alt_irq_entry.o)
 *(.exceptions.irqreturn.user)
 *(.exceptions.irqreturn)
 .exceptions.irqreturn
                0x4000016c        0x4 ../mf2_ddr_ucos_bsp/\libucosii_bsp.a(alt_irq_entry.o)
 *(.exceptions.notirq.label)
 .exceptions.notirq.label
                0x40000170        0x0 ../mf2_ddr_ucos_bsp/\libucosii_bsp.a(alt_irq_entry.o)
 *(.exceptions.notirq.user)
 *(.exceptions.notirq)
 .exceptions.notirq
                0x40000170        0x8 ../mf2_ddr_ucos_bsp/\libucosii_bsp.a(alt_exception_entry.o)
 *(.exceptions.soft.user)
 *(.exceptions.soft)
 *(.exceptions.unknown.user)
 *(.exceptions.unknown)
 .exceptions.unknown
                0x40000178       0x14 ../mf2_ddr_ucos_bsp/\libucosii_bsp.a(alt_exception_entry.o)
 *(.exceptions.exit.label)
 .exceptions.exit.label
                0x4000018c        0x0 ../mf2_ddr_ucos_bsp/\libucosii_bsp.a(alt_irq_entry.o)
 .exceptions.exit.label
                0x4000018c        0x0 ../mf2_ddr_ucos_bsp/\libucosii_bsp.a(alt_exception_entry.o)
 *(.exceptions.exit.user)
 *(.exceptions.exit)
 .exceptions.exit
                0x4000018c       0x58 ../mf2_ddr_ucos_bsp/\libucosii_bsp.a(alt_exception_entry.o)
 *(.exceptions)
 .exceptions    0x400001e4       0xf8 obj/alt-irq-handler.o
                0x400001e4                alt_irq_handler
 .exceptions    0x400002dc       0x34 ../mf2_ddr_ucos_bsp/\libucosii_bsp.a(alt_instruction_exception_entry.o)
                0x400002dc                alt_instruction_exception_entry
                0x40000310                PROVIDE (__ram_exceptions_end, ABSOLUTE (.))
                0x40000100                PROVIDE (__flash_exceptions_start, LOADADDR (.exceptions))

.text           0x40000310    0x594f4
                0x40000310                PROVIDE (stext, ABSOLUTE (.))
 *(.interp)
 *(.hash)
 *(.dynsym)
 *(.dynstr)
 *(.gnu.version)
 *(.gnu.version_d)
 *(.gnu.version_r)
 *(.rel.init)
 *(.rela.init)
 *(.rel.text .rel.text.* .rel.gnu.linkonce.t.*)
 *(.rela.text .rela.text.* .rela.gnu.linkonce.t.*)
 *(.rel.fini)
 *(.rela.fini)
 *(.rel.rodata .rel.rodata.* .rel.gnu.linkonce.r.*)
 *(.rela.rodata .rela.rodata.* .rela.gnu.linkonce.r.*)
 *(.rel.data .rel.data.* .rel.gnu.linkonce.d.*)
 *(.rela.data .rela.data.* .rela.gnu.linkonce.d.*)
 *(.rel.tdata .rel.tdata.* .rel.gnu.linkonce.td.*)
 *(.rela.tdata .rela.tdata.* .rela.gnu.linkonce.td.*)
 *(.rel.tbss .rel.tbss.* .rel.gnu.linkonce.tb.*)
 *(.rela.tbss .rela.tbss.* .rela.gnu.linkonce.tb.*)
 *(.rel.ctors)
 *(.rela.ctors)
 *(.rel.dtors)
 *(.rela.dtors)
 *(.rel.got)
 *(.rela.got)
 *(.rel.sdata .rel.sdata.* .rel.gnu.linkonce.s.*)
 *(.rela.sdata .rela.sdata.* .rela.gnu.linkonce.s.*)
 *(.rel.sbss .rel.sbss.* .rel.gnu.linkonce.sb.*)
 *(.rela.sbss .rela.sbss.* .rela.gnu.linkonce.sb.*)
 *(.rel.sdata2 .rel.sdata2.* .rel.gnu.linkonce.s2.*)
 *(.rela.sdata2 .rela.sdata2.* .rela.gnu.linkonce.s2.*)
 *(.rel.sbss2 .rel.sbss2.* .rel.gnu.linkonce.sb2.*)
 *(.rela.sbss2 .rela.sbss2.* .rela.gnu.linkonce.sb2.*)
 *(.rel.bss .rel.bss.* .rel.gnu.linkonce.b.*)
 *(.rela.bss .rela.bss.* .rela.gnu.linkonce.b.*)
 *(.rel.plt)
 *(.rela.plt)
 *(.rel.dyn)
 *(.init)
 *(.plt)
 *(.text .stub .text.* .gnu.linkonce.t.*)
 .text          0x40000310       0x44 ../mf2_ddr_ucos_bsp//obj/HAL/src/crt0.o
                0x40000310                _start
 .text          0x40000354        0x0 obj/alt-irq-handler.o
 .text          0x40000354      0x378 obj/dbg_helper.o
                0x40000354                itoah
                0x40000418                itoad
                0x400005b4                dbg_port_set_mode
                0x40000630                dbg_port_leds_on
                0x4000066c                dbg_port_leds_off
                0x400006a8                debug_shell
 .text          0x400006cc      0x99c obj/ddc_helper.o
                0x400006cc                ddc_use_device
                0x40000780                read_ddc_mem
                0x40000800                write_ddc_mem
                0x40000884                copy_monitor_edid
                0x40000908                decode_edid_data
                0x40000cc4                init_dvi_eep
                0x40000d20                DDC_sm
 .text          0x40001068      0x8f8 obj/dynedid.o
                0x40001068                GenDynEDID
 .text          0x40001960     0x18bc obj/ee_helper.o
                0x40001960                EE_ReadStatusRegister
                0x400019ec                EE_ReadMemoryArray
                0x40001aac                EE_WriteMemoryArray
                0x40001cc8                EE_InitMFG
                0x40001d08                EE_WriteMFG
                0x40001d48                EE_ReadMFG
                0x40001d88                EE_EraseEdid
                0x40001e00                EE_InitAndWriteEdid
                0x40001e90                EE_ReadEdid
                0x40001f68                EE_WriteLvdsEdid
                0x40001fa8                EE_ReadLvdsEdid
                0x40001fe8                EE_WriteSdvoEdid
                0x40002028                EE_ReadSdvoEdid
                0x40002068                EE_WriteVoEdid
                0x400020a8                EE_ReadVoEdid
                0x400020e8                EE_InitAndWriteData
                0x40002184                EE_ReadHdr
                0x40002224                EE_ReadSectionHdr
                0x400023f8                EE_ReadSection
                0x400024c0                EE_WriteSection
                0x40002580                EE_InitTS
                0x400025e4                EE_SanityCheckTS
                0x40002628                EE_WriteTS
                0x40002684                EE_ReadTS
                0x40002710                EE_InitVI
                0x40002774                EE_SanityCheckVI
                0x400027ec                EE_WriteVI
                0x40002890                EE_ReadVI
                0x4000299c                EE_InitVO
                0x40002a00                EE_SanityCheckVO
                0x40002a60                EE_WriteVO
                0x40002b04                EE_ReadVO
                0x40002c10                EE_sm
 .text          0x4000321c      0xb74 obj/fifo_helper.o
                0x4000321c                cmd_fifo_init
                0x40003280                cmd_fifo_write
                0x40003324                cmd_fifo_not_busy
                0x40003364                cmd_fifo_cleanup
                0x400033b4                cmd_fifo_isr_init
                0x40003480                cmd_fifo_isr_deinit
                0x400034d0                gfx_fifo_init
                0x40003534                gfx_fifo_isr_init
                0x400035bc                gfx_fifo_isr_deinit
                0x4000360c                GFXWR8
                0x40003644                GFXWR16
                0x40003694                GFXWR32
                0x40003714                MISC_sm
 .text          0x40003d90      0x798 obj/i2c_master.o
                0x40003d90                i2c_read_bytes
                0x40004018                i2c_write_byte
                0x40004210                i2c_dump
 .text          0x40004528       0x78 obj/main.o
                0x40004560                main
 .text          0x400045a0      0xe4c obj/os-support.o
                0x400046b0                OSTaskDelHook
                0x40004798                os_thread_create
                0x400048a8                os_thread_del_self
                0x400048e8                os_thread_suspend
                0x40004930                os_thread_active_priority
                0x40004964                os_mutex_create
                0x400049b0                os_mutex_del
                0x40004a00                os_mutex_lock
                0x40004a50                os_mutex_unlock
                0x40004a98                os_mutex_own
                0x40004ad8                os_cond_var_create
                0x40004b28                os_cond_var_del
                0x40004b78                os_cond_var_wait
                0x40004bd4                os_cond_var_signal
                0x40004c38                os_cond_var_broadcast
                0x40004c9c                os_events_create
                0x40004cf8                os_events_del
                0x40004d48                os_events_receive
                0x40004de8                os_events_send
                0x40004e44                os_timer_create
                0x40005024                os_timer_reset
                0x400051f8                os_timer_stop
                0x40005308                os_start
 .text          0x400053ec      0xad8 obj/os_bsem.o
                0x400053ec                OSBinarySemAccept
                0x4000551c                OSBinarySemCreate
                0x40005630                OSBinarySemDel
                0x400058d8                OSBinarySemPend
                0x40005c14                OSBinarySemPost
                0x40005dec                OSBinarySemOwn
 .text          0x40005ec4      0x440 obj/os_cpu_c.o
                0x40005ec4                OSTaskStkInit
                0x400061dc                OSTaskCreateHook
                0x40006204                OSTaskSwHook
                0x40006228                OSTaskStatHook
                0x4000624c                OSTimeTickHook
                0x40006270                OSInitHookBegin
                0x40006294                OSInitHookEnd
                0x400062b8                OSTaskIdleHook
                0x400062dc                OSTCBInitHook
 .text          0x40006304     0x10c8 obj/os_sem.o
                0x40006304                OSSemAccept
                0x400063cc                OSSemCreate
                0x40006500                OSSemDel
                0x400067a8                OSSemPend
                0x40006a2c                OSSemPendAbort
                0x40006d24                OSSemSemPend
                0x40007058                OSSemPost
                0x40007188                OSSemQuery
                0x400072c0                OSSemSet
 .text          0x400073cc      0x320 obj/ow.o
                0x400073cc                bitreverse
                0x40007470                ow_crc
                0x40007550                ow_read_romid
 .text          0x400076ec      0x5f0 obj/pll_helper.o
                0x40007854                configure_pll
                0x40007c00                pll_rephase
                0x40007c7c                pll_rephase_n
 .text          0x40007cdc     0x2078 obj/sys-base.o
                0x40007cdc                s5a_watchdog_reset
                0x40007d04                led_enable
                0x40007f1c                timer_60Hz_isr_deinit
                0x40007f6c                set_vip_startup_values
                0x400082d8                write_vip_register_values
                0x40008364                system_base_task
                0x40009ce4                system_base_init
 .text          0x40009d54       0x48 obj/touchcon.o
                0x40009d54                tc_enable
                0x40009d78                tc_disable
 .text          0x40009d9c     0x29b4 obj/ts_helper.o
                0x40009d9c                touch_calc_matrix
                0x4000afa4                ts_set_baud
                0x4000b034                ts_set_lc
                0x4000b0ac                ts_init
                0x4000b220                uart_read
                0x4000b32c                uart_write
                0x4000b3dc                ts_sm
                0x4000b84c                ts_yield
                0x4000c010                handle_touch_event
 .text          0x4000c750      0x83c obj/tvp7002_helper.o
                0x4000c750                pdn_tvp
                0x4000c784                init_tvp
                0x4000c838                set_tvp7002_sample_phase
                0x4000c888                init_tvp7002_for_detection
                0x4000cc90                read_tvp7002_detection
                0x4000cd68                init_tvp7002_for_mode
                0x4000cf20                tvp7002_oe
 .text          0x4000cf8c       0xe4 obj/uhe.o
                0x4000d038                init_uhe
 .text          0x4000d070      0xc88 obj/usb/bsd-bus-dma.o
                0x4000d070                busdma_lock_mutex
                0x4000d124                bus_dma_tag_create
                0x4000d4c4                bus_dma_tag_destroy
                0x4000d5f4                bus_dmamap_create
                0x4000d684                bus_dmamap_destroy
                0x4000d6e0                bus_dmamem_alloc
                0x4000d820                bus_dmamem_free
                0x4000db44                bus_dmamap_load
                0x4000dc9c                _bus_dmamap_unload
                0x4000dcc8                _bus_dmamap_sync
 .text          0x4000dcf8     0x10a4 obj/usb/bsd-wrap.o
                0x4000dcf8                bsd_wrapper_init
                0x4000dd8c                bsd_drop_giant
                0x4000de08                bsd_pickup_giant
                0x4000de7c                malloc_init
                0x4000dee4                malloc_uninit
                0x4000df0c                malloc_desc2type
                0x4000df8c                bsd_wrap_ticks
                0x4000dfbc                pause
                0x4000e020                kproc_kthread_add
                0x4000e25c                kthread_exit
                0x4000e28c                kthread_suspend
                0x4000e2d0                mtx_init
                0x4000e364                mtx_destroy
                0x4000e3b4                mtx_lock
                0x4000e3f0                mtx_unlock
                0x4000e42c                mtx_assert
                0x4000e4d8                mtx_initialized
                0x4000e51c                mtx_owned
                0x4000e560                sx_init
                0x4000e5d8                sx_init_flags
                0x4000e61c                sx_destroy
                0x4000e66c                sx_slock
                0x4000e6a8                sx_sunlock
                0x4000e6e4                sx_xlock
                0x4000e720                sx_xunlock
                0x4000e75c                sx_xlocked
                0x4000e798                sx_unlock
                0x4000e7d4                sx_assert
                0x4000e800                cv_init
                0x4000e874                cv_destroy
                0x4000e8c4                cv_wait
                0x4000e948                cv_signal
                0x4000e984                cv_broadcast
                0x4000e9c0                _callout_init_lock
                0x4000ea04                _callout_stop_safe
                0x4000ea44                callout_reset_on
                0x4000eabc                panic
                0x4000eb00                copystr
                0x4000eb68                copyinstr
                0x4000ebd0                copyin
                0x4000ec24                copyout
                0x4000ec78                bsd_malloc
                0x4000ed24                bsd_free
 .text          0x4000ed9c      0x198 obj/usb/bus_if.o
 .text          0x4000ef34       0xb0 obj/usb/device_if.o
 .text          0x4000efe4     0x6f70 obj/usb/ehci.o
                0x4000efe4                EREAD1
                0x4000f07c                EREAD2
                0x4000f114                EREAD4
                0x4000f1a8                EWRITE1
                0x4000f244                EWRITE2
                0x4000f2e0                EWRITE4
                0x4000f37c                EOREAD1
                0x4000f3e0                EOREAD2
                0x4000f444                EOREAD4
                0x4000f4a8                EOWRITE1
                0x4000f50c                EOWRITE2
                0x4000f570                EOWRITE4
                0x4000f5d4                ehci_iterate_hw_softc
                0x4000f7a8                ehci_reset
                0x4000fa48                ehci_init
                0x40010350                ehci_detach
                0x40010410                ehci_suspend
                0x4001065c                ehci_resume
                0x40010948                ehci_shutdown
                0x40011758                ehci_interrupt
 .text          0x40015f54      0x3e4 obj/usb/ehci_oxu210.o
                0x40015f54                ehci_oxu_suspend
                0x40015fc4                ehci_oxu_resume
                0x40016014                ehci_oxu_shutdown
                0x40016084                ehci_oxu_probe
                0x400160b0                ehci_oxu_attach
                0x4001629c                ehci_oxu_detach
 .text          0x40016338      0x190 obj/usb/init_main.o
                0x40016338                mi_startup
 .text          0x400164c8      0x114 obj/usb/kern_linker.o
 .text          0x400165dc      0x4dc obj/usb/kern_module.o
                0x400166a4                module_register_init
                0x400167c0                module_register
                0x40016988                module_release
                0x40016a24                module_lookupbyname
 .text          0x40016ab8     0x27e8 obj/usb/kern_sysctl.o
                0x40016b4c                sysctl_lock
                0x40016b80                sysctl_unlock
                0x40016bb4                sysctl_register_oid
                0x40016d30                sysctl_unregister_oid
                0x40016e68                sysctl_ctx_init
                0x40016ec4                sysctl_ctx_free
                0x40017064                sysctl_ctx_entry_add
                0x40017154                sysctl_ctx_entry_find
                0x40017204                sysctl_ctx_entry_del
                0x40017300                sysctl_remove_oid
                0x40017568                sysctl_add_oid
                0x40017810                sysctl_rename_oid
                0x400178d4                sysctl_move_oid
                0x40018630                sysctl_handle_int
                0x40018718                sysctl_msec_to_ticks
                0x400188b4                sysctl_handle_long
                0x40018984                sysctl_handle_quad
                0x40018a5c                sysctl_handle_string
                0x40018bc0                sysctl_handle_opaque
                0x40018dd0                kernel_sysctl
                0x40018f50                sysctl_find_oid
 .text          0x400192a0      0x66c obj/usb/oxu210-alloc.o
                0x400192a0                oxu210_allocator_init
                0x400194d0                oxu210_aligned_alloc
                0x400196cc                oxu210_free
                0x40019774                oxu210_heap_alloc
                0x4001985c                oxu210_heap_free
 .text          0x4001990c      0x4f0 obj/usb/oxu210-intr.o
                0x40019ad8                oxu210_intr_attach
                0x40019cd4                oxu210_intr_detach
 .text          0x40019dfc     0x2770 obj/usb/pdev.o
                0x40019ff4                pdev_device_event_hook
                0x4001a14c                pdev_device_printf
                0x4001a1cc                pdev_ep_decode
                0x4001a244                pdev_ep_index
                0x4001a280                pdev_ep_deindex
                0x4001a2f0                pdev_ep_control_obtain
                0x4001a3b8                pdev_ep_control_release
                0x4001a550                pdev_device_ep_filter_hook
                0x4001a600                pdev_check_vendor_product
                0x4001be44                pdev_attach_up_device
                0x4001bf64                pdev_detach_up_device
                0x4001c360                pdev_attach_down_device
                0x4001c4f4                pdev_detach_down_device
 .text          0x4001c56c       0xa8 obj/usb/s5a-autoconf.o
 .text          0x4001c614     0x69dc obj/usb/subr_bus.o
                0x4001c6b0                devctl_queue_data_f
                0x4001c6f4                devctl_queue_data
                0x4001c730                devctl_notify_f
                0x4001c8ac                devctl_notify
                0x4001ce20                bus_set_pass
                0x4001d16c                devclass_create
                0x4001d1ac                devclass_find
                0x4001da14                devclass_get_name
                0x4001da44                devclass_get_device
                0x4001dac4                devclass_get_softc
                0x4001db2c                devclass_get_devices
                0x4001dc5c                devclass_get_drivers
                0x4001dd84                devclass_get_count
                0x4001de08                devclass_get_maxunit
                0x4001de58                devclass_find_free_unit
                0x4001dee8                devclass_set_parent
                0x4001df20                devclass_get_parent
                0x4001e818                device_add_child
                0x4001e864                device_add_child_ordered
                0x4001e9a4                device_delete_child
                0x4001eb18                device_find_child
                0x4001ed44                device_probe_child
                0x4001f130                device_get_parent
                0x4001f160                device_get_children
                0x4001f284                device_get_driver
                0x4001f2b4                device_get_devclass
                0x4001f2e4                device_get_name
                0x4001f34c                device_get_nameunit
                0x4001f37c                device_get_unit
                0x4001f3ac                device_get_desc
                0x4001f3dc                device_get_flags
                0x4001f40c                device_print_prettyname
                0x4001f48c                device_printf
                0x4001f5e0                device_set_desc
                0x4001f624                device_set_desc_copy
                0x4001f668                device_set_flags
                0x4001f6a0                device_get_softc
                0x4001f6d0                device_set_softc
                0x4001f788                device_get_ivars
                0x4001f7b8                device_set_ivars
                0x4001f7f0                device_get_state
                0x4001f820                device_enable
                0x4001f85c                device_disable
                0x4001f89c                device_busy
                0x4001f934                device_unbusy
                0x4001f9d8                device_quiet
                0x4001fa14                device_verbose
                0x4001fa54                device_is_quiet
                0x4001fa8c                device_is_enabled
                0x4001fac0                device_is_alive
                0x4001faf4                device_is_attached
                0x4001fb28                device_set_devclass
                0x4001fc04                device_set_driver
                0x4001fd80                device_probe
                0x4001fea8                device_probe_and_attach
                0x4001ff20                device_attach
                0x400200ec                device_detach
                0x40020384                device_quiesce
                0x400204ac                device_shutdown
                0x400205b8                device_set_unit
                0x400206a0                bus_generic_add_child
                0x400206f0                bus_generic_probe
                0x40020834                bus_generic_attach
                0x40020898                bus_generic_detach
                0x40020938                bus_generic_shutdown
                0x4002099c                bus_generic_suspend
                0x40020bc4                bus_generic_resume
                0x40020c28                bus_print_child_header
                0x40020ccc                bus_print_child_footer
                0x40020d18                bus_generic_print_child
                0x40020d8c                bus_generic_read_ivar
                0x40020dc4                bus_generic_write_ivar
                0x40020dfc                bus_generic_get_resource_list
                0x40020e2c                bus_generic_driver_added
                0x40020ec0                bus_generic_new_pass
                0x40020fa0                bus_generic_setup_intr
                0x40021124                bus_generic_teardown_intr
                0x40021268                bus_generic_bind_intr
                0x400213ac                bus_generic_config_intr
                0x400214f0                bus_generic_describe_intr
                0x40021644                bus_generic_get_dma_tag
                0x40021764                bus_generic_child_present
                0x40021868                bus_alloc_resources
                0x40021a70                bus_release_resources
                0x40021b70                bus_alloc_resource
                0x40021cf0                bus_activate_resource
                0x40021e44                bus_deactivate_resource
                0x40021f98                bus_release_resource
                0x400220ec                bus_setup_intr
                0x400221cc                bus_teardown_intr
                0x40022240                bus_bind_intr
                0x400222b4                bus_describe_intr
                0x40022350                bus_set_resource
                0x40022494                bus_get_resource
                0x400225d8                bus_get_resource_start
                0x40022660                bus_get_resource_count
                0x400226e8                bus_delete_resource
                0x40022808                bus_child_present
                0x4002284c                bus_child_pnpinfo_str
                0x40022994                bus_child_location_str
                0x40022adc                bus_get_dma_tag
                0x40022d98                root_bus_configure
                0x40022dd0                driver_module_handler
                0x40022f78                bus_data_generation_check
                0x40022fc0                bus_data_generation_update
 .text          0x40022ff0      0x8c0 obj/usb/subr_kobj.o
                0x40023050                kobj_error_method
                0x40023210                kobj_class_compile
                0x40023304                kobj_class_compile_static
                0x400234fc                kobj_lookup_method
                0x4002356c                kobj_class_free
                0x40023674                kobj_create
                0x400236f4                kobj_init
                0x400237cc                kobj_delete
 .text          0x400238b0      0xacc obj/usb/subr_uio.o
                0x400238b0                uiomove
                0x40023b7c                uiomove_frombuf
                0x40023cb4                ureadc
                0x40023e8c                uio_yield
                0x40023edc                copyinfrom
                0x40023f80                copyinstrfrom
                0x40024030                copyiniov
                0x40024104                copyinuio
                0x400242a8                cloneuio
 .text          0x4002437c      0x374 obj/usb/tc-mtouch.o
 .text          0x400246f0      0x400 obj/usb/tc-zytronic.o
 .text          0x40024af0      0x9e8 obj/usb/tc.o
 .text          0x400254d8     0x139c obj/usb/ums.o
 .text          0x40026874     0x17b0 obj/usb/usb_busdma.o
                0x40026874                usbd_get_page
                0x400269fc                usbd_copy_in
                0x40026aac                usbd_copy_out
                0x40026b5c                usbd_frame_zero
                0x40027078                usb_pc_alloc_mem
                0x400272cc                usb_pc_free_mem
                0x40027360                usb_pc_load_mem
                0x40027538                usb_pc_cpu_invalidate
                0x400275cc                usb_pc_cpu_flush
                0x40027638                usb_pc_dmamap_create
                0x400276fc                usb_pc_dmamap_destroy
                0x4002776c                usb_dma_tag_find
                0x40027874                usb_dma_tag_setup
                0x400279ac                usb_dma_tag_unsetup
                0x40027a58                usb_bdma_work_loop
                0x40027e54                usb_bdma_done_event
                0x40027ec0                usb_bdma_pre_sync
                0x40027f78                usb_bdma_post_sync
 .text          0x40028024      0xc74 obj/usb/usb_controller.o
                0x40028024                usb_probe
                0x40028090                usb_attach
                0x4002811c                usb_detach
                0x40028310                usb_bus_detach
                0x40028990                usb_bus_mem_flush_all
                0x40028a5c                usb_bus_mem_alloc_all
                0x40028c2c                usb_bus_mem_free_all
 .text          0x40028c98      0x3a8 obj/usb/usb_debug.o
                0x40028c98                usb_dump_iface
                0x40028d08                usb_dump_device
                0x40028dd0                usb_dump_queue
                0x40028e50                usb_dump_endpoint
                0x40028f1c                usb_dump_xfer
 .text          0x40029040     0x37a4 obj/usb/usb_device.o
                0x40029040                usb_statestr
                0x400290a8                usb_get_manufacturer
                0x40029100                usb_get_product
                0x40029158                usb_get_serial
                0x400291b0                usbd_get_ep_by_addr
                0x400292b0                usbd_get_endpoint
                0x400295c4                usbd_interface_count
                0x4002972c                usb_endpoint_foreach
                0x400298d8                usbd_set_config_index
                0x4002a0d4                usbd_set_alt_interface_index
                0x4002a1f8                usbd_set_endpoint_stall
                0x4002a3c4                usb_reset_iface_endpoints
                0x4002a678                usb_detach_device
                0x4002a9d4                usbd_set_parent_iface
                0x4002ab98                usb_probe_and_attach
                0x4002ae20                usb_suspend_resume
                0x4002afd8                usb_alloc_device
                0x4002b9a4                usb_free_device
                0x4002bc04                usbd_get_iface
                0x4002bc70                usbd_find_descriptor
                0x4002bdbc                usb_devinfo
                0x4002c1a0                usbd_get_mode
                0x4002c1d0                usbd_get_speed
                0x4002c200                usbd_get_isoc_fps
                0x4002c254                usbd_get_device_descriptor
                0x4002c2a0                usbd_get_config_descriptor
                0x4002c2ec                usb_test_quirk
                0x4002c320                usbd_get_interface_descriptor
                0x4002c36c                usbd_get_interface_altindex
                0x4002c3a0                usbd_get_bus_index
                0x4002c3e4                usbd_get_device_index
                0x4002c418                usb_peer_can_wakeup
                0x4002c488                usb_set_device_state
                0x4002c4f8                usb_get_device_state
                0x4002c544                usbd_device_attached
                0x4002c578                usbd_enum_lock
                0x4002c5cc                usbd_enum_unlock
                0x4002c620                usbd_sr_lock
                0x4002c668                usbd_sr_unlock
                0x4002c6b0                usbd_enum_is_locked
                0x4002c6f0                usbd_set_pnpinfo
 .text          0x4002c7e4      0x244 obj/usb/usb_dynamic.o
                0x4002c910                usb_quirk_unload
                0x4002c970                usb_temp_unload
                0x4002c9dc                usb_bus_unload
 .text          0x4002ca28       0x68 obj/usb/usb_error.o
                0x4002ca28                usbd_errstr
 .text          0x4002ca90     0x1090 obj/usb/usb_handle_request.o
                0x4002ca90                usb_handle_request_callback
 .text          0x4002db20     0x17f0 obj/usb/usb_hid.o
                0x4002dd8c                hid_start_parse
                0x4002de48                hid_end_parse
                0x4002df48                hid_get_item
                0x4002eae4                hid_report_size
                0x4002ec54                hid_locate
                0x4002ef48                hid_get_data
                0x4002ef94                hid_get_data_unsigned
                0x4002efe0                hid_is_collection
                0x4002f08c                hid_get_descriptor_from_usb
                0x4002f148                usbd_req_get_hid_desc
 .text          0x4002f310     0x39b8 obj/usb/usb_hub.o
                0x4002fce8                uhub_root_intr
                0x40030134                uhub_query_info
                0x400313b8                usb_hs_bandwidth_alloc
                0x4003160c                usb_hs_bandwidth_free
                0x40031780                usbd_fs_isoc_schedule_init_all
                0x400317e0                usb_isoc_time_expand
                0x400318a8                usbd_fs_isoc_schedule_isoc_time_expand
                0x400319dc                usbd_fs_isoc_schedule_alloc
                0x40031b20                usb_bus_port_get_device
                0x40031bb4                usb_bus_port_set_device
                0x40031c5c                usb_needs_explore
                0x40031d48                usb_needs_explore_all
                0x40031e04                usb_bus_power_update
                0x40031e40                usbd_transfer_power_ref
                0x40032200                usb_bus_powerd
                0x40032ba8                usbd_set_power_mode
                0x40032c24                usbd_filter_power_mode
 .text          0x40032cc8        0x0 obj/usb/usb_if.o
 .text          0x40032cc8      0x520 obj/usb/usb_parse.o
                0x40032cc8                usb_desc_foreach
                0x40032e00                usb_idesc_foreach
                0x40032f28                usb_edesc_foreach
                0x40032fd4                usb_ed_comp_foreach
                0x40033094                usbd_get_no_descriptors
                0x40033120                usbd_get_no_alts
 .text          0x400331e8      0x974 obj/usb/usb_process.o
                0x400333a8                usb_proc_create
                0x400334b8                usb_proc_free
                0x40033520                usb_proc_msignal
                0x4003377c                usb_proc_is_gone
                0x400337e4                usb_proc_mwait
                0x40033988                usb_proc_drain
                0x40033ad8                usb_proc_rewakeup
 .text          0x40033b5c     0x2b28 obj/usb/usb_request.o
                0x40033b5c                usbd_do_request_callback
                0x40033bc8                usb_do_clear_stall_callback
                0x40033ec0                usbd_do_request_flags
                0x400344f0                usbd_do_request_proc
                0x40034658                usbd_req_reset_port
                0x400347a4                usbd_req_warm_reset_port
                0x40034914                usbd_req_get_desc
                0x40034b54                usbd_req_get_string_any
                0x40034ed4                usbd_req_get_string_desc
                0x40034f60                usbd_req_get_descriptor_ptr
                0x40035070                usbd_req_get_config_desc
                0x4003512c                usbd_req_get_config_desc_full
                0x400352a8                usbd_req_get_device_desc
                0x4003531c                usbd_req_get_alt_interface_no
                0x400353f4                usbd_req_set_alt_interface_no
                0x400354cc                usbd_req_get_device_status
                0x40035550                usbd_req_get_hub_descriptor
                0x40035618                usbd_req_get_ss_hub_descriptor
                0x400356e4                usbd_req_get_hub_status
                0x40035768                usbd_req_set_address
                0x40035874                usbd_req_get_port_status
                0x40035900                usbd_req_clear_hub_feature
                0x40035990                usbd_req_set_hub_feature
                0x40035a20                usbd_req_set_hub_u1_timeout
                0x40035ab4                usbd_req_set_hub_u2_timeout
                0x40035b48                usbd_req_set_hub_depth
                0x40035bd8                usbd_req_clear_port_feature
                0x40035c70                usbd_req_set_port_feature
                0x40035d08                usbd_req_set_protocol
                0x40035de8                usbd_req_set_report
                0x40035ee8                usbd_req_get_report
                0x40035ff4                usbd_req_set_idle
                0x400360d8                usbd_req_get_report_descriptor
                0x400361c4                usbd_req_set_config
                0x40036248                usbd_req_get_config
                0x400362d0                usbd_setup_device_desc
                0x400363d0                usbd_req_re_enumerate
                0x4003656c                usbd_req_clear_device_feature
                0x400365f8                usbd_req_set_device_feature
 .text          0x40036684       0xe8 obj/usb/usb_s5a.o
                0x40036684                usb_start_bsd_stack
 .text          0x4003676c     0x4b98 obj/usb/usb_transfer.o
                0x40036818                usbd_get_dma_delay
                0x4003689c                usbd_transfer_setup_sub_malloc
                0x40036c60                usbd_transfer_setup_sub
                0x40037958                usbd_transfer_setup
                0x40038368                usbd_transfer_unsetup
                0x4003884c                usbd_transfer_submit
                0x40038cbc                usbd_pipe_enter
                0x40038d98                usbd_transfer_start
                0x40038e78                usbd_transfer_stop
                0x40039040                usbd_transfer_pending
                0x40039160                usbd_transfer_drain
                0x40039248                usbd_xfer_get_frame
                0x40039288                usbd_xfer_get_fps_shift
                0x400392bc                usbd_xfer_frame_len
                0x40039304                usbd_xfer_set_frame_data
                0x4003936c                usbd_xfer_frame_data
                0x40039400                usbd_xfer_status
                0x400394b4                usbd_xfer_set_frame_offset
                0x40039510                usbd_xfer_set_interval
                0x40039548                usbd_xfer_set_timeout
                0x40039580                usbd_xfer_set_frames
                0x400395b8                usbd_xfer_max_frames
                0x400395e8                usbd_xfer_max_len
                0x40039618                usbd_xfer_max_framelen
                0x4003964c                usbd_xfer_set_frame_len
                0x40039ab0                usb_dma_delay_done_cb
                0x40039b04                usbd_transfer_dequeue
                0x40039b98                usbd_transfer_enqueue
                0x40039c18                usbd_transfer_done
                0x40039e58                usbd_xfer_set_stall
                0x40039ee0                usbd_xfer_is_stalled
                0x40039f20                usbd_transfer_clear_stall
                0x40039fac                usbd_pipe_start
                0x4003a224                usbd_transfer_timeout_ms
                0x4003a6f0                usb_command_wrapper
                0x4003a874                usbd_ctrl_transfer_setup
                0x4003a9d4                usbd_clear_stall_locked
                0x4003aa80                usbd_clear_data_toggle
                0x4003aaf8                usbd_clear_stall_callback
                0x4003ac4c                usbd_transfer_poll
                0x4003b06c                usbd_xfer_softc
                0x4003b09c                usbd_xfer_get_priv
                0x4003b0cc                usbd_xfer_set_priv
                0x4003b104                usbd_xfer_state
                0x4003b138                usbd_xfer_set_flag
                0x4003b1fc                usbd_xfer_clr_flag
                0x4003b2d0                usbd_xfer_get_timestamp
 .text          0x4003b304      0x568 obj/usb/usb_util.o
                0x4003b304                device_delete_all_children
                0x4003b3c0                device_set_usb_desc
                0x4003b508                usb_pause_mtx
                0x4003b5cc                usb_printbcd
                0x4003b630                usb_trim_spaces
                0x4003b72c                usb_make_str_desc
 .text          0x4003b86c     0x2174 obj/usb/usbdev_oxu210.o
                0x4003bcdc                usbdev_reset
                0x4003be80                usbdev_reset_ptd
                0x4003c098                usbdev_ep_primed
                0x4003c438                usbdev_flush_and_clear_endpoint
                0x4003c510                usbdev_stall_ep
                0x4003c580                usbdev_unstall_ep
                0x4003c5f0                usbdev_set_ep_enable
                0x4003c804                usbdev_set_ep_disable
                0x4003c858                usbdev_set_ep_disable_all
                0x4003c8bc                usbdev_set_address
                0x4003c8fc                usbdev_queue_ptd
                0x4003cb5c                usbdev_queue_xfer
                0x4003d76c                usbdev_probe
                0x4003d798                usbdev_attach
                0x4003d988                usbdev_detach
 .text          0x4003d9e0      0x458 obj/usb_helper.o
                0x4003d9e0                init_usb
 .text          0x4003de38      0xc74 obj/video_helper.o
                0x4003de38                tfp410_init
                0x4003df74                vi_pio_isr_init
                0x4003e034                vi_pio_isr_deinit
                0x4003e084                vi_connect
                0x4003e130                vi_select_format
                0x4003e1a8                vi_ep3sl_isr_init
                0x4003e2c8                ANIMATE_START
                0x4003e360                ANIMATE_END
                0x4003e408                ANIMATE_FRAME
                0x4003e6cc                vi_ep3sl_isr_deinit
                0x4003e780                vo_pio_isr_init
                0x4003e86c                vo_pio_isr_deinit
                0x4003e8bc                vo_set_sync
                0x4003ea58                calc_clk
 .text          0x4003eaac     0x3b80 obj/vip_helper.o
                0x4003eaac                add_vip_list
                0x4003ecc8                calc_deltas
                0x4003ef10                update_animate_with_delta
                0x4003f174                update_start_state_from_end
                0x4003f458                tm_print_at
                0x4003f4b8                tm_print
                0x4003f518                tm_print_c
                0x4003f598                tm_cls
                0x4003f5dc                init_vip_state
                0x4003f748                update_vip_channel
                0x400402c4                update_vip_common
                0x40040570                set_vip_itc_position
                0x400407bc                init_itc
                0x40040890                start_vip_core
                0x40040a54                set_vip_analogue_position
                0x40040d78                read_egm_video_params
                0x400415b0                enable_ch1
                0x40041778                set_vip_analogue_values
                0x40041b48                enable_ch0
                0x40041cd8                vip_sm
                0x400425dc                reset_vip_fpga
 .text          0x4004262c      0xab0 e:/altera/10.1/nios2eds/bin/gnu/h-i686-mingw32/bin/../lib/gcc/nios2-elf/4.1.2/../../../../nios2-elf/lib\libstdc++.a(eh_personality.o)
                0x40042bb8                __cxa_call_unexpected
                0x40042ca0                __gxx_personality_v0
 .text          0x400430dc       0x10 e:/altera/10.1/nios2eds/bin/gnu/h-i686-mingw32/bin/../lib/gcc/nios2-elf/4.1.2/../../../../nios2-elf/lib\libstdc++.a(eh_globals.o)
                0x400430dc                __cxa_get_globals_fast
                0x400430e4                __cxa_get_globals
 .text          0x400430ec      0x148 e:/altera/10.1/nios2eds/bin/gnu/h-i686-mingw32/bin/../lib/gcc/nios2-elf/4.1.2/../../../../nios2-elf/lib\libstdc++.a(eh_throw.o)
                0x400430ec                __cxa_rethrow
                0x40043160                __cxa_throw
 .text          0x40043234       0x44 e:/altera/10.1/nios2eds/bin/gnu/h-i686-mingw32/bin/../lib/gcc/nios2-elf/4.1.2/../../../../nios2-elf/lib\libstdc++.a(eh_call.o)
                0x40043234                __cxa_call_terminate
 .text          0x40043278      0x178 e:/altera/10.1/nios2eds/bin/gnu/h-i686-mingw32/bin/../lib/gcc/nios2-elf/4.1.2/../../../../nios2-elf/lib\libstdc++.a(eh_catch.o)
                0x40043278                __cxa_get_exception_ptr
                0x40043280                std::uncaught_exception()
                0x400432a0                __cxa_end_catch
                0x40043344                __cxa_begin_catch
 .text          0x400433f0       0x94 e:/altera/10.1/nios2eds/bin/gnu/h-i686-mingw32/bin/../lib/gcc/nios2-elf/4.1.2/../../../../nios2-elf/lib\libstdc++.a(eh_exception.o)
                0x400433f0                std::exception::what() const
                0x40043400                std::exception::~exception()
                0x40043410                std::exception::~exception()
                0x40043420                std::exception::~exception()
                0x40043430                std::bad_exception::~bad_exception()
                0x40043464                std::bad_exception::~bad_exception()
                0x40043474                std::bad_exception::~bad_exception()
 .text          0x40043484       0x94 e:/altera/10.1/nios2eds/bin/gnu/h-i686-mingw32/bin/../lib/gcc/nios2-elf/4.1.2/../../../../nios2-elf/lib\libstdc++.a(eh_terminate.o)
                0x40043484                std::set_terminate(void (*)())
                0x40043498                std::set_unexpected(void (*)())
                0x400434ac                __cxxabiv1::__terminate(void (*)())
                0x400434d8                std::terminate()
                0x400434f0                __cxxabiv1::__unexpected(void (*)())
                0x40043500                std::unexpected()
 .text          0x40043518      0x1c8 e:/altera/10.1/nios2eds/bin/gnu/h-i686-mingw32/bin/../lib/gcc/nios2-elf/4.1.2/../../../../nios2-elf/lib\libstdc++.a(si_class_type_info.o)
                0x40043518                __cxxabiv1::__si_class_type_info::__do_upcast(__cxxabiv1::__class_type_info const*, void const*, __cxxabiv1::__class_type_info::__upcast_result&) const
                0x40043590                __cxxabiv1::__si_class_type_info::~__si_class_type_info()
                0x400435c4                __cxxabiv1::__si_class_type_info::~__si_class_type_info()
                0x400435d4                __cxxabiv1::__si_class_type_info::~__si_class_type_info()
                0x400435e4                __cxxabiv1::__si_class_type_info::__do_find_public_src(long, void const*, __cxxabiv1::__class_type_info const*, void const*) const
                0x40043618                __cxxabiv1::__si_class_type_info::__do_dyncast(long, __cxxabiv1::__class_type_info::__sub_kind, __cxxabiv1::__class_type_info const*, void const*, __cxxabiv1::__class_type_info const*, void const*, __cxxabiv1::__class_type_info::__dyncast_result&) const
 .text          0x400436e0      0x104 e:/altera/10.1/nios2eds/bin/gnu/h-i686-mingw32/bin/../lib/gcc/nios2-elf/4.1.2/../../../../nios2-elf/lib\libstdc++.a(eh_alloc.o)
                0x400436e0                __cxa_free_exception
                0x40043720                __cxa_allocate_exception
 .text          0x400437e4        0x0 e:/altera/10.1/nios2eds/bin/gnu/h-i686-mingw32/bin/../lib/gcc/nios2-elf/4.1.2/../../../../nios2-elf/lib\libstdc++.a(eh_term_handler.o)
 .text          0x400437e4       0x58 e:/altera/10.1/nios2eds/bin/gnu/h-i686-mingw32/bin/../lib/gcc/nios2-elf/4.1.2/../../../../nios2-elf/lib\libstdc++.a(tinfo.o)
                0x400437e4                std::type_info::__is_pointer_p() const
                0x400437ec                std::type_info::__is_function_p() const
                0x400437f4                std::type_info::__do_catch(std::type_info const*, void**, unsigned int) const
                0x40043804                std::type_info::__do_upcast(__cxxabiv1::__class_type_info const*, void**) const
                0x4004380c                std::type_info::~type_info()
                0x4004381c                std::type_info::~type_info()
                0x4004382c                std::type_info::~type_info()
 .text          0x4004383c        0xc e:/altera/10.1/nios2eds/bin/gnu/h-i686-mingw32/bin/../lib/gcc/nios2-elf/4.1.2/../../../../nios2-elf/lib\libstdc++.a(del_op.o)
                0x4004383c                operator delete(void*)
 .text          0x40043848      0x1bc e:/altera/10.1/nios2eds/bin/gnu/h-i686-mingw32/bin/../lib/gcc/nios2-elf/4.1.2/../../../../nios2-elf/lib\libstdc++.a(class_type_info.o)
                0x40043848                __cxxabiv1::__class_type_info::__do_upcast(__cxxabiv1::__class_type_info const*, void**) const
                0x400438b4                __cxxabiv1::__class_type_info::__do_find_public_src(long, void const*, __cxxabiv1::__class_type_info const*, void const*) const
                0x400438d4                __cxxabiv1::__class_type_info::~__class_type_info()
                0x40043908                __cxxabiv1::__class_type_info::~__class_type_info()
                0x40043918                __cxxabiv1::__class_type_info::~__class_type_info()
                0x40043928                __cxxabiv1::__class_type_info::__do_catch(std::type_info const*, void**, unsigned int) const
                0x40043988                __cxxabiv1::__class_type_info::__do_upcast(__cxxabiv1::__class_type_info const*, void const*, __cxxabiv1::__class_type_info::__upcast_result&) const
                0x400439b8                __cxxabiv1::__class_type_info::__do_dyncast(long, __cxxabiv1::__class_type_info::__sub_kind, __cxxabiv1::__class_type_info const*, void const*, __cxxabiv1::__class_type_info const*, void const*, __cxxabiv1::__class_type_info::__dyncast_result&) const
 .text          0x40043a04        0x0 e:/altera/10.1/nios2eds/bin/gnu/h-i686-mingw32/bin/../lib/gcc/nios2-elf/4.1.2/../../../../nios2-elf/lib\libstdc++.a(eh_unex_handler.o)
 .text          0x40043a04       0x98 e:/altera/10.1/nios2eds/bin/gnu/h-i686-mingw32/bin/../lib/gcc/nios2-elf/4.1.2\libgcc.a(_muldi3.o)
                0x40043a04                __muldi3
 .text          0x40043a9c       0xa4 e:/altera/10.1/nios2eds/bin/gnu/h-i686-mingw32/bin/../lib/gcc/nios2-elf/4.1.2\libgcc.a(_fixunsdfsi.o)
                0x40043a9c                __fixunsdfsi
 .text          0x40043b40       0x88 e:/altera/10.1/nios2eds/bin/gnu/h-i686-mingw32/bin/../lib/gcc/nios2-elf/4.1.2\libgcc.a(_floatdidf.o)
                0x40043b40                __floatdidf
 .text          0x40043bc8      0x680 e:/altera/10.1/nios2eds/bin/gnu/h-i686-mingw32/bin/../lib/gcc/nios2-elf/4.1.2\libgcc.a(_divdi3.o)
                0x40043bc8                __divdi3
 .text          0x40044248      0x504 e:/altera/10.1/nios2eds/bin/gnu/h-i686-mingw32/bin/../lib/gcc/nios2-elf/4.1.2\libgcc.a(_addsub_df.o)
                0x40044658                __subdf3
                0x400446d8                __adddf3
 .text          0x4004474c      0x3c4 e:/altera/10.1/nios2eds/bin/gnu/h-i686-mingw32/bin/../lib/gcc/nios2-elf/4.1.2\libgcc.a(_mul_df.o)
                0x4004474c                __muldf3
 .text          0x40044b10      0x258 e:/altera/10.1/nios2eds/bin/gnu/h-i686-mingw32/bin/../lib/gcc/nios2-elf/4.1.2\libgcc.a(_div_df.o)
                0x40044b10                __divdf3
 .text          0x40044d68       0x88 e:/altera/10.1/nios2eds/bin/gnu/h-i686-mingw32/bin/../lib/gcc/nios2-elf/4.1.2\libgcc.a(_ne_df.o)
                0x40044d68                __nedf2
 .text          0x40044df0       0x88 e:/altera/10.1/nios2eds/bin/gnu/h-i686-mingw32/bin/../lib/gcc/nios2-elf/4.1.2\libgcc.a(_ge_df.o)
                0x40044df0                __gedf2
 .text          0x40044e78       0xf8 e:/altera/10.1/nios2eds/bin/gnu/h-i686-mingw32/bin/../lib/gcc/nios2-elf/4.1.2\libgcc.a(_si_to_df.o)
                0x40044e78                __floatsidf
 .text          0x40044f70       0xd8 e:/altera/10.1/nios2eds/bin/gnu/h-i686-mingw32/bin/../lib/gcc/nios2-elf/4.1.2\libgcc.a(_df_to_si.o)
                0x40044f70                __fixdfsi
 .text          0x40045048        0x0 e:/altera/10.1/nios2eds/bin/gnu/h-i686-mingw32/bin/../lib/gcc/nios2-elf/4.1.2\libgcc.a(_thenan_df.o)
 .text          0x40045048      0x194 e:/altera/10.1/nios2eds/bin/gnu/h-i686-mingw32/bin/../lib/gcc/nios2-elf/4.1.2\libgcc.a(_usi_to_df.o)
                0x40045048                __floatunsidf
 .text          0x400451dc      0x14c e:/altera/10.1/nios2eds/bin/gnu/h-i686-mingw32/bin/../lib/gcc/nios2-elf/4.1.2\libgcc.a(lib2-divmod.o)
                0x40045258                __divsi3
                0x400452b8                __modsi3
                0x40045318                __udivsi3
                0x40045320                __umodsi3
 .text          0x40045328     0x26c8 e:/altera/10.1/nios2eds/bin/gnu/h-i686-mingw32/bin/../lib/gcc/nios2-elf/4.1.2\libgcc.a(unwind-dw2.o)
                0x400453ac                _Unwind_GetCFA
                0x400453b4                _Unwind_GetIP
                0x400453bc                _Unwind_GetIPInfo
                0x400453d0                _Unwind_SetIP
                0x400453d8                _Unwind_GetLanguageSpecificData
                0x400453e0                _Unwind_GetRegionStart
                0x400453e8                _Unwind_GetDataRelBase
                0x400453f0                _Unwind_GetTextRelBase
                0x400453f8                _Unwind_DeleteException
                0x40045410                _Unwind_SetGR
                0x4004548c                _Unwind_GetGR
                0x40045760                _Unwind_FindEnclosingFunction
                0x40046170                __frame_state_for
                0x400472e0                _Unwind_Backtrace
                0x40047478                _Unwind_RaiseException
                0x400476f8                _Unwind_Resume_or_Rethrow
                0x400477f4                _Unwind_Resume
                0x400478f4                _Unwind_ForcedUnwind
 .text          0x400479f0     0x15e0 e:/altera/10.1/nios2eds/bin/gnu/h-i686-mingw32/bin/../lib/gcc/nios2-elf/4.1.2\libgcc.a(unwind-dw2-fde.o)
                0x40047a74                __register_frame_info_bases
                0x40047aac                __register_frame_info
                0x40047ab8                __register_frame_info_table_bases
                0x40047ae4                __register_frame_info_table
                0x4004859c                __register_frame_table
                0x400485cc                __register_frame
                0x40048614                __deregister_frame_info_bases
                0x400486f0                __deregister_frame_info
                0x400486f4                __deregister_frame
                0x40048dac                _Unwind_Find_FDE
 .text          0x40048fd0        0x0 e:/altera/10.1/nios2eds/bin/gnu/h-i686-mingw32/bin/../lib/gcc/nios2-elf/4.1.2\libgcc.a(_clz.o)
 .text          0x40048fd0       0x80 e:/altera/10.1/nios2eds/bin/gnu/h-i686-mingw32/bin/../lib/gcc/nios2-elf/4.1.2\libgcc.a(_clzsi2.o)
                0x40048fd0                __clzsi2
 .text          0x40049050      0x314 e:/altera/10.1/nios2eds/bin/gnu/h-i686-mingw32/bin/../lib/gcc/nios2-elf/4.1.2\libgcc.a(_pack_df.o)
                0x40049050                __pack_d
 .text          0x40049364      0x138 e:/altera/10.1/nios2eds/bin/gnu/h-i686-mingw32/bin/../lib/gcc/nios2-elf/4.1.2\libgcc.a(_unpack_df.o)
                0x40049364                __unpack_d
 .text          0x4004949c       0xc8 e:/altera/10.1/nios2eds/bin/gnu/h-i686-mingw32/bin/../lib/gcc/nios2-elf/4.1.2\libgcc.a(_fpcmp_parts_df.o)
                0x4004949c                __fpcmp_parts_d
 .text          0x40049564       0x18 e:/altera/10.1/nios2eds/bin/gnu/h-i686-mingw32/bin/../lib/gcc/nios2-elf/4.1.2/../../../../nios2-elf/lib\libc.a(lib_a-abort.o)
                0x40049564                abort
 .text          0x4004957c       0x10 e:/altera/10.1/nios2eds/bin/gnu/h-i686-mingw32/bin/../lib/gcc/nios2-elf/4.1.2/../../../../nios2-elf/lib\libc.a(lib_a-bcopy.o)
                0x4004957c                bcopy
 .text          0x4004958c        0x0 e:/altera/10.1/nios2eds/bin/gnu/h-i686-mingw32/bin/../lib/gcc/nios2-elf/4.1.2/../../../../nios2-elf/lib\libc.a(lib_a-ctype_.o)
 .text          0x4004958c       0x28 e:/altera/10.1/nios2eds/bin/gnu/h-i686-mingw32/bin/../lib/gcc/nios2-elf/4.1.2/../../../../nios2-elf/lib\libc.a(lib_a-malloc.o)
                0x4004958c                free
                0x400495a0                malloc
 .text          0x400495b4      0x740 e:/altera/10.1/nios2eds/bin/gnu/h-i686-mingw32/bin/../lib/gcc/nios2-elf/4.1.2/../../../../nios2-elf/lib\libc.a(lib_a-mallocr.o)
                0x400495b4                _malloc_r
 .text          0x40049cf4       0xa0 e:/altera/10.1/nios2eds/bin/gnu/h-i686-mingw32/bin/../lib/gcc/nios2-elf/4.1.2/../../../../nios2-elf/lib\libc.a(lib_a-memcpy.o)
                0x40049cf4                memcpy
 .text          0x40049d94       0xe0 e:/altera/10.1/nios2eds/bin/gnu/h-i686-mingw32/bin/../lib/gcc/nios2-elf/4.1.2/../../../../nios2-elf/lib\libc.a(lib_a-memmove.o)
                0x40049d94                memmove
 .text          0x40049e74       0x98 e:/altera/10.1/nios2eds/bin/gnu/h-i686-mingw32/bin/../lib/gcc/nios2-elf/4.1.2/../../../../nios2-elf/lib\libc.a(lib_a-memset.o)
                0x40049e74                memset
 .text          0x40049f0c       0x78 e:/altera/10.1/nios2eds/bin/gnu/h-i686-mingw32/bin/../lib/gcc/nios2-elf/4.1.2/../../../../nios2-elf/lib\libc.a(lib_a-printf.o)
                0x40049f0c                printf
                0x40049f50                _printf_r
 .text          0x40049f84       0x24 e:/altera/10.1/nios2eds/bin/gnu/h-i686-mingw32/bin/../lib/gcc/nios2-elf/4.1.2/../../../../nios2-elf/lib\libc.a(lib_a-putchar.o)
                0x40049f84                putchar
                0x40049fa0                _putchar_r
 .text          0x40049fa8       0xb4 e:/altera/10.1/nios2eds/bin/gnu/h-i686-mingw32/bin/../lib/gcc/nios2-elf/4.1.2/../../../../nios2-elf/lib\libc.a(lib_a-puts.o)
                0x40049fa8                _puts_r
                0x4004a048                puts
 .text          0x4004a05c       0x94 e:/altera/10.1/nios2eds/bin/gnu/h-i686-mingw32/bin/../lib/gcc/nios2-elf/4.1.2/../../../../nios2-elf/lib\libc.a(lib_a-rand.o)
                0x4004a05c                srand
                0x4004a078                rand
 .text          0x4004a0f0       0x70 e:/altera/10.1/nios2eds/bin/gnu/h-i686-mingw32/bin/../lib/gcc/nios2-elf/4.1.2/../../../../nios2-elf/lib\libc.a(lib_a-sbrkr.o)
                0x4004a0f0                _sbrk_r
 .text          0x4004a160      0x2d8 e:/altera/10.1/nios2eds/bin/gnu/h-i686-mingw32/bin/../lib/gcc/nios2-elf/4.1.2/../../../../nios2-elf/lib\libc.a(lib_a-signal.o)
                0x4004a160                _raise_r
                0x4004a22c                raise
                0x4004a240                _init_signal_r
                0x4004a2a4                _init_signal
                0x4004a2b4                __sigtramp_r
                0x4004a368                __sigtramp
                0x4004a37c                _signal_r
                0x4004a41c                signal
 .text          0x4004a438       0x78 e:/altera/10.1/nios2eds/bin/gnu/h-i686-mingw32/bin/../lib/gcc/nios2-elf/4.1.2/../../../../nios2-elf/lib\libc.a(lib_a-signalr.o)
                0x4004a438                _getpid_r
                0x4004a43c                _kill_r
 .text          0x4004a4b0      0x170 e:/altera/10.1/nios2eds/bin/gnu/h-i686-mingw32/bin/../lib/gcc/nios2-elf/4.1.2/../../../../nios2-elf/lib\libc.a(lib_a-snprintf.o)
                0x4004a4b0                snprintf
                0x4004a56c                _snprintf_r
 .text          0x4004a620       0xd4 e:/altera/10.1/nios2eds/bin/gnu/h-i686-mingw32/bin/../lib/gcc/nios2-elf/4.1.2/../../../../nios2-elf/lib\libc.a(lib_a-sprintf.o)
                0x4004a620                sprintf
                0x4004a694                _sprintf_r
 .text          0x4004a6f4       0xbc e:/altera/10.1/nios2eds/bin/gnu/h-i686-mingw32/bin/../lib/gcc/nios2-elf/4.1.2/../../../../nios2-elf/lib\libc.a(lib_a-strcmp.o)
                0x4004a6f4                strcmp
 .text          0x4004a7b0       0x8c e:/altera/10.1/nios2eds/bin/gnu/h-i686-mingw32/bin/../lib/gcc/nios2-elf/4.1.2/../../../../nios2-elf/lib\libc.a(lib_a-strcpy.o)
                0x4004a7b0                strcpy
 .text          0x4004a83c       0x14 e:/altera/10.1/nios2eds/bin/gnu/h-i686-mingw32/bin/../lib/gcc/nios2-elf/4.1.2/../../../../nios2-elf/lib\libc.a(lib_a-strdup.o)
                0x4004a83c                strdup
 .text          0x4004a850       0x68 e:/altera/10.1/nios2eds/bin/gnu/h-i686-mingw32/bin/../lib/gcc/nios2-elf/4.1.2/../../../../nios2-elf/lib\libc.a(lib_a-strdup_r.o)
                0x4004a850                _strdup_r
 .text          0x4004a8b8       0x7c e:/altera/10.1/nios2eds/bin/gnu/h-i686-mingw32/bin/../lib/gcc/nios2-elf/4.1.2/../../../../nios2-elf/lib\libc.a(lib_a-strlcpy.o)
                0x4004a8b8                strlcpy
 .text          0x4004a934       0x74 e:/altera/10.1/nios2eds/bin/gnu/h-i686-mingw32/bin/../lib/gcc/nios2-elf/4.1.2/../../../../nios2-elf/lib\libc.a(lib_a-strlen.o)
                0x4004a934                strlen
 .text          0x4004a9a8       0xbc e:/altera/10.1/nios2eds/bin/gnu/h-i686-mingw32/bin/../lib/gcc/nios2-elf/4.1.2/../../../../nios2-elf/lib\libc.a(lib_a-strncpy.o)
                0x4004a9a8                strncpy
 .text          0x4004aa64       0x38 e:/altera/10.1/nios2eds/bin/gnu/h-i686-mingw32/bin/../lib/gcc/nios2-elf/4.1.2/../../../../nios2-elf/lib\libc.a(lib_a-strnlen.o)
                0x4004aa64                strnlen
 .text          0x4004aa9c     0x1f28 e:/altera/10.1/nios2eds/bin/gnu/h-i686-mingw32/bin/../lib/gcc/nios2-elf/4.1.2/../../../../nios2-elf/lib\libc.a(lib_a-vfprintf.o)
                0x4004aaf4                ___vfprintf_internal_r
                0x4004c9a0                __vfprintf_internal
 .text          0x4004c9c4       0x34 e:/altera/10.1/nios2eds/bin/gnu/h-i686-mingw32/bin/../lib/gcc/nios2-elf/4.1.2/../../../../nios2-elf/lib\libc.a(lib_a-vprintf.o)
                0x4004c9c4                _vprintf_r
                0x4004c9d8                vprintf
 .text          0x4004c9f8       0xf4 e:/altera/10.1/nios2eds/bin/gnu/h-i686-mingw32/bin/../lib/gcc/nios2-elf/4.1.2/../../../../nios2-elf/lib\libc.a(lib_a-vsnprintf.o)
                0x4004c9f8                _vsnprintf_r
                0x4004caac                vsnprintf
 .text          0x4004caec       0x74 e:/altera/10.1/nios2eds/bin/gnu/h-i686-mingw32/bin/../lib/gcc/nios2-elf/4.1.2/../../../../nios2-elf/lib\libc.a(lib_a-vsprintf.o)
                0x4004caec                _vsprintf_r
                0x4004cb3c                vsprintf
 .text          0x4004cb60      0x13c e:/altera/10.1/nios2eds/bin/gnu/h-i686-mingw32/bin/../lib/gcc/nios2-elf/4.1.2/../../../../nios2-elf/lib\libc.a(lib_a-wsetup.o)
                0x4004cb60                __swsetup_r
 .text          0x4004cc9c     0x17cc e:/altera/10.1/nios2eds/bin/gnu/h-i686-mingw32/bin/../lib/gcc/nios2-elf/4.1.2/../../../../nios2-elf/lib\libc.a(lib_a-dtoa.o)
                0x4004ceb4                _dtoa_r
 .text          0x4004e468      0x230 e:/altera/10.1/nios2eds/bin/gnu/h-i686-mingw32/bin/../lib/gcc/nios2-elf/4.1.2/../../../../nios2-elf/lib\libc.a(lib_a-fflush.o)
                0x4004e468                _fflush_r
                0x4004e664                fflush
 .text          0x4004e698      0x2c0 e:/altera/10.1/nios2eds/bin/gnu/h-i686-mingw32/bin/../lib/gcc/nios2-elf/4.1.2/../../../../nios2-elf/lib\libc.a(lib_a-findfp.o)
                0x4004e6f0                __sfp_lock_acquire
                0x4004e6f4                __sfp_lock_release
                0x4004e6f8                __sinit_lock_acquire
                0x4004e6fc                __sinit_lock_release
                0x4004e700                __sinit
                0x4004e7b4                __fp_unlock_all
                0x4004e7cc                __fp_lock_all
                0x4004e7e4                _cleanup_r
                0x4004e7f0                _cleanup
                0x4004e800                __sfmoreglue
                0x4004e868                __sfp
 .text          0x4004e958      0x440 e:/altera/10.1/nios2eds/bin/gnu/h-i686-mingw32/bin/../lib/gcc/nios2-elf/4.1.2/../../../../nios2-elf/lib\libc.a(lib_a-freer.o)
                0x4004e958                _malloc_trim_r
                0x4004ea84                _free_r
 .text          0x4004ed98      0x49c e:/altera/10.1/nios2eds/bin/gnu/h-i686-mingw32/bin/../lib/gcc/nios2-elf/4.1.2/../../../../nios2-elf/lib\libc.a(lib_a-fvwrite.o)
                0x4004ed98                __sfvwrite_r
 .text          0x4004f234      0x180 e:/altera/10.1/nios2eds/bin/gnu/h-i686-mingw32/bin/../lib/gcc/nios2-elf/4.1.2/../../../../nios2-elf/lib\libc.a(lib_a-fwalk.o)
                0x4004f234                _fwalk_reent
                0x4004f2fc                _fwalk
 .text          0x4004f3b4        0x0 e:/altera/10.1/nios2eds/bin/gnu/h-i686-mingw32/bin/../lib/gcc/nios2-elf/4.1.2/../../../../nios2-elf/lib\libc.a(lib_a-impure.o)
 .text          0x4004f3b4        0x0 e:/altera/10.1/nios2eds/bin/gnu/h-i686-mingw32/bin/../lib/gcc/nios2-elf/4.1.2/../../../../nios2-elf/lib\libc.a(lib_a-int_errno.o)
 .text          0x4004f3b4       0xc4 e:/altera/10.1/nios2eds/bin/gnu/h-i686-mingw32/bin/../lib/gcc/nios2-elf/4.1.2/../../../../nios2-elf/lib\libc.a(lib_a-locale.o)
                0x4004f3b4                __locale_charset
                0x4004f3bc                _localeconv_r
                0x4004f3c8                localeconv
                0x4004f3d8                _setlocale_r
                0x4004f45c                setlocale
 .text          0x4004f478      0x194 e:/altera/10.1/nios2eds/bin/gnu/h-i686-mingw32/bin/../lib/gcc/nios2-elf/4.1.2/../../../../nios2-elf/lib\libc.a(lib_a-makebuf.o)
                0x4004f478                __smakebuf_r
 .text          0x4004f60c       0xe4 e:/altera/10.1/nios2eds/bin/gnu/h-i686-mingw32/bin/../lib/gcc/nios2-elf/4.1.2/../../../../nios2-elf/lib\libc.a(lib_a-memchr.o)
                0x4004f60c                memchr
 .text          0x4004f6f0      0xff4 e:/altera/10.1/nios2eds/bin/gnu/h-i686-mingw32/bin/../lib/gcc/nios2-elf/4.1.2/../../../../nios2-elf/lib\libc.a(lib_a-mprec.o)
                0x4004f6f0                _Bfree
                0x4004f718                __hi0bits
                0x4004f788                __lo0bits
                0x4004f84c                __mcmp
                0x4004f8ac                __ulp
                0x4004f92c                __b2d
                0x4004fa4c                __ratio
                0x4004fafc                _mprec_log10
                0x4004fb90                __copybits
                0x4004fbe8                __any_on
                0x4004fc70                _Balloc
                0x4004fd2c                __d2b
                0x4004fea8                __mdiff
                0x40050034                __lshift
                0x40050180                __multiply
                0x40050368                __i2b
                0x400503a4                __multadd
                0x400504a4                __pow5mult
                0x400505c4                __s2b
 .text          0x400506e4      0x1ec e:/altera/10.1/nios2eds/bin/gnu/h-i686-mingw32/bin/../lib/gcc/nios2-elf/4.1.2/../../../../nios2-elf/lib\libc.a(lib_a-putc.o)
                0x400506e4                putc
                0x400507e8                _putc_r
 .text          0x400508d0      0x5f4 e:/altera/10.1/nios2eds/bin/gnu/h-i686-mingw32/bin/../lib/gcc/nios2-elf/4.1.2/../../../../nios2-elf/lib\libc.a(lib_a-reallocr.o)
                0x400508d0                _realloc_r
 .text          0x40050ec4       0x40 e:/altera/10.1/nios2eds/bin/gnu/h-i686-mingw32/bin/../lib/gcc/nios2-elf/4.1.2/../../../../nios2-elf/lib\libc.a(lib_a-s_isinfd.o)
                0x40050ec4                __isinfd
 .text          0x40050f04       0x30 e:/altera/10.1/nios2eds/bin/gnu/h-i686-mingw32/bin/../lib/gcc/nios2-elf/4.1.2/../../../../nios2-elf/lib\libc.a(lib_a-s_isnand.o)
                0x40050f04                __isnand
 .text          0x40050f34      0x14c e:/altera/10.1/nios2eds/bin/gnu/h-i686-mingw32/bin/../lib/gcc/nios2-elf/4.1.2/../../../../nios2-elf/lib\libc.a(lib_a-stdio.o)
                0x40050f34                __sclose
                0x40050f3c                __sseek
                0x40050fa4                __swrite
                0x40051020                __sread
 .text          0x40051080      0x14c e:/altera/10.1/nios2eds/bin/gnu/h-i686-mingw32/bin/../lib/gcc/nios2-elf/4.1.2/../../../../nios2-elf/lib\libc.a(lib_a-wbuf.o)
                0x40051080                __swbuf_r
                0x400511b0                __swbuf
 .text          0x400511cc       0x78 e:/altera/10.1/nios2eds/bin/gnu/h-i686-mingw32/bin/../lib/gcc/nios2-elf/4.1.2/../../../../nios2-elf/lib\libc.a(lib_a-writer.o)
                0x400511cc                _write_r
 .text          0x40051244       0xb4 e:/altera/10.1/nios2eds/bin/gnu/h-i686-mingw32/bin/../lib/gcc/nios2-elf/4.1.2/../../../../nios2-elf/lib\libc.a(lib_a-callocr.o)
                0x40051244                _calloc_r
 .text          0x400512f8       0x70 e:/altera/10.1/nios2eds/bin/gnu/h-i686-mingw32/bin/../lib/gcc/nios2-elf/4.1.2/../../../../nios2-elf/lib\libc.a(lib_a-closer.o)
                0x400512f8                _close_r
 .text          0x40051368      0x124 e:/altera/10.1/nios2eds/bin/gnu/h-i686-mingw32/bin/../lib/gcc/nios2-elf/4.1.2/../../../../nios2-elf/lib\libc.a(lib_a-fclose.o)
                0x40051368                _fclose_r
                0x40051478                fclose
 .text          0x4005148c       0x74 e:/altera/10.1/nios2eds/bin/gnu/h-i686-mingw32/bin/../lib/gcc/nios2-elf/4.1.2/../../../../nios2-elf/lib\libc.a(lib_a-fstatr.o)
                0x4005148c                _fstat_r
 .text          0x40051500       0x70 e:/altera/10.1/nios2eds/bin/gnu/h-i686-mingw32/bin/../lib/gcc/nios2-elf/4.1.2/../../../../nios2-elf/lib\libc.a(lib_a-isattyr.o)
                0x40051500                _isatty_r
 .text          0x40051570       0x78 e:/altera/10.1/nios2eds/bin/gnu/h-i686-mingw32/bin/../lib/gcc/nios2-elf/4.1.2/../../../../nios2-elf/lib\libc.a(lib_a-lseekr.o)
                0x40051570                _lseek_r
 .text          0x400515e8       0x78 e:/altera/10.1/nios2eds/bin/gnu/h-i686-mingw32/bin/../lib/gcc/nios2-elf/4.1.2/../../../../nios2-elf/lib\libc.a(lib_a-readr.o)
                0x400515e8                _read_r
 .text          0x40051660      0x5dc e:/altera/10.1/nios2eds/bin/gnu/h-i686-mingw32/bin/../lib/gcc/nios2-elf/4.1.2\libgcc.a(_udivdi3.o)
                0x40051660                __udivdi3
 .text          0x40051c3c      0x5b0 e:/altera/10.1/nios2eds/bin/gnu/h-i686-mingw32/bin/../lib/gcc/nios2-elf/4.1.2\libgcc.a(_umoddi3.o)
                0x40051c3c                __umoddi3
 .text          0x400521ec       0x88 e:/altera/10.1/nios2eds/bin/gnu/h-i686-mingw32/bin/../lib/gcc/nios2-elf/4.1.2\libgcc.a(_eq_df.o)
                0x400521ec                __eqdf2
 .text          0x40052274       0x88 e:/altera/10.1/nios2eds/bin/gnu/h-i686-mingw32/bin/../lib/gcc/nios2-elf/4.1.2\libgcc.a(_gt_df.o)
                0x40052274                __gtdf2
 .text          0x400522fc       0x88 e:/altera/10.1/nios2eds/bin/gnu/h-i686-mingw32/bin/../lib/gcc/nios2-elf/4.1.2\libgcc.a(_lt_df.o)
                0x400522fc                __ltdf2
 .text          0x40052384       0xc8 ../mf2_ddr_ucos_bsp/\libucosii_bsp.a(alt_close.o)
                0x400523ac                close
 .text          0x4005244c       0x10 ../mf2_ddr_ucos_bsp/\libucosii_bsp.a(alt_dev.o)
 .text          0x4005245c        0x0 ../mf2_ddr_ucos_bsp/\libucosii_bsp.a(alt_errno.o)
 .text          0x4005245c       0x28 ../mf2_ddr_ucos_bsp/\libucosii_bsp.a(alt_exit.o)
                0x4005245c                _exit
 .text          0x40052484       0x8c ../mf2_ddr_ucos_bsp/\libucosii_bsp.a(alt_fstat.o)
                0x40052484                fstat
 .text          0x40052510       0x10 ../mf2_ddr_ucos_bsp/\libucosii_bsp.a(alt_getpid.o)
                0x40052510                getpid
 .text          0x40052520       0xbc ../mf2_ddr_ucos_bsp/\libucosii_bsp.a(alt_iic.o)
                0x40052520                alt_ic_irq_enabled
                0x40052540                alt_ic_irq_enable
                0x40052588                alt_ic_irq_disable
                0x400525d0                alt_ic_isr_register
 .text          0x400525dc       0x74 ../mf2_ddr_ucos_bsp/\libucosii_bsp.a(alt_iic_isr_register.o)
                0x400525dc                alt_iic_isr_register
 .text          0x40052650       0x18 ../mf2_ddr_ucos_bsp/\libucosii_bsp.a(alt_instruction_exception_register.o)
                0x40052650                alt_instruction_exception_register
 .text          0x40052668        0x0 ../mf2_ddr_ucos_bsp/\libucosii_bsp.a(alt_irq_entry.o)
 .text          0x40052668        0x0 ../mf2_ddr_ucos_bsp/\libucosii_bsp.a(alt_irq_vars.o)
 .text          0x40052668       0x88 ../mf2_ddr_ucos_bsp/\libucosii_bsp.a(alt_isatty.o)
                0x40052668                isatty
 .text          0x400526f0      0x118 ../mf2_ddr_ucos_bsp/\libucosii_bsp.a(alt_kill.o)
                0x400526f0                kill
 .text          0x40052808       0x9c ../mf2_ddr_ucos_bsp/\libucosii_bsp.a(alt_load.o)
                0x40052830                alt_load
 .text          0x400528a4       0xa4 ../mf2_ddr_ucos_bsp/\libucosii_bsp.a(alt_lseek.o)
                0x400528a4                lseek
 .text          0x40052948       0xb0 ../mf2_ddr_ucos_bsp/\libucosii_bsp.a(alt_main.o)
                0x40052948                alt_main
 .text          0x400529f8       0xc4 ../mf2_ddr_ucos_bsp/\libucosii_bsp.a(alt_read.o)
                0x40052a20                read
 .text          0x40052abc       0x2c ../mf2_ddr_ucos_bsp/\libucosii_bsp.a(alt_release_fd.o)
                0x40052abc                alt_release_fd
 .text          0x40052ae8       0x7c ../mf2_ddr_ucos_bsp/\libucosii_bsp.a(alt_sbrk.o)
                0x40052ae8                sbrk
 .text          0x40052b64       0xf0 ../mf2_ddr_ucos_bsp/\libucosii_bsp.a(alt_tick.o)
                0x40052b64                alt_alarm_stop
                0x40052ba0                alt_tick
 .text          0x40052c54       0xf4 ../mf2_ddr_ucos_bsp/\libucosii_bsp.a(alt_usleep.o)
                0x40052c54                usleep
 .text          0x40052d48       0xc0 ../mf2_ddr_ucos_bsp/\libucosii_bsp.a(alt_write.o)
                0x40052d70                write
 .text          0x40052e08       0xe0 ../mf2_ddr_ucos_bsp/\libucosii_bsp.a(os_cpu_a.o)
                0x40052e08                OSCtxSw
                0x40052e08                OSIntCtxSw
                0x40052ea4                OSStartHighRdy
                0x40052ec4                OSStartTsk
 .text          0x40052ee8       0xb8 ../mf2_ddr_ucos_bsp/\libucosii_bsp.a(alt_env_lock.o)
                0x40052ee8                __env_unlock
                0x40052f18                __env_lock
 .text          0x40052fa0      0x120 ../mf2_ddr_ucos_bsp/\libucosii_bsp.a(alt_malloc_lock.o)
                0x40052fa0                __malloc_unlock
                0x40053004                __malloc_lock
 .text          0x400530c0     0x1208 ../mf2_ddr_ucos_bsp/\libucosii_bsp.a(os_core.o)
                0x400530c0                OSVersion
                0x400530d0                OS_Dummy
                0x400530dc                OS_EventTaskWait
                0x40053168                OS_EventTaskWaitMulti
                0x40053210                OS_EventTaskRemove
                0x40053264                OS_EventTaskRemoveMulti
                0x400532c8                OS_EventTaskRdy
                0x400533c4                OS_EventWaitListInit
                0x400533f4                OS_MemClr
                0x40053418                OS_MemCopy
                0x40053444                OS_StrCopy
                0x40053478                OS_StrLen
                0x400534a0                OS_TaskStatStkChk
                0x4005352c                OS_Sched
                0x400535ec                OSStart
                0x40053660                OSInit
                0x4005384c                OSEventNameGet
                0x4005390c                OSEventPendMulti
                0x40053c6c                OSIntEnter
                0x40053cb0                OSSchedLock
                0x40053cfc                OSSchedUnlock
                0x40053d58                OSStatInit
                0x40053dc4                OSTimeTick
                0x40053ed8                OS_TaskIdle
                0x40053f10                OS_TaskStat
                0x40053f9c                OS_TCBInit
                0x40054128                OSIntExit
                0x40054204                OSEventNameSet
 .text          0x400542c8        0xc ../mf2_ddr_ucos_bsp/\libucosii_bsp.a(os_dbg.o)
                0x400542c8                OSDebugInit
 .text          0x400542d4      0xcc4 ../mf2_ddr_ucos_bsp/\libucosii_bsp.a(os_flag.o)
                0x40054394                OS_FlagUnlink
                0x40054470                OS_FlagInit
                0x400544e8                OSFlagQuery
                0x4005454c                OSFlagAccept
                0x400546c4                OSFlagCreate
                0x40054754                OSFlagDel
                0x400548bc                OSFlagNameGet
                0x40054984                OSFlagNameSet
                0x40054a60                OSFlagPend
                0x40054d68                OSFlagPendGetFlagsRdy
                0x40054d9c                OSFlagPost
 .text          0x40054f98      0x3f0 ../mf2_ddr_ucos_bsp/\libucosii_bsp.a(os_mem.o)
                0x40054f98                OS_MemInit
                0x40055008                OSMemQuery
                0x40055074                OSMemCreate
                0x4005514c                OSMemGet
                0x400551c0                OSMemNameGet
                0x40055264                OSMemNameSet
                0x40055328                OSMemPut
 .text          0x40055388      0xa30 ../mf2_ddr_ucos_bsp/\libucosii_bsp.a(os_q.o)
                0x40055388                OS_QInit
                0x400553e0                OSQQuery
                0x40055494                OSQAccept
                0x40055538                OSQCreate
                0x40055640                OSQDel
                0x400557cc                OSQFlush
                0x40055824                OSQPend
                0x400559ec                OSQPendAbort
                0x40055adc                OSQPost
                0x40055ba0                OSQPostFront
                0x40055c6c                OSQPostOpt
 .text          0x40055db8      0xed4 ../mf2_ddr_ucos_bsp/\libucosii_bsp.a(os_task.o)
                0x40055db8                OS_TaskStkClr
                0x40055df0                OSTaskQuery
                0x40055ec0                OSTaskChangePrio
                0x40056164                OSTaskCreate
                0x40056278                OSTaskCreateExt
                0x400563f8                OSTaskDel
                0x4005664c                OSTaskDelReq
                0x40056708                OSTaskNameGet
                0x40056818                OSTaskNameSet
                0x4005693c                OSTaskResume
                0x40056a48                OSTaskStkChk
                0x40056b40                OSTaskSuspend
 .text          0x40056c8c      0x2fc ../mf2_ddr_ucos_bsp/\libucosii_bsp.a(os_time.o)
                0x40056c8c                OSTimeSet
                0x40056cb8                OSTimeDly
                0x40056d58                OSTimeDlyHMSM
                0x40056e5c                OSTimeDlyResume
                0x40056f5c                OSTimeGet
 .text          0x40056f88      0xc18 ../mf2_ddr_ucos_bsp/\libucosii_bsp.a(os_tmr.o)
                0x4005710c                OSTmr_Init
                0x40057394                OSTmrStop
                0x400574f8                OSTmrStart
                0x40057604                OSTmrStateGet
                0x400576b4                OSTmrRemainGet
                0x400577d4                OSTmrDel
                0x400578d8                OSTmrSignal
                0x40057908                OSTmrNameGet
                0x400579fc                OSTmrCreate
 .text          0x40057ba0       0x88 ../mf2_ddr_ucos_bsp/\libucosii_bsp.a(alt_sys_init.o)
                0x40057ba0                alt_sys_init
                0x40057c00                alt_irq_init
 .text          0x40057c28       0x5c ../mf2_ddr_ucos_bsp/\libucosii_bsp.a(altera_avalon_jtag_uart_fd.o)
                0x40057c28                altera_avalon_jtag_uart_ioctl_fd
                0x40057c3c                altera_avalon_jtag_uart_close_fd
                0x40057c54                altera_avalon_jtag_uart_write_fd
                0x40057c6c                altera_avalon_jtag_uart_read_fd
 .text          0x40057c84      0x314 ../mf2_ddr_ucos_bsp/\libucosii_bsp.a(altera_avalon_jtag_uart_init.o)
                0x40057c84                altera_avalon_jtag_uart_close
                0x40057d54                altera_avalon_jtag_uart_init
 .text          0x40057f98       0x84 ../mf2_ddr_ucos_bsp/\libucosii_bsp.a(altera_avalon_jtag_uart_ioctl.o)
                0x40057f98                altera_avalon_jtag_uart_ioctl
 .text          0x4005801c      0x1b4 ../mf2_ddr_ucos_bsp/\libucosii_bsp.a(altera_avalon_jtag_uart_read.o)
                0x4005801c                altera_avalon_jtag_uart_read
 .text          0x400581d0      0x1c0 ../mf2_ddr_ucos_bsp/\libucosii_bsp.a(altera_avalon_jtag_uart_write.o)
                0x400581d0                altera_avalon_jtag_uart_write
 .text          0x40058390       0xec ../mf2_ddr_ucos_bsp/\libucosii_bsp.a(altera_avalon_spi.o)
                0x40058390                alt_avalon_spi_command
 .text          0x4005847c       0x9c ../mf2_ddr_ucos_bsp/\libucosii_bsp.a(altera_avalon_timer_sc.o)
                0x4005847c                alt_avalon_timer_sc_init
 .text          0x40058518       0x98 ../mf2_ddr_ucos_bsp/\libucosii_bsp.a(alt_alarm_start.o)
                0x40058518                alt_alarm_start
 .text          0x400585b0       0x84 ../mf2_ddr_ucos_bsp/\libucosii_bsp.a(alt_busy_sleep.o)
                0x400585b0                alt_busy_sleep
 .text          0x40058634        0xc ../mf2_ddr_ucos_bsp/\libucosii_bsp.a(alt_dcache_flush_all.o)
                0x40058634                alt_dcache_flush_all
 .text          0x40058640       0x78 ../mf2_ddr_ucos_bsp/\libucosii_bsp.a(alt_dev_llist_insert.o)
                0x40058640                alt_dev_llist_insert
 .text          0x400586b8       0x48 ../mf2_ddr_ucos_bsp/\libucosii_bsp.a(alt_do_ctors.o)
                0x400586b8                _do_ctors
 .text          0x40058700       0x48 ../mf2_ddr_ucos_bsp/\libucosii_bsp.a(alt_do_dtors.o)
                0x40058700                _do_dtors
 .text          0x40058748        0x0 ../mf2_ddr_ucos_bsp/\libucosii_bsp.a(alt_exception_entry.o)
 .text          0x40058748       0x14 ../mf2_ddr_ucos_bsp/\libucosii_bsp.a(alt_icache_flush_all.o)
                0x40058748                alt_icache_flush_all
 .text          0x4005875c       0x70 ../mf2_ddr_ucos_bsp/\libucosii_bsp.a(alt_instruction_exception_entry.o)
                0x4005875c                alt_exception_cause_generated_bad_addr
 .text          0x400587cc      0x10c ../mf2_ddr_ucos_bsp/\libucosii_bsp.a(alt_io_redirect.o)
                0x40058844                alt_io_redirect
 .text          0x400588d8      0x17c ../mf2_ddr_ucos_bsp/\libucosii_bsp.a(alt_open.o)
                0x400588d8                open
 .text          0x40058a54       0x10 ../mf2_ddr_ucos_bsp/\libucosii_bsp.a(altera_nios2_irq.o)
                0x40058a54                altera_nios2_irq_init
 .text          0x40058a64       0x78 ../mf2_ddr_ucos_bsp/\libucosii_bsp.a(alt_find_dev.o)
                0x40058a64                alt_find_dev
 .text          0x40058adc       0xa4 ../mf2_ddr_ucos_bsp/\libucosii_bsp.a(alt_find_file.o)
                0x40058adc                alt_find_file
 .text          0x40058b80       0xac ../mf2_ddr_ucos_bsp/\libucosii_bsp.a(alt_get_fd.o)
                0x40058b80                alt_get_fd
 .text          0x40058c2c       0x40 ../mf2_ddr_ucos_bsp/\libucosii_bsp.a(alt_icache_flush.o)
                0x40058c2c                alt_icache_flush
 .text          0x40058c6c       0x14 e:/altera/10.1/nios2eds/bin/gnu/h-i686-mingw32/bin/../lib/gcc/nios2-elf/4.1.2/../../../../nios2-elf/lib\libc.a(lib_a-atexit.o)
                0x40058c6c                atexit
 .text          0x40058c80       0x38 e:/altera/10.1/nios2eds/bin/gnu/h-i686-mingw32/bin/../lib/gcc/nios2-elf/4.1.2/../../../../nios2-elf/lib\libc.a(lib_a-exit.o)
                0x40058c80                exit
 .text          0x40058cb8       0x74 e:/altera/10.1/nios2eds/bin/gnu/h-i686-mingw32/bin/../lib/gcc/nios2-elf/4.1.2/../../../../nios2-elf/lib\libc.a(lib_a-memcmp.o)
                0x40058cb8                memcmp
 .text          0x40058d2c      0x134 e:/altera/10.1/nios2eds/bin/gnu/h-i686-mingw32/bin/../lib/gcc/nios2-elf/4.1.2/../../../../nios2-elf/lib\libc.a(lib_a-__atexit.o)
                0x40058d2c                __register_exitproc
 .text          0x40058e60      0x1b4 e:/altera/10.1/nios2eds/bin/gnu/h-i686-mingw32/bin/../lib/gcc/nios2-elf/4.1.2/../../../../nios2-elf/lib\libc.a(lib_a-__call_atexit.o)
                0x40058e64                __call_exitprocs
 *(.gnu.warning.*)
 *(.fini)
                0x40059014                PROVIDE (__etext, ABSOLUTE (.))
                0x40059014                PROVIDE (_etext, ABSOLUTE (.))
                0x40059014                PROVIDE (etext, ABSOLUTE (.))
 *(.eh_frame_hdr)
                0x40059014                . = ALIGN (0x4)
                0x40059014                PROVIDE (__preinit_array_start, ABSOLUTE (.))
 *(.preinit_array)
                0x40059014                PROVIDE (__preinit_array_end, ABSOLUTE (.))
                0x40059014                PROVIDE (__init_array_start, ABSOLUTE (.))
 *(.init_array)
                0x40059014                PROVIDE (__init_array_end, ABSOLUTE (.))
                0x40059014                PROVIDE (__fini_array_start, ABSOLUTE (.))
 *(.fini_array)
                0x40059014                PROVIDE (__fini_array_end, ABSOLUTE (.))
 *(.eh_frame)
 .eh_frame      0x40059014       0xd8 obj/vip_helper.o
 .eh_frame      0x400590ec      0x13c e:/altera/10.1/nios2eds/bin/gnu/h-i686-mingw32/bin/../lib/gcc/nios2-elf/4.1.2/../../../../nios2-elf/lib\libstdc++.a(eh_personality.o)
 .eh_frame      0x40059228       0x54 e:/altera/10.1/nios2eds/bin/gnu/h-i686-mingw32/bin/../lib/gcc/nios2-elf/4.1.2/../../../../nios2-elf/lib\libstdc++.a(eh_throw.o)
                                 0x70 (size before relaxing)
 .eh_frame      0x4005927c       0x1c e:/altera/10.1/nios2eds/bin/gnu/h-i686-mingw32/bin/../lib/gcc/nios2-elf/4.1.2/../../../../nios2-elf/lib\libstdc++.a(eh_call.o)
                                 0x38 (size before relaxing)
 .eh_frame      0x40059298       0x3c e:/altera/10.1/nios2eds/bin/gnu/h-i686-mingw32/bin/../lib/gcc/nios2-elf/4.1.2/../../../../nios2-elf/lib\libstdc++.a(eh_catch.o)
                                 0x58 (size before relaxing)
 .eh_frame      0x400592d4       0x74 e:/altera/10.1/nios2eds/bin/gnu/h-i686-mingw32/bin/../lib/gcc/nios2-elf/4.1.2/../../../../nios2-elf/lib\libstdc++.a(eh_terminate.o)
                                 0x90 (size before relaxing)
 .eh_frame      0x40059348       0x54 e:/altera/10.1/nios2eds/bin/gnu/h-i686-mingw32/bin/../lib/gcc/nios2-elf/4.1.2/../../../../nios2-elf/lib\libstdc++.a(si_class_type_info.o)
                                 0x70 (size before relaxing)
 .eh_frame      0x4005939c       0x20 e:/altera/10.1/nios2eds/bin/gnu/h-i686-mingw32/bin/../lib/gcc/nios2-elf/4.1.2/../../../../nios2-elf/lib\libstdc++.a(eh_alloc.o)
                                 0x3c (size before relaxing)
 .eh_frame      0x400593bc       0x50 e:/altera/10.1/nios2eds/bin/gnu/h-i686-mingw32/bin/../lib/gcc/nios2-elf/4.1.2/../../../../nios2-elf/lib\libstdc++.a(class_type_info.o)
                                 0x6c (size before relaxing)
 .eh_frame      0x4005940c       0x40 e:/altera/10.1/nios2eds/bin/gnu/h-i686-mingw32/bin/../lib/gcc/nios2-elf/4.1.2\libgcc.a(_divdi3.o)
 .eh_frame      0x4005944c      0x1f4 e:/altera/10.1/nios2eds/bin/gnu/h-i686-mingw32/bin/../lib/gcc/nios2-elf/4.1.2\libgcc.a(unwind-dw2.o)
                                0x208 (size before relaxing)
 .eh_frame      0x40059640       0xd4 e:/altera/10.1/nios2eds/bin/gnu/h-i686-mingw32/bin/../lib/gcc/nios2-elf/4.1.2\libgcc.a(unwind-dw2-fde.o)
                                 0xe8 (size before relaxing)
 .eh_frame      0x40059714       0x2c e:/altera/10.1/nios2eds/bin/gnu/h-i686-mingw32/bin/../lib/gcc/nios2-elf/4.1.2\libgcc.a(_udivdi3.o)
                                 0x40 (size before relaxing)
 .eh_frame      0x40059740       0x2c e:/altera/10.1/nios2eds/bin/gnu/h-i686-mingw32/bin/../lib/gcc/nios2-elf/4.1.2\libgcc.a(_umoddi3.o)
                                 0x40 (size before relaxing)
 *(.gcc_except_table)
 .gcc_except_table
                0x4005976c       0x48 e:/altera/10.1/nios2eds/bin/gnu/h-i686-mingw32/bin/../lib/gcc/nios2-elf/4.1.2/../../../../nios2-elf/lib\libstdc++.a(eh_personality.o)
 .gcc_except_table
                0x400597b4       0x18 e:/altera/10.1/nios2eds/bin/gnu/h-i686-mingw32/bin/../lib/gcc/nios2-elf/4.1.2/../../../../nios2-elf/lib\libstdc++.a(eh_catch.o)
 .gcc_except_table
                0x400597cc       0x18 e:/altera/10.1/nios2eds/bin/gnu/h-i686-mingw32/bin/../lib/gcc/nios2-elf/4.1.2/../../../../nios2-elf/lib\libstdc++.a(eh_terminate.o)
 .gcc_except_table
                0x400597e4       0x18 e:/altera/10.1/nios2eds/bin/gnu/h-i686-mingw32/bin/../lib/gcc/nios2-elf/4.1.2/../../../../nios2-elf/lib\libstdc++.a(eh_alloc.o)
 *(.dynamic)
                0x400597fc                PROVIDE (__CTOR_LIST__, ABSOLUTE (.))
 *(.ctors)
 .ctors         0x400597fc        0x4 obj/vip_helper.o
 *(SORT(.ctors.*))
 .ctors.65535   0x40059800        0x4 e:/altera/10.1/nios2eds/bin/gnu/h-i686-mingw32/bin/../lib/gcc/nios2-elf/4.1.2/../../../../nios2-elf/lib\libc.a(lib_a-__call_atexit.o)
                0x40059804                PROVIDE (__CTOR_END__, ABSOLUTE (.))
                0x40059804                PROVIDE (__DTOR_LIST__, ABSOLUTE (.))
 *(.dtors)
 *(SORT(.dtors.*))
                0x40059804                PROVIDE (__DTOR_END__, ABSOLUTE (.))
 *(.jcr)
                0x40059804                . = ALIGN (0x4)

.rodata         0x40059804     0x2ea8
                0x40059804                PROVIDE (__ram_rodata_start, ABSOLUTE (.))
                0x40059804                . = ALIGN (0x4)
 *(.rodata .rodata.* .gnu.linkonce.r.*)
 .rodata        0x40059804       0x14 obj/dbg_helper.o
 .rodata        0x40059818      0x180 obj/ee_helper.o
 .rodata        0x40059998        0x4 obj/os_cpu_c.o
 .rodata        0x4005999c      0x3dc obj/pll_helper.o
                0x4005999c                pll_data_a
 .rodata        0x40059d78      0x2a0 obj/sys-base.o
 .rodata        0x4005a018       0x58 obj/usb/bsd-bus-dma.o
 .rodata        0x4005a070       0xd8 obj/usb/bsd-wrap.o
 .rodata        0x4005a148       0x24 obj/usb/bus_if.o
 .rodata        0x4005a16c      0x25c obj/usb/ehci.o
 .rodata        0x4005a3c8       0xa8 obj/usb/ehci_oxu210.o
 .rodata        0x4005a470       0x24 obj/usb/kern_linker.o
 .rodata        0x4005a494       0xd4 obj/usb/kern_module.o
 .rodata        0x4005a568      0x1b4 obj/usb/kern_sysctl.o
 .rodata        0x4005a71c        0xc obj/usb/oxu210-alloc.o
 .rodata        0x4005a728       0xb4 obj/usb/pdev.o
 .rodata        0x4005a7dc        0x8 obj/usb/s5a-autoconf.o
 .rodata        0x4005a7e4      0x32c obj/usb/subr_bus.o
 .rodata        0x4005ab10       0x48 obj/usb/subr_kobj.o
 .rodata        0x4005ab58       0x8c obj/usb/subr_uio.o
 .rodata        0x4005abe4       0x70 obj/usb/tc-mtouch.o
 .rodata        0x4005ac54       0x44 obj/usb/tc-zytronic.o
 .rodata        0x4005ac98       0x88 obj/usb/tc.o
 .rodata        0x4005ad20      0x130 obj/usb/ums.o
 .rodata        0x4005ae50        0xc obj/usb/usb_busdma.o
 .rodata        0x4005ae5c      0x1fc obj/usb/usb_controller.o
 .rodata        0x4005b058      0x1e4 obj/usb/usb_debug.o
 .rodata        0x4005b23c      0x290 obj/usb/usb_device.o
 .rodata        0x4005b4cc        0x8 obj/usb/usb_dynamic.o
 .rodata        0x4005b4d4      0x258 obj/usb/usb_error.o
 .rodata        0x4005b72c      0x184 obj/usb/usb_hub.o
 .rodata        0x4005b8b0       0x48 obj/usb/usb_process.o
 .rodata        0x4005b8f8       0x78 obj/usb/usb_s5a.o
                0x4005b908                _bsd_avalon_devices
 .rodata        0x4005b970      0x154 obj/usb/usb_transfer.o
 .rodata        0x4005bac4       0x1c obj/usb/usb_util.o
 .rodata        0x4005bae0      0x1ec obj/usb/usbdev_oxu210.o
 .rodata        0x4005bccc       0x28 obj/usb_helper.o
 .rodata        0x4005bcf4      0x168 obj/vip_helper.o
                0x4005bcf4                start_regs
                0x4005bd3c                animate_regs
                0x4005bd84                end_regs
 .rodata._ZTVSt13bad_exception
                0x4005be5c       0x14 e:/altera/10.1/nios2eds/bin/gnu/h-i686-mingw32/bin/../lib/gcc/nios2-elf/4.1.2/../../../../nios2-elf/lib\libstdc++.a(eh_exception.o)
                0x4005be5c                vtable for std::bad_exception
 .rodata._ZTVSt9exception
                0x4005be70       0x14 e:/altera/10.1/nios2eds/bin/gnu/h-i686-mingw32/bin/../lib/gcc/nios2-elf/4.1.2/../../../../nios2-elf/lib\libstdc++.a(eh_exception.o)
                0x4005be70                vtable for std::exception
 .rodata._ZTSSt13bad_exception
                0x4005be84       0x14 e:/altera/10.1/nios2eds/bin/gnu/h-i686-mingw32/bin/../lib/gcc/nios2-elf/4.1.2/../../../../nios2-elf/lib\libstdc++.a(eh_exception.o)
                0x4005be84                typeinfo name for std::bad_exception
 .rodata._ZTISt13bad_exception
                0x4005be98        0xc e:/altera/10.1/nios2eds/bin/gnu/h-i686-mingw32/bin/../lib/gcc/nios2-elf/4.1.2/../../../../nios2-elf/lib\libstdc++.a(eh_exception.o)
                0x4005be98                typeinfo for std::bad_exception
 .rodata._ZTSSt9exception
                0x4005bea4       0x10 e:/altera/10.1/nios2eds/bin/gnu/h-i686-mingw32/bin/../lib/gcc/nios2-elf/4.1.2/../../../../nios2-elf/lib\libstdc++.a(eh_exception.o)
                0x4005bea4                typeinfo name for std::exception
 .rodata._ZTVN10__cxxabiv120__si_class_type_infoE
                0x4005beb4       0x2c e:/altera/10.1/nios2eds/bin/gnu/h-i686-mingw32/bin/../lib/gcc/nios2-elf/4.1.2/../../../../nios2-elf/lib\libstdc++.a(si_class_type_info.o)
                0x4005beb4                vtable for __cxxabiv1::__si_class_type_info
 .rodata._ZTSN10__cxxabiv120__si_class_type_infoE
                0x4005bee0       0x28 e:/altera/10.1/nios2eds/bin/gnu/h-i686-mingw32/bin/../lib/gcc/nios2-elf/4.1.2/../../../../nios2-elf/lib\libstdc++.a(si_class_type_info.o)
                0x4005bee0                typeinfo name for __cxxabiv1::__si_class_type_info
 .rodata._ZTIN10__cxxabiv120__si_class_type_infoE
                0x4005bf08        0xc e:/altera/10.1/nios2eds/bin/gnu/h-i686-mingw32/bin/../lib/gcc/nios2-elf/4.1.2/../../../../nios2-elf/lib\libstdc++.a(si_class_type_info.o)
                0x4005bf08                typeinfo for __cxxabiv1::__si_class_type_info
 .rodata._ZTVSt9type_info
                0x4005bf14       0x20 e:/altera/10.1/nios2eds/bin/gnu/h-i686-mingw32/bin/../lib/gcc/nios2-elf/4.1.2/../../../../nios2-elf/lib\libstdc++.a(tinfo.o)
                0x4005bf14                vtable for std::type_info
 .rodata._ZTSSt9type_info
                0x4005bf34       0x10 e:/altera/10.1/nios2eds/bin/gnu/h-i686-mingw32/bin/../lib/gcc/nios2-elf/4.1.2/../../../../nios2-elf/lib\libstdc++.a(tinfo.o)
                0x4005bf34                typeinfo name for std::type_info
 .rodata._ZTVN10__cxxabiv117__class_type_infoE
                0x4005bf44       0x2c e:/altera/10.1/nios2eds/bin/gnu/h-i686-mingw32/bin/../lib/gcc/nios2-elf/4.1.2/../../../../nios2-elf/lib\libstdc++.a(class_type_info.o)
                0x4005bf44                vtable for __cxxabiv1::__class_type_info
 .rodata._ZTSN10__cxxabiv117__class_type_infoE
                0x4005bf70       0x24 e:/altera/10.1/nios2eds/bin/gnu/h-i686-mingw32/bin/../lib/gcc/nios2-elf/4.1.2/../../../../nios2-elf/lib\libstdc++.a(class_type_info.o)
                0x4005bf70                typeinfo name for __cxxabiv1::__class_type_info
 .rodata._ZTIN10__cxxabiv117__class_type_infoE
                0x4005bf94        0xc e:/altera/10.1/nios2eds/bin/gnu/h-i686-mingw32/bin/../lib/gcc/nios2-elf/4.1.2/../../../../nios2-elf/lib\libstdc++.a(class_type_info.o)
                0x4005bf94                typeinfo for __cxxabiv1::__class_type_info
 .rodata        0x4005bfa0       0x14 e:/altera/10.1/nios2eds/bin/gnu/h-i686-mingw32/bin/../lib/gcc/nios2-elf/4.1.2\libgcc.a(_thenan_df.o)
                0x4005bfa0                __thenan_df
 .rodata        0x4005bfb4      0x100 e:/altera/10.1/nios2eds/bin/gnu/h-i686-mingw32/bin/../lib/gcc/nios2-elf/4.1.2\libgcc.a(_clz.o)
                0x4005bfb4                __clz_tab
 .rodata        0x4005c0b4      0x281 e:/altera/10.1/nios2eds/bin/gnu/h-i686-mingw32/bin/../lib/gcc/nios2-elf/4.1.2/../../../../nios2-elf/lib\libc.a(lib_a-ctype_.o)
                0x4005c0b4                _ctype_
 *fill*         0x4005c335        0x3 00
 .rodata.str1.4
                0x4005c338        0x2 e:/altera/10.1/nios2eds/bin/gnu/h-i686-mingw32/bin/../lib/gcc/nios2-elf/4.1.2/../../../../nios2-elf/lib\libc.a(lib_a-puts.o)
                                  0x4 (size before relaxing)
 *fill*         0x4005c33a        0x2 00
 .rodata.str1.4
                0x4005c33c       0x5e e:/altera/10.1/nios2eds/bin/gnu/h-i686-mingw32/bin/../lib/gcc/nios2-elf/4.1.2/../../../../nios2-elf/lib\libc.a(lib_a-vfprintf.o)
                                 0x60 (size before relaxing)
 .rodata        0x4005c39a       0x20 e:/altera/10.1/nios2eds/bin/gnu/h-i686-mingw32/bin/../lib/gcc/nios2-elf/4.1.2/../../../../nios2-elf/lib\libc.a(lib_a-vfprintf.o)
 *fill*         0x4005c3ba        0x2 00
 .rodata.str1.4
                0x4005c3bc       0x10 e:/altera/10.1/nios2eds/bin/gnu/h-i686-mingw32/bin/../lib/gcc/nios2-elf/4.1.2/../../../../nios2-elf/lib\libc.a(lib_a-dtoa.o)
                                 0x14 (size before relaxing)
 .rodata.str1.4
                0x4005c3cc        0x2 e:/altera/10.1/nios2eds/bin/gnu/h-i686-mingw32/bin/../lib/gcc/nios2-elf/4.1.2/../../../../nios2-elf/lib\libc.a(lib_a-impure.o)
                                  0x4 (size before relaxing)
 *fill*         0x4005c3ce        0x2 00
 .rodata.str1.4
                0x4005c3d0        0xf e:/altera/10.1/nios2eds/bin/gnu/h-i686-mingw32/bin/../lib/gcc/nios2-elf/4.1.2/../../../../nios2-elf/lib\libc.a(lib_a-locale.o)
                                 0x18 (size before relaxing)
 *fill*         0x4005c3df        0x1 00
 .rodata        0x4005c3e0       0x30 e:/altera/10.1/nios2eds/bin/gnu/h-i686-mingw32/bin/../lib/gcc/nios2-elf/4.1.2/../../../../nios2-elf/lib\libc.a(lib_a-locale.o)
 .rodata        0x4005c410      0x124 e:/altera/10.1/nios2eds/bin/gnu/h-i686-mingw32/bin/../lib/gcc/nios2-elf/4.1.2/../../../../nios2-elf/lib\libc.a(lib_a-mprec.o)
                0x4005c410                __mprec_tens
                0x4005c4d8                __mprec_bigtens
                0x4005c500                __mprec_tinytens
 .rodata.str1.4
                0x4005c534        0xa ../mf2_ddr_ucos_bsp/\libucosii_bsp.a(alt_dev.o)
                                  0xc (size before relaxing)
 *fill*         0x4005c53e        0x2 00
 .rodata.str1.4
                0x4005c540       0x11 ../mf2_ddr_ucos_bsp/\libucosii_bsp.a(alt_main.o)
                                 0x14 (size before relaxing)
 *fill*         0x4005c551        0x3 00
 .rodata.str1.4
                0x4005c554       0x1e ../mf2_ddr_ucos_bsp/\libucosii_bsp.a(os_core.o)
                                 0x20 (size before relaxing)
 .rodata        0x4005c572      0x100 ../mf2_ddr_ucos_bsp/\libucosii_bsp.a(os_core.o)
                0x4005c572                OSUnMapTbl
 *fill*         0x4005c672        0x2 00
 .rodata.str1.4
                0x4005c674       0x38 ../mf2_ddr_ucos_bsp/\libucosii_bsp.a(os_tmr.o)
 .rodata.str1.4
                0x00000000       0x14 ../mf2_ddr_ucos_bsp/\libucosii_bsp.a(alt_sys_init.o)
 *(.rodata1)
                0x4005c6ac                . = ALIGN (0x4)
                0x4005c6ac                PROVIDE (__ram_rodata_end, ABSOLUTE (.))
                0x40059804                PROVIDE (__flash_rodata_start, LOADADDR (.rodata))

.rwdata         0x4005c6ac     0x34a4 load address 0x4005fb50
                0x4005c6ac                PROVIDE (__ram_rwdata_start, ABSOLUTE (.))
                0x4005c6ac                . = ALIGN (0x4)
 *(.got.plt)
 *(.got)
 *(.data1)
 *(.data .data.* .gnu.linkonce.d.*)
 .data          0x4005c6ac        0x0 ../mf2_ddr_ucos_bsp//obj/HAL/src/crt0.o
 .data          0x4005c6ac        0x0 obj/alt-irq-handler.o
 .data          0x4005c6ac        0x0 obj/dbg_helper.o
 .data          0x4005c6ac       0x80 obj/ddc_helper.o
                0x4005c6ac                edid_1280x1024_sdvo
 .data          0x4005c72c        0x0 obj/dynedid.o
 .data          0x4005c72c        0x0 obj/ee_helper.o
 .data          0x4005c72c        0x0 obj/fifo_helper.o
 .data          0x4005c72c        0x0 obj/i2c_master.o
 .data          0x4005c72c        0x0 obj/main.o
 .data          0x4005c72c        0x0 obj/os-support.o
 .data          0x4005c72c        0x0 obj/os_bsem.o
 .data          0x4005c72c        0x0 obj/os_cpu_c.o
 .data          0x4005c72c        0x0 obj/os_sem.o
 .data          0x4005c72c        0x0 obj/ow.o
 .data          0x4005c72c       0x4c obj/pll_helper.o
                0x4005c72c                pll_freq_a
 .data          0x4005c778        0x0 obj/sys-base.o
 .data          0x4005c778        0x0 obj/touchcon.o
 .data          0x4005c778       0x40 obj/ts_helper.o
                0x4005c778                zone_touch_action
 .data          0x4005c7b8        0x0 obj/tvp7002_helper.o
 .data          0x4005c7b8        0x0 obj/uhe.o
 .data          0x4005c7b8        0x0 obj/usb/bsd-bus-dma.o
 .data          0x4005c7b8       0xa0 obj/usb/bsd-wrap.o
                0x4005c7b8                M_DEVBUF
                0x4005c7c8                _bsd_M_DEVBUF_init_sys_init
                0x4005c7d8                M_TEMP
                0x4005c7e8                _bsd_M_TEMP_init_sys_init
                0x4005c7f8                M_IOV
                0x4005c808                _bsd_M_IOV_init_sys_init
                0x4005c818                M_USB
                0x4005c828                _bsd_M_USB_init_sys_init
                0x4005c838                M_USBDEV
                0x4005c848                _bsd_M_USBDEV_init_sys_init
 .data          0x4005c858        0x0 obj/usb/bus_if.o
 .data          0x4005c858        0x0 obj/usb/device_if.o
 .data          0x4005c858       0xb0 obj/usb/ehci.o
                0x4005c858                ehci_device_bulk_methods
                0x4005c86c                ehci_device_ctrl_methods
                0x4005c880                ehci_device_intr_methods
                0x4005c894                ehci_device_isoc_fs_methods
                0x4005c8a8                ehci_device_isoc_hs_methods
                0x4005c8bc                ehci_bus_methods
 .data          0x4005c908       0xd4 obj/usb/ehci_oxu210.o
                0x4005c908                ehci_methods
                0x4005c948                ehci_driver
                0x4005c9b0                _bsd_ehci_avalonmodule_sys_init
 .data          0x4005c9dc        0x0 obj/usb/init_main.o
 .data          0x4005c9dc       0x10 obj/usb/kern_linker.o
                0x4005c9dc                _bsd_linker_kernel_sys_init
 .data          0x4005c9ec       0x40 obj/usb/kern_module.o
                0x4005c9fc                _bsd_M_MODULE_init_sys_init
                0x4005ca0c                _bsd_module_sys_init
 .data          0x4005ca2c      0x1fc obj/usb/kern_sysctl.o
                0x4005caec                _bsd_M_SYSCTL_init_sys_init
                0x4005cb0c                _bsd_M_SYSCTLOID_init_sys_init
                0x4005cb2c                _bsd_M_SYSCTLTMP_init_sys_init
                0x4005cb3c                _bsd_sysctl_sys_init
 .data          0x4005cc28        0x0 obj/usb/oxu210-alloc.o
 .data          0x4005cc28        0x0 obj/usb/oxu210-intr.o
 .data          0x4005cc28       0xb8 obj/usb/pdev.o
                0x4005ccd0                _bsd_pdev_avalonmodule_sys_init
 .data          0x4005cce0       0x30 obj/usb/s5a-autoconf.o
                0x4005cce0                _bsd_configure1_sys_init
                0x4005ccf0                _bsd_configure2_sys_init
                0x4005cd00                _bsd_configure3_sys_init
 .data          0x4005cd10      0x158 obj/usb/subr_bus.o
                0x4005cd78                _bsd_M_BUS_init_sys_init
                0x4005cd98                _bsd_M_BUS_SC_init_sys_init
                0x4005cda8                null_class
                0x4005ce58                _bsd_rootbusmodule_sys_init
 .data          0x4005ce68       0x5c obj/usb/subr_kobj.o
                0x4005ce78                _bsd_M_KOBJ_init_sys_init
                0x4005ceb4                _bsd_kobj_sys_init
 .data          0x4005cec4       0x2c obj/usb/subr_uio.o
 .data          0x4005cef0       0x98 obj/usb/tc-mtouch.o
                0x4005cf78                _bsd_tcm_uhubmodule_sys_init
 .data          0x4005cf88       0x98 obj/usb/tc-zytronic.o
                0x4005d010                _bsd_tcz_uhubmodule_sys_init
 .data          0x4005d020      0x10c obj/usb/tc.o
                0x4005d0f0                _bsd_tc_uhubmodule_sys_init
 .data          0x4005d12c       0xc4 obj/usb/ums.o
                0x4005d1b4                _bsd_ums_uhubmodule_sys_init
 .data          0x4005d1f0        0x0 obj/usb/usb_busdma.o
 .data          0x4005d1f0       0xb0 obj/usb/usb_controller.o
                0x4005d1f0                usb_methods
                0x4005d290                _bsd_usbus_ehcimodule_sys_init
 .data          0x4005d2a0        0x0 obj/usb/usb_debug.o
 .data          0x4005d2a0       0x14 obj/usb/usb_device.o
 .data          0x4005d2b4        0x0 obj/usb/usb_dynamic.o
 .data          0x4005d2b4       0x74 obj/usb/usb_error.o
 .data          0x4005d328        0x0 obj/usb/usb_handle_request.o
 .data          0x4005d328        0x0 obj/usb/usb_hid.o
 .data          0x4005d328      0x130 obj/usb/usb_hub.o
                0x4005d3d8                _bsd_uhub_usbusmodule_sys_init
                0x4005d438                _bsd_uhub_uhubmodule_sys_init
 .data          0x4005d458        0x0 obj/usb/usb_if.o
 .data          0x4005d458        0x0 obj/usb/usb_parse.o
 .data          0x4005d458        0x0 obj/usb/usb_process.o
 .data          0x4005d458        0x0 obj/usb/usb_request.o
 .data          0x4005d458       0xb8 obj/usb/usb_s5a.o
                0x4005d500                _bsd_avalon_rootmodule_sys_init
 .data          0x4005d510        0x0 obj/usb/usb_transfer.o
 .data          0x4005d510        0x0 obj/usb/usb_util.o
 .data          0x4005d510       0xdc obj/usb/usbdev_oxu210.o
                0x4005d5b0                _bsd_usbdev_pdevmodule_sys_init
 .data          0x4005d5ec        0x0 obj/usb_helper.o
 .data          0x4005d5ec        0x0 obj/video_helper.o
 .data          0x4005d5ec      0x69c obj/vip_helper.o
                0x4005d5ec                vip_ch
                0x4005d634                vidmode
 .data          0x4005dc88        0x0 e:/altera/10.1/nios2eds/bin/gnu/h-i686-mingw32/bin/../lib/gcc/nios2-elf/4.1.2/../../../../nios2-elf/lib\libstdc++.a(eh_personality.o)
 .data          0x4005dc88        0x0 e:/altera/10.1/nios2eds/bin/gnu/h-i686-mingw32/bin/../lib/gcc/nios2-elf/4.1.2/../../../../nios2-elf/lib\libstdc++.a(eh_globals.o)
 .data          0x4005dc88        0x0 e:/altera/10.1/nios2eds/bin/gnu/h-i686-mingw32/bin/../lib/gcc/nios2-elf/4.1.2/../../../../nios2-elf/lib\libstdc++.a(eh_throw.o)
 .data          0x4005dc88        0x0 e:/altera/10.1/nios2eds/bin/gnu/h-i686-mingw32/bin/../lib/gcc/nios2-elf/4.1.2/../../../../nios2-elf/lib\libstdc++.a(eh_call.o)
 .data          0x4005dc88        0x0 e:/altera/10.1/nios2eds/bin/gnu/h-i686-mingw32/bin/../lib/gcc/nios2-elf/4.1.2/../../../../nios2-elf/lib\libstdc++.a(eh_catch.o)
 .data          0x4005dc88        0x0 e:/altera/10.1/nios2eds/bin/gnu/h-i686-mingw32/bin/../lib/gcc/nios2-elf/4.1.2/../../../../nios2-elf/lib\libstdc++.a(eh_exception.o)
 .data          0x4005dc88        0x0 e:/altera/10.1/nios2eds/bin/gnu/h-i686-mingw32/bin/../lib/gcc/nios2-elf/4.1.2/../../../../nios2-elf/lib\libstdc++.a(eh_terminate.o)
 .data          0x4005dc88        0x0 e:/altera/10.1/nios2eds/bin/gnu/h-i686-mingw32/bin/../lib/gcc/nios2-elf/4.1.2/../../../../nios2-elf/lib\libstdc++.a(si_class_type_info.o)
 .data          0x4005dc88        0x0 e:/altera/10.1/nios2eds/bin/gnu/h-i686-mingw32/bin/../lib/gcc/nios2-elf/4.1.2/../../../../nios2-elf/lib\libstdc++.a(eh_alloc.o)
 .data          0x4005dc88        0x0 e:/altera/10.1/nios2eds/bin/gnu/h-i686-mingw32/bin/../lib/gcc/nios2-elf/4.1.2/../../../../nios2-elf/lib\libstdc++.a(eh_term_handler.o)
 .data          0x4005dc88        0x0 e:/altera/10.1/nios2eds/bin/gnu/h-i686-mingw32/bin/../lib/gcc/nios2-elf/4.1.2/../../../../nios2-elf/lib\libstdc++.a(tinfo.o)
 .data          0x4005dc88        0x0 e:/altera/10.1/nios2eds/bin/gnu/h-i686-mingw32/bin/../lib/gcc/nios2-elf/4.1.2/../../../../nios2-elf/lib\libstdc++.a(del_op.o)
 .data          0x4005dc88        0x0 e:/altera/10.1/nios2eds/bin/gnu/h-i686-mingw32/bin/../lib/gcc/nios2-elf/4.1.2/../../../../nios2-elf/lib\libstdc++.a(class_type_info.o)
 .data          0x4005dc88        0x0 e:/altera/10.1/nios2eds/bin/gnu/h-i686-mingw32/bin/../lib/gcc/nios2-elf/4.1.2/../../../../nios2-elf/lib\libstdc++.a(eh_unex_handler.o)
 .data          0x4005dc88        0x0 e:/altera/10.1/nios2eds/bin/gnu/h-i686-mingw32/bin/../lib/gcc/nios2-elf/4.1.2\libgcc.a(_muldi3.o)
 .data          0x4005dc88        0x0 e:/altera/10.1/nios2eds/bin/gnu/h-i686-mingw32/bin/../lib/gcc/nios2-elf/4.1.2\libgcc.a(_fixunsdfsi.o)
 .data          0x4005dc88        0x0 e:/altera/10.1/nios2eds/bin/gnu/h-i686-mingw32/bin/../lib/gcc/nios2-elf/4.1.2\libgcc.a(_floatdidf.o)
 .data          0x4005dc88        0x0 e:/altera/10.1/nios2eds/bin/gnu/h-i686-mingw32/bin/../lib/gcc/nios2-elf/4.1.2\libgcc.a(_divdi3.o)
 .data          0x4005dc88        0x0 e:/altera/10.1/nios2eds/bin/gnu/h-i686-mingw32/bin/../lib/gcc/nios2-elf/4.1.2\libgcc.a(_addsub_df.o)
 .data          0x4005dc88        0x0 e:/altera/10.1/nios2eds/bin/gnu/h-i686-mingw32/bin/../lib/gcc/nios2-elf/4.1.2\libgcc.a(_mul_df.o)
 .data          0x4005dc88        0x0 e:/altera/10.1/nios2eds/bin/gnu/h-i686-mingw32/bin/../lib/gcc/nios2-elf/4.1.2\libgcc.a(_div_df.o)
 .data          0x4005dc88        0x0 e:/altera/10.1/nios2eds/bin/gnu/h-i686-mingw32/bin/../lib/gcc/nios2-elf/4.1.2\libgcc.a(_ne_df.o)
 .data          0x4005dc88        0x0 e:/altera/10.1/nios2eds/bin/gnu/h-i686-mingw32/bin/../lib/gcc/nios2-elf/4.1.2\libgcc.a(_ge_df.o)
 .data          0x4005dc88        0x0 e:/altera/10.1/nios2eds/bin/gnu/h-i686-mingw32/bin/../lib/gcc/nios2-elf/4.1.2\libgcc.a(_si_to_df.o)
 .data          0x4005dc88        0x0 e:/altera/10.1/nios2eds/bin/gnu/h-i686-mingw32/bin/../lib/gcc/nios2-elf/4.1.2\libgcc.a(_df_to_si.o)
 .data          0x4005dc88        0x0 e:/altera/10.1/nios2eds/bin/gnu/h-i686-mingw32/bin/../lib/gcc/nios2-elf/4.1.2\libgcc.a(_thenan_df.o)
 .data          0x4005dc88        0x0 e:/altera/10.1/nios2eds/bin/gnu/h-i686-mingw32/bin/../lib/gcc/nios2-elf/4.1.2\libgcc.a(_usi_to_df.o)
 .data          0x4005dc88        0x0 e:/altera/10.1/nios2eds/bin/gnu/h-i686-mingw32/bin/../lib/gcc/nios2-elf/4.1.2\libgcc.a(lib2-divmod.o)
 .data          0x4005dc88        0x0 e:/altera/10.1/nios2eds/bin/gnu/h-i686-mingw32/bin/../lib/gcc/nios2-elf/4.1.2\libgcc.a(unwind-dw2.o)
 .data          0x4005dc88        0x0 e:/altera/10.1/nios2eds/bin/gnu/h-i686-mingw32/bin/../lib/gcc/nios2-elf/4.1.2\libgcc.a(unwind-dw2-fde.o)
 .data          0x4005dc88        0x0 e:/altera/10.1/nios2eds/bin/gnu/h-i686-mingw32/bin/../lib/gcc/nios2-elf/4.1.2\libgcc.a(_clz.o)
 .data          0x4005dc88        0x0 e:/altera/10.1/nios2eds/bin/gnu/h-i686-mingw32/bin/../lib/gcc/nios2-elf/4.1.2\libgcc.a(_clzsi2.o)
 .data          0x4005dc88        0x0 e:/altera/10.1/nios2eds/bin/gnu/h-i686-mingw32/bin/../lib/gcc/nios2-elf/4.1.2\libgcc.a(_pack_df.o)
 .data          0x4005dc88        0x0 e:/altera/10.1/nios2eds/bin/gnu/h-i686-mingw32/bin/../lib/gcc/nios2-elf/4.1.2\libgcc.a(_unpack_df.o)
 .data          0x4005dc88        0x0 e:/altera/10.1/nios2eds/bin/gnu/h-i686-mingw32/bin/../lib/gcc/nios2-elf/4.1.2\libgcc.a(_fpcmp_parts_df.o)
 .data          0x4005dc88        0x0 e:/altera/10.1/nios2eds/bin/gnu/h-i686-mingw32/bin/../lib/gcc/nios2-elf/4.1.2/../../../../nios2-elf/lib\libc.a(lib_a-abort.o)
 .data          0x4005dc88        0x0 e:/altera/10.1/nios2eds/bin/gnu/h-i686-mingw32/bin/../lib/gcc/nios2-elf/4.1.2/../../../../nios2-elf/lib\libc.a(lib_a-bcopy.o)
 .data          0x4005dc88        0x0 e:/altera/10.1/nios2eds/bin/gnu/h-i686-mingw32/bin/../lib/gcc/nios2-elf/4.1.2/../../../../nios2-elf/lib\libc.a(lib_a-ctype_.o)
 .data          0x4005dc88        0x0 e:/altera/10.1/nios2eds/bin/gnu/h-i686-mingw32/bin/../lib/gcc/nios2-elf/4.1.2/../../../../nios2-elf/lib\libc.a(lib_a-malloc.o)
 .data          0x4005dc88      0x408 e:/altera/10.1/nios2eds/bin/gnu/h-i686-mingw32/bin/../lib/gcc/nios2-elf/4.1.2/../../../../nios2-elf/lib\libc.a(lib_a-mallocr.o)
                0x4005dc88                __malloc_av_
 .data          0x4005e090        0x0 e:/altera/10.1/nios2eds/bin/gnu/h-i686-mingw32/bin/../lib/gcc/nios2-elf/4.1.2/../../../../nios2-elf/lib\libc.a(lib_a-memcpy.o)
 .data          0x4005e090        0x0 e:/altera/10.1/nios2eds/bin/gnu/h-i686-mingw32/bin/../lib/gcc/nios2-elf/4.1.2/../../../../nios2-elf/lib\libc.a(lib_a-memmove.o)
 .data          0x4005e090        0x0 e:/altera/10.1/nios2eds/bin/gnu/h-i686-mingw32/bin/../lib/gcc/nios2-elf/4.1.2/../../../../nios2-elf/lib\libc.a(lib_a-memset.o)
 .data          0x4005e090        0x0 e:/altera/10.1/nios2eds/bin/gnu/h-i686-mingw32/bin/../lib/gcc/nios2-elf/4.1.2/../../../../nios2-elf/lib\libc.a(lib_a-printf.o)
 .data          0x4005e090        0x0 e:/altera/10.1/nios2eds/bin/gnu/h-i686-mingw32/bin/../lib/gcc/nios2-elf/4.1.2/../../../../nios2-elf/lib\libc.a(lib_a-putchar.o)
 .data          0x4005e090        0x0 e:/altera/10.1/nios2eds/bin/gnu/h-i686-mingw32/bin/../lib/gcc/nios2-elf/4.1.2/../../../../nios2-elf/lib\libc.a(lib_a-puts.o)
 .data          0x4005e090        0x0 e:/altera/10.1/nios2eds/bin/gnu/h-i686-mingw32/bin/../lib/gcc/nios2-elf/4.1.2/../../../../nios2-elf/lib\libc.a(lib_a-rand.o)
 .data          0x4005e090        0x0 e:/altera/10.1/nios2eds/bin/gnu/h-i686-mingw32/bin/../lib/gcc/nios2-elf/4.1.2/../../../../nios2-elf/lib\libc.a(lib_a-sbrkr.o)
 .data          0x4005e090        0x0 e:/altera/10.1/nios2eds/bin/gnu/h-i686-mingw32/bin/../lib/gcc/nios2-elf/4.1.2/../../../../nios2-elf/lib\libc.a(lib_a-signal.o)
 .data          0x4005e090        0x0 e:/altera/10.1/nios2eds/bin/gnu/h-i686-mingw32/bin/../lib/gcc/nios2-elf/4.1.2/../../../../nios2-elf/lib\libc.a(lib_a-signalr.o)
 .data          0x4005e090        0x0 e:/altera/10.1/nios2eds/bin/gnu/h-i686-mingw32/bin/../lib/gcc/nios2-elf/4.1.2/../../../../nios2-elf/lib\libc.a(lib_a-snprintf.o)
 .data          0x4005e090        0x0 e:/altera/10.1/nios2eds/bin/gnu/h-i686-mingw32/bin/../lib/gcc/nios2-elf/4.1.2/../../../../nios2-elf/lib\libc.a(lib_a-sprintf.o)
 .data          0x4005e090        0x0 e:/altera/10.1/nios2eds/bin/gnu/h-i686-mingw32/bin/../lib/gcc/nios2-elf/4.1.2/../../../../nios2-elf/lib\libc.a(lib_a-strcmp.o)
 .data          0x4005e090        0x0 e:/altera/10.1/nios2eds/bin/gnu/h-i686-mingw32/bin/../lib/gcc/nios2-elf/4.1.2/../../../../nios2-elf/lib\libc.a(lib_a-strcpy.o)
 .data          0x4005e090        0x0 e:/altera/10.1/nios2eds/bin/gnu/h-i686-mingw32/bin/../lib/gcc/nios2-elf/4.1.2/../../../../nios2-elf/lib\libc.a(lib_a-strdup.o)
 .data          0x4005e090        0x0 e:/altera/10.1/nios2eds/bin/gnu/h-i686-mingw32/bin/../lib/gcc/nios2-elf/4.1.2/../../../../nios2-elf/lib\libc.a(lib_a-strdup_r.o)
 .data          0x4005e090        0x0 e:/altera/10.1/nios2eds/bin/gnu/h-i686-mingw32/bin/../lib/gcc/nios2-elf/4.1.2/../../../../nios2-elf/lib\libc.a(lib_a-strlcpy.o)
 .data          0x4005e090        0x0 e:/altera/10.1/nios2eds/bin/gnu/h-i686-mingw32/bin/../lib/gcc/nios2-elf/4.1.2/../../../../nios2-elf/lib\libc.a(lib_a-strlen.o)
 .data          0x4005e090        0x0 e:/altera/10.1/nios2eds/bin/gnu/h-i686-mingw32/bin/../lib/gcc/nios2-elf/4.1.2/../../../../nios2-elf/lib\libc.a(lib_a-strncpy.o)
 .data          0x4005e090        0x0 e:/altera/10.1/nios2eds/bin/gnu/h-i686-mingw32/bin/../lib/gcc/nios2-elf/4.1.2/../../../../nios2-elf/lib\libc.a(lib_a-strnlen.o)
 .data          0x4005e090        0x0 e:/altera/10.1/nios2eds/bin/gnu/h-i686-mingw32/bin/../lib/gcc/nios2-elf/4.1.2/../../../../nios2-elf/lib\libc.a(lib_a-vfprintf.o)
 .data          0x4005e090        0x0 e:/altera/10.1/nios2eds/bin/gnu/h-i686-mingw32/bin/../lib/gcc/nios2-elf/4.1.2/../../../../nios2-elf/lib\libc.a(lib_a-vprintf.o)
 .data          0x4005e090        0x0 e:/altera/10.1/nios2eds/bin/gnu/h-i686-mingw32/bin/../lib/gcc/nios2-elf/4.1.2/../../../../nios2-elf/lib\libc.a(lib_a-vsnprintf.o)
 .data          0x4005e090        0x0 e:/altera/10.1/nios2eds/bin/gnu/h-i686-mingw32/bin/../lib/gcc/nios2-elf/4.1.2/../../../../nios2-elf/lib\libc.a(lib_a-vsprintf.o)
 .data          0x4005e090        0x0 e:/altera/10.1/nios2eds/bin/gnu/h-i686-mingw32/bin/../lib/gcc/nios2-elf/4.1.2/../../../../nios2-elf/lib\libc.a(lib_a-wsetup.o)
 .data          0x4005e090        0x0 e:/altera/10.1/nios2eds/bin/gnu/h-i686-mingw32/bin/../lib/gcc/nios2-elf/4.1.2/../../../../nios2-elf/lib\libc.a(lib_a-dtoa.o)
 .data          0x4005e090        0x0 e:/altera/10.1/nios2eds/bin/gnu/h-i686-mingw32/bin/../lib/gcc/nios2-elf/4.1.2/../../../../nios2-elf/lib\libc.a(lib_a-fflush.o)
 .data          0x4005e090        0x0 e:/altera/10.1/nios2eds/bin/gnu/h-i686-mingw32/bin/../lib/gcc/nios2-elf/4.1.2/../../../../nios2-elf/lib\libc.a(lib_a-findfp.o)
 .data          0x4005e090        0x0 e:/altera/10.1/nios2eds/bin/gnu/h-i686-mingw32/bin/../lib/gcc/nios2-elf/4.1.2/../../../../nios2-elf/lib\libc.a(lib_a-freer.o)
 .data          0x4005e090        0x0 e:/altera/10.1/nios2eds/bin/gnu/h-i686-mingw32/bin/../lib/gcc/nios2-elf/4.1.2/../../../../nios2-elf/lib\libc.a(lib_a-fvwrite.o)
 .data          0x4005e090        0x0 e:/altera/10.1/nios2eds/bin/gnu/h-i686-mingw32/bin/../lib/gcc/nios2-elf/4.1.2/../../../../nios2-elf/lib\libc.a(lib_a-fwalk.o)
 .data          0x4005e090      0x400 e:/altera/10.1/nios2eds/bin/gnu/h-i686-mingw32/bin/../lib/gcc/nios2-elf/4.1.2/../../../../nios2-elf/lib\libc.a(lib_a-impure.o)
 .data          0x4005e490        0x0 e:/altera/10.1/nios2eds/bin/gnu/h-i686-mingw32/bin/../lib/gcc/nios2-elf/4.1.2/../../../../nios2-elf/lib\libc.a(lib_a-int_errno.o)
 .data          0x4005e490        0xc e:/altera/10.1/nios2eds/bin/gnu/h-i686-mingw32/bin/../lib/gcc/nios2-elf/4.1.2/../../../../nios2-elf/lib\libc.a(lib_a-locale.o)
                0x4005e490                __lc_ctype
 .data          0x4005e49c        0x0 e:/altera/10.1/nios2eds/bin/gnu/h-i686-mingw32/bin/../lib/gcc/nios2-elf/4.1.2/../../../../nios2-elf/lib\libc.a(lib_a-makebuf.o)
 .data          0x4005e49c        0x0 e:/altera/10.1/nios2eds/bin/gnu/h-i686-mingw32/bin/../lib/gcc/nios2-elf/4.1.2/../../../../nios2-elf/lib\libc.a(lib_a-memchr.o)
 .data          0x4005e49c        0x0 e:/altera/10.1/nios2eds/bin/gnu/h-i686-mingw32/bin/../lib/gcc/nios2-elf/4.1.2/../../../../nios2-elf/lib\libc.a(lib_a-mprec.o)
 .data          0x4005e49c        0x0 e:/altera/10.1/nios2eds/bin/gnu/h-i686-mingw32/bin/../lib/gcc/nios2-elf/4.1.2/../../../../nios2-elf/lib\libc.a(lib_a-putc.o)
 .data          0x4005e49c        0x0 e:/altera/10.1/nios2eds/bin/gnu/h-i686-mingw32/bin/../lib/gcc/nios2-elf/4.1.2/../../../../nios2-elf/lib\libc.a(lib_a-reallocr.o)
 .data          0x4005e49c        0x0 e:/altera/10.1/nios2eds/bin/gnu/h-i686-mingw32/bin/../lib/gcc/nios2-elf/4.1.2/../../../../nios2-elf/lib\libc.a(lib_a-s_isinfd.o)
 .data          0x4005e49c        0x0 e:/altera/10.1/nios2eds/bin/gnu/h-i686-mingw32/bin/../lib/gcc/nios2-elf/4.1.2/../../../../nios2-elf/lib\libc.a(lib_a-s_isnand.o)
 .data          0x4005e49c        0x0 e:/altera/10.1/nios2eds/bin/gnu/h-i686-mingw32/bin/../lib/gcc/nios2-elf/4.1.2/../../../../nios2-elf/lib\libc.a(lib_a-stdio.o)
 .data          0x4005e49c        0x0 e:/altera/10.1/nios2eds/bin/gnu/h-i686-mingw32/bin/../lib/gcc/nios2-elf/4.1.2/../../../../nios2-elf/lib\libc.a(lib_a-wbuf.o)
 .data          0x4005e49c        0x0 e:/altera/10.1/nios2eds/bin/gnu/h-i686-mingw32/bin/../lib/gcc/nios2-elf/4.1.2/../../../../nios2-elf/lib\libc.a(lib_a-writer.o)
 .data          0x4005e49c        0x0 e:/altera/10.1/nios2eds/bin/gnu/h-i686-mingw32/bin/../lib/gcc/nios2-elf/4.1.2/../../../../nios2-elf/lib\libc.a(lib_a-callocr.o)
 .data          0x4005e49c        0x0 e:/altera/10.1/nios2eds/bin/gnu/h-i686-mingw32/bin/../lib/gcc/nios2-elf/4.1.2/../../../../nios2-elf/lib\libc.a(lib_a-closer.o)
 .data          0x4005e49c        0x0 e:/altera/10.1/nios2eds/bin/gnu/h-i686-mingw32/bin/../lib/gcc/nios2-elf/4.1.2/../../../../nios2-elf/lib\libc.a(lib_a-fclose.o)
 .data          0x4005e49c        0x0 e:/altera/10.1/nios2eds/bin/gnu/h-i686-mingw32/bin/../lib/gcc/nios2-elf/4.1.2/../../../../nios2-elf/lib\libc.a(lib_a-fstatr.o)
 .data          0x4005e49c        0x0 e:/altera/10.1/nios2eds/bin/gnu/h-i686-mingw32/bin/../lib/gcc/nios2-elf/4.1.2/../../../../nios2-elf/lib\libc.a(lib_a-isattyr.o)
 .data          0x4005e49c        0x0 e:/altera/10.1/nios2eds/bin/gnu/h-i686-mingw32/bin/../lib/gcc/nios2-elf/4.1.2/../../../../nios2-elf/lib\libc.a(lib_a-lseekr.o)
 .data          0x4005e49c        0x0 e:/altera/10.1/nios2eds/bin/gnu/h-i686-mingw32/bin/../lib/gcc/nios2-elf/4.1.2/../../../../nios2-elf/lib\libc.a(lib_a-readr.o)
 .data          0x4005e49c        0x0 e:/altera/10.1/nios2eds/bin/gnu/h-i686-mingw32/bin/../lib/gcc/nios2-elf/4.1.2\libgcc.a(_udivdi3.o)
 .data          0x4005e49c        0x0 e:/altera/10.1/nios2eds/bin/gnu/h-i686-mingw32/bin/../lib/gcc/nios2-elf/4.1.2\libgcc.a(_umoddi3.o)
 .data          0x4005e49c        0x0 e:/altera/10.1/nios2eds/bin/gnu/h-i686-mingw32/bin/../lib/gcc/nios2-elf/4.1.2\libgcc.a(_eq_df.o)
 .data          0x4005e49c        0x0 e:/altera/10.1/nios2eds/bin/gnu/h-i686-mingw32/bin/../lib/gcc/nios2-elf/4.1.2\libgcc.a(_gt_df.o)
 .data          0x4005e49c        0x0 e:/altera/10.1/nios2eds/bin/gnu/h-i686-mingw32/bin/../lib/gcc/nios2-elf/4.1.2\libgcc.a(_lt_df.o)
 .data          0x4005e49c        0x0 ../mf2_ddr_ucos_bsp/\libucosii_bsp.a(alt_close.o)
 .data          0x4005e49c      0x1a8 ../mf2_ddr_ucos_bsp/\libucosii_bsp.a(alt_dev.o)
                0x4005e49c                alt_dev_null
                0x4005e4c4                alt_fd_list
 .data          0x4005e644        0x0 ../mf2_ddr_ucos_bsp/\libucosii_bsp.a(alt_errno.o)
 .data          0x4005e644        0x0 ../mf2_ddr_ucos_bsp/\libucosii_bsp.a(alt_exit.o)
 .data          0x4005e644        0x0 ../mf2_ddr_ucos_bsp/\libucosii_bsp.a(alt_fstat.o)
 .data          0x4005e644        0x0 ../mf2_ddr_ucos_bsp/\libucosii_bsp.a(alt_getpid.o)
 .data          0x4005e644        0x0 ../mf2_ddr_ucos_bsp/\libucosii_bsp.a(alt_iic.o)
 .data          0x4005e644        0x0 ../mf2_ddr_ucos_bsp/\libucosii_bsp.a(alt_iic_isr_register.o)
 .data          0x4005e644        0x0 ../mf2_ddr_ucos_bsp/\libucosii_bsp.a(alt_instruction_exception_register.o)
 .data          0x4005e644        0x0 ../mf2_ddr_ucos_bsp/\libucosii_bsp.a(alt_irq_entry.o)
 .data          0x4005e644        0x0 ../mf2_ddr_ucos_bsp/\libucosii_bsp.a(alt_irq_vars.o)
 .data          0x4005e644        0x0 ../mf2_ddr_ucos_bsp/\libucosii_bsp.a(alt_isatty.o)
 .data          0x4005e644        0x0 ../mf2_ddr_ucos_bsp/\libucosii_bsp.a(alt_kill.o)
 .data          0x4005e644        0x0 ../mf2_ddr_ucos_bsp/\libucosii_bsp.a(alt_load.o)
 .data          0x4005e644        0x0 ../mf2_ddr_ucos_bsp/\libucosii_bsp.a(alt_lseek.o)
 .data          0x4005e644        0x0 ../mf2_ddr_ucos_bsp/\libucosii_bsp.a(alt_main.o)
 .data          0x4005e644        0x0 ../mf2_ddr_ucos_bsp/\libucosii_bsp.a(alt_read.o)
 .data          0x4005e644        0x0 ../mf2_ddr_ucos_bsp/\libucosii_bsp.a(alt_release_fd.o)
 .data          0x4005e644        0x0 ../mf2_ddr_ucos_bsp/\libucosii_bsp.a(alt_sbrk.o)
 .data          0x4005e644        0x0 ../mf2_ddr_ucos_bsp/\libucosii_bsp.a(alt_tick.o)
 .data          0x4005e644        0x0 ../mf2_ddr_ucos_bsp/\libucosii_bsp.a(alt_usleep.o)
 .data          0x4005e644        0x0 ../mf2_ddr_ucos_bsp/\libucosii_bsp.a(alt_write.o)
 .data          0x4005e644        0x0 ../mf2_ddr_ucos_bsp/\libucosii_bsp.a(os_cpu_a.o)
 .data          0x4005e644        0x0 ../mf2_ddr_ucos_bsp/\libucosii_bsp.a(alt_env_lock.o)
 .data          0x4005e644        0x0 ../mf2_ddr_ucos_bsp/\libucosii_bsp.a(alt_malloc_lock.o)
 .data          0x4005e644        0x0 ../mf2_ddr_ucos_bsp/\libucosii_bsp.a(os_core.o)
 .data          0x4005e644        0x0 ../mf2_ddr_ucos_bsp/\libucosii_bsp.a(os_dbg.o)
 .data          0x4005e644        0x0 ../mf2_ddr_ucos_bsp/\libucosii_bsp.a(os_flag.o)
 .data          0x4005e644        0x0 ../mf2_ddr_ucos_bsp/\libucosii_bsp.a(os_mem.o)
 .data          0x4005e644        0x0 ../mf2_ddr_ucos_bsp/\libucosii_bsp.a(os_q.o)
 .data          0x4005e644        0x0 ../mf2_ddr_ucos_bsp/\libucosii_bsp.a(os_task.o)
 .data          0x4005e644        0x0 ../mf2_ddr_ucos_bsp/\libucosii_bsp.a(os_time.o)
 .data          0x4005e644        0x0 ../mf2_ddr_ucos_bsp/\libucosii_bsp.a(os_tmr.o)
 .data          0x4005e644     0x106c ../mf2_ddr_ucos_bsp/\libucosii_bsp.a(alt_sys_init.o)
 .data          0x4005f6b0        0x0 ../mf2_ddr_ucos_bsp/\libucosii_bsp.a(altera_avalon_jtag_uart_fd.o)
 .data          0x4005f6b0        0x0 ../mf2_ddr_ucos_bsp/\libucosii_bsp.a(altera_avalon_jtag_uart_init.o)
 .data          0x4005f6b0        0x0 ../mf2_ddr_ucos_bsp/\libucosii_bsp.a(altera_avalon_jtag_uart_ioctl.o)
 .data          0x4005f6b0        0x0 ../mf2_ddr_ucos_bsp/\libucosii_bsp.a(altera_avalon_jtag_uart_read.o)
 .data          0x4005f6b0        0x0 ../mf2_ddr_ucos_bsp/\libucosii_bsp.a(altera_avalon_jtag_uart_write.o)
 .data          0x4005f6b0        0x0 ../mf2_ddr_ucos_bsp/\libucosii_bsp.a(altera_avalon_spi.o)
 .data          0x4005f6b0        0x0 ../mf2_ddr_ucos_bsp/\libucosii_bsp.a(altera_avalon_timer_sc.o)
 .data          0x4005f6b0        0x0 ../mf2_ddr_ucos_bsp/\libucosii_bsp.a(alt_alarm_start.o)
 .data          0x4005f6b0        0x0 ../mf2_ddr_ucos_bsp/\libucosii_bsp.a(alt_busy_sleep.o)
 .data          0x4005f6b0        0x0 ../mf2_ddr_ucos_bsp/\libucosii_bsp.a(alt_dcache_flush_all.o)
 .data          0x4005f6b0        0x0 ../mf2_ddr_ucos_bsp/\libucosii_bsp.a(alt_dev_llist_insert.o)
 .data          0x4005f6b0        0x0 ../mf2_ddr_ucos_bsp/\libucosii_bsp.a(alt_do_ctors.o)
 .data          0x4005f6b0        0x0 ../mf2_ddr_ucos_bsp/\libucosii_bsp.a(alt_do_dtors.o)
 .data          0x4005f6b0        0x0 ../mf2_ddr_ucos_bsp/\libucosii_bsp.a(alt_exception_entry.o)
 .data          0x4005f6b0        0x0 ../mf2_ddr_ucos_bsp/\libucosii_bsp.a(alt_icache_flush_all.o)
 .data          0x4005f6b0        0x0 ../mf2_ddr_ucos_bsp/\libucosii_bsp.a(alt_instruction_exception_entry.o)
 .data          0x4005f6b0        0x0 ../mf2_ddr_ucos_bsp/\libucosii_bsp.a(alt_io_redirect.o)
 .data          0x4005f6b0        0x0 ../mf2_ddr_ucos_bsp/\libucosii_bsp.a(alt_open.o)
 .data          0x4005f6b0        0x0 ../mf2_ddr_ucos_bsp/\libucosii_bsp.a(altera_nios2_irq.o)
 .data          0x4005f6b0        0x0 ../mf2_ddr_ucos_bsp/\libucosii_bsp.a(alt_find_dev.o)
 .data          0x4005f6b0        0x0 ../mf2_ddr_ucos_bsp/\libucosii_bsp.a(alt_find_file.o)
 .data          0x4005f6b0        0x0 ../mf2_ddr_ucos_bsp/\libucosii_bsp.a(alt_get_fd.o)
 .data          0x4005f6b0        0x0 ../mf2_ddr_ucos_bsp/\libucosii_bsp.a(alt_icache_flush.o)
 .data          0x4005f6b0        0x0 e:/altera/10.1/nios2eds/bin/gnu/h-i686-mingw32/bin/../lib/gcc/nios2-elf/4.1.2/../../../../nios2-elf/lib\libc.a(lib_a-atexit.o)
 .data          0x4005f6b0        0x0 e:/altera/10.1/nios2eds/bin/gnu/h-i686-mingw32/bin/../lib/gcc/nios2-elf/4.1.2/../../../../nios2-elf/lib\libc.a(lib_a-exit.o)
 .data          0x4005f6b0        0x0 e:/altera/10.1/nios2eds/bin/gnu/h-i686-mingw32/bin/../lib/gcc/nios2-elf/4.1.2/../../../../nios2-elf/lib\libc.a(lib_a-memcmp.o)
 .data          0x4005f6b0        0x0 e:/altera/10.1/nios2eds/bin/gnu/h-i686-mingw32/bin/../lib/gcc/nios2-elf/4.1.2/../../../../nios2-elf/lib\libc.a(lib_a-__atexit.o)
 .data          0x4005f6b0        0x0 e:/altera/10.1/nios2eds/bin/gnu/h-i686-mingw32/bin/../lib/gcc/nios2-elf/4.1.2/../../../../nios2-elf/lib\libc.a(lib_a-__call_atexit.o)
                0x400676b0                _gp = ABSOLUTE ((. + 0x8000))
                0x400676b0                PROVIDE (gp, _gp)
 *(.sdata .sdata.* .gnu.linkonce.s.*)
 .sdata         0x4005f6b0        0x4 ../mf2_ddr_ucos_bsp//obj/HAL/src/crt0.o
                0x4005f6b0                alt_stack_limit_value
 .sdata         0x4005f6b4        0x4 obj/dbg_helper.o
 .sdata         0x4005f6b8       0x14 obj/ddc_helper.o
                0x4005f6c0                lvds_edid_mem
                0x4005f6c4                sdvo_edid_mem
                0x4005f6c8                ddc_device
 .sdata         0x4005f6cc       0x24 obj/ee_helper.o
                0x4005f6cc                mfg_data
                0x4005f6d0                ee_data
                0x4005f6d4                ts_data
                0x4005f6d8                vi_data
                0x4005f6dc                vo_data
                0x4005f6e4                default_lvds_edid
                0x4005f6e8                default_sdvo_edid
                0x4005f6ec                default_vo_edid
 .sdata         0x4005f6f0        0x4 obj/pll_helper.o
 .sdata         0x4005f6f4       0x28 obj/sys-base.o
 .sdata         0x4005f71c       0x24 obj/ts_helper.o
 .sdata         0x4005f740        0x4 obj/tvp7002_helper.o
                0x4005f740                analogue_mode
 .sdata         0x4005f744        0x4 obj/usb/bsd-wrap.o
                0x4005f744                sbuf_handle
 .sdata         0x4005f748      0x1c0 obj/usb/bus_if.o
                0x4005f748                bus_print_child_method_default
                0x4005f750                bus_print_child_desc
                0x4005f758                bus_probe_nomatch_method_default
                0x4005f760                bus_probe_nomatch_desc
                0x4005f768                bus_read_ivar_method_default
                0x4005f770                bus_read_ivar_desc
                0x4005f778                bus_write_ivar_method_default
                0x4005f780                bus_write_ivar_desc
                0x4005f788                bus_child_detached_method_default
                0x4005f790                bus_child_detached_desc
                0x4005f798                bus_driver_added_method_default
                0x4005f7a0                bus_driver_added_desc
                0x4005f7a8                bus_add_child_method_default
                0x4005f7b0                bus_add_child_desc
                0x4005f7b8                bus_alloc_resource_method_default
                0x4005f7c0                bus_alloc_resource_desc
                0x4005f7c8                bus_activate_resource_method_default
                0x4005f7d0                bus_activate_resource_desc
                0x4005f7d8                bus_deactivate_resource_method_default
                0x4005f7e0                bus_deactivate_resource_desc
                0x4005f7e8                bus_release_resource_method_default
                0x4005f7f0                bus_release_resource_desc
                0x4005f7f8                bus_setup_intr_method_default
                0x4005f800                bus_setup_intr_desc
                0x4005f808                bus_teardown_intr_method_default
                0x4005f810                bus_teardown_intr_desc
                0x4005f818                bus_set_resource_method_default
                0x4005f820                bus_set_resource_desc
                0x4005f828                bus_get_resource_method_default
                0x4005f830                bus_get_resource_desc
                0x4005f838                bus_delete_resource_method_default
                0x4005f840                bus_delete_resource_desc
                0x4005f848                bus_get_resource_list_method_default
                0x4005f850                bus_get_resource_list_desc
                0x4005f858                bus_child_present_method_default
                0x4005f860                bus_child_present_desc
                0x4005f868                bus_child_pnpinfo_str_method_default
                0x4005f870                bus_child_pnpinfo_str_desc
                0x4005f878                bus_child_location_str_method_default
                0x4005f880                bus_child_location_str_desc
                0x4005f888                bus_bind_intr_method_default
                0x4005f890                bus_bind_intr_desc
                0x4005f898                bus_config_intr_method_default
                0x4005f8a0                bus_config_intr_desc
                0x4005f8a8                bus_describe_intr_method_default
                0x4005f8b0                bus_describe_intr_desc
                0x4005f8b8                bus_hinted_child_method_default
                0x4005f8c0                bus_hinted_child_desc
                0x4005f8c8                bus_get_dma_tag_method_default
                0x4005f8d0                bus_get_dma_tag_desc
                0x4005f8d8                bus_hint_device_unit_method_default
                0x4005f8e0                bus_hint_device_unit_desc
                0x4005f8e8                bus_new_pass_method_default
                0x4005f8f0                bus_new_pass_desc
                0x4005f8f8                bus_remap_intr_method_default
                0x4005f900                bus_remap_intr_desc
 .sdata         0x4005f908       0x80 obj/usb/device_if.o
                0x4005f908                device_probe_method_default
                0x4005f910                device_probe_desc
                0x4005f918                device_identify_method_default
                0x4005f920                device_identify_desc
                0x4005f928                device_attach_method_default
                0x4005f930                device_attach_desc
                0x4005f938                device_detach_method_default
                0x4005f940                device_detach_desc
                0x4005f948                device_shutdown_method_default
                0x4005f950                device_shutdown_desc
                0x4005f958                device_suspend_method_default
                0x4005f960                device_suspend_desc
                0x4005f968                device_resume_method_default
                0x4005f970                device_resume_desc
                0x4005f978                device_quiesce_method_default
                0x4005f980                device_quiesce_desc
 .sdata         0x4005f988        0x8 obj/usb/kern_module.o
 .sdata         0x4005f990        0x4 obj/usb/kern_sysctl.o
 .sdata         0x4005f994        0x8 obj/usb/oxu210-alloc.o
                0x4005f994                oxu210_heap_allocator
 .sdata         0x4005f99c        0x4 obj/usb/pdev.o
 .sdata         0x4005f9a0       0x18 obj/usb/subr_bus.o
 .sdata         0x4005f9b8        0x4 obj/usb/subr_kobj.o
 .sdata         0x4005f9bc        0x8 obj/usb/tc.o
                0x4005f9bc                tc_debug
 .sdata         0x4005f9c4        0x4 obj/usb/ums.o
 .sdata         0x4005f9c8        0x8 obj/usb/usb_device.o
 .sdata         0x4005f9d0       0x14 obj/usb/usb_dynamic.o
                0x4005f9d0                usb_temp_get_desc_p
                0x4005f9d4                usb_temp_setup_by_index_p
                0x4005f9d8                usb_temp_unsetup_p
                0x4005f9dc                usb_test_quirk_p
                0x4005f9e0                usb_quirk_ioctl_p
 .sdata         0x4005f9e4       0x10 obj/usb/usb_hub.o
 .sdata         0x4005f9f4       0x10 obj/usb/usb_if.o
                0x4005f9f4                usb_handle_request_method_default
                0x4005f9fc                usb_handle_request_desc
 .sdata         0x4005fa04       0x28 obj/usb/usb_s5a.o
 .sdata         0x4005fa2c        0x4 obj/usb/usbdev_oxu210.o
 .sdata         0x4005fa30       0x48 obj/vip_helper.o
                0x4005fa30                cti_0
                0x4005fa34                cti_1
                0x4005fa38                clip_0
                0x4005fa3c                clip_1
                0x4005fa40                scl_0
                0x4005fa44                scl_1
                0x4005fa48                fb_0
                0x4005fa4c                fb_1
                0x4005fa50                mix_0
                0x4005fa54                sync_mst_0
                0x4005fa58                sync_mst_1
                0x4005fa5c                sync_slv_0
                0x4005fa60                sync_slv_1
                0x4005fa64                itc_0
                0x4005fa68                tm_0
                0x4005fa6c                tm_0_mem
                0x4005fa70                as_0
                0x4005fa74                as_1
 .sdata._ZTISt9exception
                0x4005fa78        0x8 e:/altera/10.1/nios2eds/bin/gnu/h-i686-mingw32/bin/../lib/gcc/nios2-elf/4.1.2/../../../../nios2-elf/lib\libstdc++.a(eh_exception.o)
                0x4005fa78                typeinfo for std::exception
 .sdata         0x4005fa80        0x4 e:/altera/10.1/nios2eds/bin/gnu/h-i686-mingw32/bin/../lib/gcc/nios2-elf/4.1.2/../../../../nios2-elf/lib\libstdc++.a(eh_term_handler.o)
                0x4005fa80                __cxxabiv1::__terminate_handler
 .sdata._ZTISt9type_info
                0x4005fa84        0x8 e:/altera/10.1/nios2eds/bin/gnu/h-i686-mingw32/bin/../lib/gcc/nios2-elf/4.1.2/../../../../nios2-elf/lib\libstdc++.a(tinfo.o)
                0x4005fa84                typeinfo for std::type_info
 .sdata         0x4005fa8c        0x4 e:/altera/10.1/nios2eds/bin/gnu/h-i686-mingw32/bin/../lib/gcc/nios2-elf/4.1.2/../../../../nios2-elf/lib\libstdc++.a(eh_unex_handler.o)
                0x4005fa8c                __cxxabiv1::__unexpected_handler
 .sdata         0x4005fa90        0x4 e:/altera/10.1/nios2eds/bin/gnu/h-i686-mingw32/bin/../lib/gcc/nios2-elf/4.1.2/../../../../nios2-elf/lib\libc.a(lib_a-ctype_.o)
                0x4005fa90                __ctype_ptr
 .sdata         0x4005fa94        0x8 e:/altera/10.1/nios2eds/bin/gnu/h-i686-mingw32/bin/../lib/gcc/nios2-elf/4.1.2/../../../../nios2-elf/lib\libc.a(lib_a-mallocr.o)
                0x4005fa94                __malloc_trim_threshold
                0x4005fa98                __malloc_sbrk_base
 .sdata         0x4005fa9c        0x8 e:/altera/10.1/nios2eds/bin/gnu/h-i686-mingw32/bin/../lib/gcc/nios2-elf/4.1.2/../../../../nios2-elf/lib\libc.a(lib_a-impure.o)
                0x4005fa9c                _impure_ptr
                0x4005faa0                _global_impure_ptr
 .sdata         0x4005faa4        0x8 e:/altera/10.1/nios2eds/bin/gnu/h-i686-mingw32/bin/../lib/gcc/nios2-elf/4.1.2/../../../../nios2-elf/lib\libc.a(lib_a-locale.o)
                0x4005faa4                __mb_cur_max
 .sdata         0x4005faac       0x14 ../mf2_ddr_ucos_bsp/\libucosii_bsp.a(alt_dev.o)
                0x4005faac                alt_fs_list
                0x4005fab4                alt_dev_list
                0x4005fabc                alt_max_fd
 .sdata         0x4005fac0        0x4 ../mf2_ddr_ucos_bsp/\libucosii_bsp.a(alt_errno.o)
                0x4005fac0                alt_errno
 .sdata         0x4005fac4        0x4 ../mf2_ddr_ucos_bsp/\libucosii_bsp.a(alt_irq_vars.o)
                0x4005fac4                alt_priority_mask
 .sdata         0x4005fac8        0x4 ../mf2_ddr_ucos_bsp/\libucosii_bsp.a(alt_sbrk.o)
 .sdata         0x4005facc        0x8 ../mf2_ddr_ucos_bsp/\libucosii_bsp.a(alt_tick.o)
                0x4005facc                alt_alarm_list
 .sdata         0x4005fad4        0x4 ../mf2_ddr_ucos_bsp/\libucosii_bsp.a(alt_env_lock.o)
 .sdata         0x4005fad8        0x4 ../mf2_ddr_ucos_bsp/\libucosii_bsp.a(alt_malloc_lock.o)
 .sdata         0x4005fadc       0x74 ../mf2_ddr_ucos_bsp/\libucosii_bsp.a(os_dbg.o)
                0x4005fadc                OSDebugEn
                0x4005fae0                OSEndiannessTest
                0x4005fae4                OSEventEn
                0x4005fae6                OSEventMax
                0x4005fae8                OSEventNameSize
                0x4005faea                OSEventSize
                0x4005faec                OSEventTblSize
                0x4005faee                OSEventMultiEn
                0x4005faf0                OSFlagEn
                0x4005faf2                OSFlagGrpSize
                0x4005faf4                OSFlagNodeSize
                0x4005faf6                OSFlagWidth
                0x4005faf8                OSFlagMax
                0x4005fafa                OSFlagNameSize
                0x4005fafc                OSLowestPrio
                0x4005fafe                OSMboxEn
                0x4005fb00                OSMemEn
                0x4005fb02                OSMemMax
                0x4005fb04                OSMemNameSize
                0x4005fb06                OSMemSize
                0x4005fb08                OSMemTblSize
                0x4005fb0a                OSMutexEn
                0x4005fb0c                OSPtrSize
                0x4005fb0e                OSQEn
                0x4005fb10                OSQMax
                0x4005fb12                OSQSize
                0x4005fb14                OSRdyTblSize
                0x4005fb16                OSSemEn
                0x4005fb18                OSStkWidth
                0x4005fb1a                OSTaskCreateEn
                0x4005fb1c                OSTaskCreateExtEn
                0x4005fb1e                OSTaskDelEn
                0x4005fb20                OSTaskIdleStkSize
                0x4005fb22                OSTaskProfileEn
                0x4005fb24                OSTaskMax
                0x4005fb26                OSTaskNameSize
                0x4005fb28                OSTaskStatEn
                0x4005fb2a                OSTaskStatStkSize
                0x4005fb2c                OSTaskStatStkChkEn
                0x4005fb2e                OSTaskSwHookEn
                0x4005fb30                OSTCBPrioTblMax
                0x4005fb32                OSTCBSize
                0x4005fb34                OSTicksPerSec
                0x4005fb36                OSTimeTickHookEn
                0x4005fb38                OSVersionNbr
                0x4005fb3a                OSTmrEn
                0x4005fb3c                OSTmrCfgMax
                0x4005fb3e                OSTmrCfgNameSize
                0x4005fb40                OSTmrCfgWheelSize
                0x4005fb42                OSTmrCfgTicksPerSec
                0x4005fb44                OSTmrSize
                0x4005fb46                OSTmrTblSize
                0x4005fb48                OSTmrWheelSize
                0x4005fb4a                OSTmrWheelTblSize
                0x4005fb4c                OSDataSize
 *(.sdata2 .sdata2.* .gnu.linkonce.s2.*)
                0x4005fb50                . = ALIGN (0x4)
                0x4005fb50                _edata = ABSOLUTE (.)
                0x4005fb50                PROVIDE (edata, ABSOLUTE (.))
                0x4005fb50                PROVIDE (__ram_rwdata_end, ABSOLUTE (.))
                0x4005fb50                PROVIDE (__flash_rwdata_start, LOADADDR (.rwdata))

.bss            0x40062ff4     0x90b4
                0x40062ff4                __bss_start = ABSOLUTE (.)
                0x40062ff4                PROVIDE (__sbss_start, ABSOLUTE (.))
                0x40062ff4                PROVIDE (___sbss_start, ABSOLUTE (.))
 *(.dynsbss)
 *(.sbss .sbss.* .gnu.linkonce.sb.*)
 .sbss          0x40062ff4        0x4 obj/dbg_helper.o
 .sbss          0x40062ff8        0xc obj/ddc_helper.o
                0x40062ff8                monitor_edid_valid
                0x40062ffa                h_monitor
                0x40062ffc                v_monitor
                0x40062ffe                h_active
                0x40063000                v_active
                0x40063002                refresh
 .sbss          0x40063004        0xc obj/os-support.o
 .sbss          0x40063010        0x8 obj/os_sem.o
                0x40063010                pe_event
                0x40063014                wait_for_me
 .sbss          0x40063018       0x20 obj/sys-base.o
                0x40063018                debug_pio_in
                0x4006301c                reinit_vip
 .sbss          0x40063038       0x24 obj/ts_helper.o
 .sbss          0x4006305c        0x4 obj/tvp7002_helper.o
                0x4006305c                analogue_lpf
 .sbss          0x40063060        0x4 obj/uhe.o
                0x40063060                spurious_ints
 .sbss          0x40063064        0xc obj/usb/bsd-wrap.o
                0x40063064                hz
                0x40063068                malloc_type_head
                0x4006306c                cold
 .sbss          0x40063070        0x4 obj/usb/ehci_oxu210.o
 .sbss          0x40063074       0x10 obj/usb/kern_module.o
                0x4006307c                modules_sx
 .sbss          0x40063084       0x34 obj/usb/kern_sysctl.o
                0x400630a4                sysctl__kern_children
                0x400630a8                sysctl__hw_children
                0x400630ac                sysctl__children
                0x400630b0                sysctl__debug_children
                0x400630b4                sysctl__sysctl_children
 .sbss          0x400630b8        0xc obj/usb/oxu210-intr.o
 .sbss          0x400630c4        0x4 obj/usb/pdev.o
 .sbss          0x400630c8       0x24 obj/usb/subr_bus.o
                0x400630d0                bus_current_pass
                0x400630dc                root_bus
                0x400630e0                sysctl__dev_children
                0x400630e4                sysctl__hw_bus_children
                0x400630e8                root_devclass
 .sbss          0x400630ec        0xc obj/usb/subr_kobj.o
 .sbss          0x400630f8        0x4 obj/usb/tc-mtouch.o
 .sbss          0x400630fc        0x4 obj/usb/tc-zytronic.o
 .sbss          0x40063100        0x4 obj/usb/tc.o
                0x40063100                tc_devclass
 .sbss          0x40063104        0x4 obj/usb/ums.o
 .sbss          0x40063108        0x8 obj/usb/usb_controller.o
 .sbss          0x40063110        0x4 obj/usb/usb_debug.o
                0x40063110                usb_debug
 .sbss          0x40063114        0x4 obj/usb/usb_device.o
                0x40063114                usb_template
 .sbss          0x40063118        0x4 obj/usb/usb_dynamic.o
                0x40063118                usb_devclass_ptr
 .sbss          0x4006311c        0x4 obj/usb/usb_hub.o
 .sbss          0x40063120        0x8 obj/usb/usb_process.o
                0x40063124                usbproc
 .sbss          0x40063128        0x4 obj/usb/usb_s5a.o
 .sbss          0x4006312c       0x14 obj/usb/usbdev_oxu210.o
 .sbss          0x40063140       0x58 obj/video_helper.o
                0x40063140                vi_pio_irq
                0x40063144                vi_pio_stat
                0x40063148                vi_connect_mode
                0x4006314c                format
                0x40063150                ep3sl_irq_mask
                0x40063154                cti0_irq_mask
                0x40063158                cti0_irq
                0x4006315c                cti0_stat
                0x40063160                cti0_en
                0x40063164                cti0_present
                0x40063168                cti1_irq_mask
                0x4006316c                cti1_irq
                0x40063170                cti1_stat
                0x40063174                cti1_en
                0x40063178                sync0_irq
                0x4006317c                sync1_irq
                0x40063180                egmvid_irq
                0x40063184                egmvid_stat
                0x40063188                s5vid_irq
                0x4006318c                s5vid_stat
                0x40063190                itc0_irq
                0x40063194                itc0_stat
 .sbss          0x40063198       0x1c obj/vip_helper.o
 .sbss          0x400631b4        0x8 e:/altera/10.1/nios2eds/bin/gnu/h-i686-mingw32/bin/../lib/gcc/nios2-elf/4.1.2/../../../../nios2-elf/lib\libstdc++.a(eh_globals.o)
 .sbss          0x400631bc        0x4 e:/altera/10.1/nios2eds/bin/gnu/h-i686-mingw32/bin/../lib/gcc/nios2-elf/4.1.2/../../../../nios2-elf/lib\libstdc++.a(eh_alloc.o)
 .sbss          0x400631c0        0xc e:/altera/10.1/nios2eds/bin/gnu/h-i686-mingw32/bin/../lib/gcc/nios2-elf/4.1.2\libgcc.a(unwind-dw2-fde.o)
 .sbss          0x400631cc        0xc e:/altera/10.1/nios2eds/bin/gnu/h-i686-mingw32/bin/../lib/gcc/nios2-elf/4.1.2/../../../../nios2-elf/lib\libc.a(lib_a-mallocr.o)
                0x400631cc                __malloc_top_pad
                0x400631d0                __malloc_max_sbrked_mem
                0x400631d4                __malloc_max_total_mem
 .sbss          0x400631d8        0x4 e:/altera/10.1/nios2eds/bin/gnu/h-i686-mingw32/bin/../lib/gcc/nios2-elf/4.1.2/../../../../nios2-elf/lib\libc.a(lib_a-int_errno.o)
                0x400631d8                errno
 .sbss          0x400631dc        0xc e:/altera/10.1/nios2eds/bin/gnu/h-i686-mingw32/bin/../lib/gcc/nios2-elf/4.1.2/../../../../nios2-elf/lib\libc.a(lib_a-locale.o)
                0x400631dc                __nlocale_changed
                0x400631e0                __mlocale_changed
                0x400631e4                _PathLocale
 .sbss          0x400631e8        0x4 ../mf2_ddr_ucos_bsp/\libucosii_bsp.a(alt_dev.o)
                0x400631e8                alt_fd_list_lock
 .sbss          0x400631ec        0x4 ../mf2_ddr_ucos_bsp/\libucosii_bsp.a(alt_irq_vars.o)
                0x400631ec                alt_irq_active
 .sbss          0x400631f0        0xc ../mf2_ddr_ucos_bsp/\libucosii_bsp.a(alt_main.o)
                0x400631f0                alt_argc
                0x400631f4                alt_argv
                0x400631f8                alt_envp
 .sbss          0x400631fc        0x8 ../mf2_ddr_ucos_bsp/\libucosii_bsp.a(alt_tick.o)
                0x400631fc                _alt_tick_rate
                0x40063200                _alt_nticks
 .sbss          0x40063204        0x8 ../mf2_ddr_ucos_bsp/\libucosii_bsp.a(alt_env_lock.o)
                0x40063208                alt_envsem
 .sbss          0x4006320c        0x8 ../mf2_ddr_ucos_bsp/\libucosii_bsp.a(alt_malloc_lock.o)
                0x40063210                alt_heapsem
 .sbss          0x40063214       0x6c ../mf2_ddr_ucos_bsp/\libucosii_bsp.a(os_core.o)
                0x40063214                OSTmrFreeList
                0x40063218                OSLockNesting
                0x4006321c                OSTmrSemSignal
                0x40063220                OSRunning
                0x40063224                OSIdleCtr
                0x40063228                OSTmrUsed
                0x4006322a                OSPrioHighRdy
                0x4006322b                OSPrioCur
                0x4006322c                OSTCBList
                0x40063230                OSTickStepState
                0x40063234                OSCtxSwCtr
                0x40063238                OSTmrFree
                0x4006323c                OSIdleCtrMax
                0x40063240                OSTCBFreeList
                0x40063244                OSCPUUsage
                0x40063245                OSTaskCtr
                0x40063248                OSMemFreeList
                0x4006324c                OSTCBHighRdy
                0x40063250                OSQFreeList
                0x40063254                OSRdyGrp
                0x40063255                OSRdyTbl
                0x4006325c                OSEventFreeList
                0x40063260                OSIntNesting
                0x40063264                OSTCBCur
                0x40063268                OSTmrTime
                0x4006326c                OSTime
                0x40063270                OSTmrSem
                0x40063274                OSFlagFreeList
                0x40063278                OSStatRdy
                0x4006327c                OSIdleCtrRun
 .sbss          0x40063280        0x4 ../mf2_ddr_ucos_bsp/\libucosii_bsp.a(alt_instruction_exception_entry.o)
                0x40063280                alt_instruction_exception_handler
 *(.sbss2 .sbss2.* .gnu.linkonce.sb2.*)
 *(.scommon)
                0x40063284                PROVIDE (__sbss_end, ABSOLUTE (.))
                0x40063284                PROVIDE (___sbss_end, ABSOLUTE (.))
 *(.dynbss)
 *(.bss .bss.* .gnu.linkonce.b.*)
 .bss           0x40063284        0x0 ../mf2_ddr_ucos_bsp//obj/HAL/src/crt0.o
 .bss           0x40063284        0x0 obj/alt-irq-handler.o
 .bss           0x40063284        0x0 obj/dbg_helper.o
 .bss           0x40063284        0x0 obj/ddc_helper.o
 .bss           0x40063284        0x0 obj/dynedid.o
 .bss           0x40063284       0x23 obj/ee_helper.o
 .bss           0x400632a7        0x0 obj/fifo_helper.o
 .bss           0x400632a7        0x0 obj/i2c_master.o
 .bss           0x400632a7        0x0 obj/main.o
 *fill*         0x400632a7        0x1 00
 .bss           0x400632a8       0x30 obj/os-support.o
 .bss           0x400632d8        0x0 obj/os_bsem.o
 .bss           0x400632d8        0x0 obj/os_cpu_c.o
 .bss           0x400632d8        0x0 obj/os_sem.o
 .bss           0x400632d8        0x0 obj/ow.o
 .bss           0x400632d8        0x0 obj/pll_helper.o
 .bss           0x400632d8        0x0 obj/sys-base.o
 .bss           0x400632d8        0x0 obj/touchcon.o
 .bss           0x400632d8       0xb0 obj/ts_helper.o
 .bss           0x40063388        0x0 obj/tvp7002_helper.o
 .bss           0x40063388        0x0 obj/uhe.o
 .bss           0x40063388        0x0 obj/usb/bsd-bus-dma.o
 .bss           0x40063388        0x0 obj/usb/bsd-wrap.o
 .bss           0x40063388        0x0 obj/usb/bus_if.o
 .bss           0x40063388        0x0 obj/usb/device_if.o
 .bss           0x40063388        0x0 obj/usb/ehci.o
 .bss           0x40063388        0x0 obj/usb/ehci_oxu210.o
 .bss           0x40063388        0x0 obj/usb/init_main.o
 .bss           0x40063388        0x0 obj/usb/kern_linker.o
 .bss           0x40063388        0x0 obj/usb/kern_module.o
 .bss           0x40063388        0x0 obj/usb/kern_sysctl.o
 .bss           0x40063388      0x88c obj/usb/oxu210-alloc.o
 .bss           0x40063c14       0x10 obj/usb/oxu210-intr.o
 .bss           0x40063c24        0x0 obj/usb/pdev.o
 .bss           0x40063c24        0x0 obj/usb/s5a-autoconf.o
 .bss           0x40063c24        0x0 obj/usb/subr_bus.o
 .bss           0x40063c24        0xc obj/usb/subr_kobj.o
 .bss           0x40063c30        0x0 obj/usb/subr_uio.o
 .bss           0x40063c30        0x0 obj/usb/tc-mtouch.o
 .bss           0x40063c30        0x0 obj/usb/tc-zytronic.o
 .bss           0x40063c30        0x0 obj/usb/tc.o
 .bss           0x40063c30        0x0 obj/usb/ums.o
 .bss           0x40063c30        0x0 obj/usb/usb_busdma.o
 .bss           0x40063c30        0x0 obj/usb/usb_controller.o
 .bss           0x40063c30        0x0 obj/usb/usb_debug.o
 .bss           0x40063c30        0x0 obj/usb/usb_device.o
 .bss           0x40063c30        0x0 obj/usb/usb_dynamic.o
 .bss           0x40063c30        0x0 obj/usb/usb_error.o
 .bss           0x40063c30        0x0 obj/usb/usb_handle_request.o
 .bss           0x40063c30        0x0 obj/usb/usb_hid.o
 .bss           0x40063c30        0x0 obj/usb/usb_hub.o
 .bss           0x40063c30        0x0 obj/usb/usb_if.o
 .bss           0x40063c30        0x0 obj/usb/usb_parse.o
 .bss           0x40063c30        0x0 obj/usb/usb_process.o
 .bss           0x40063c30        0x0 obj/usb/usb_request.o
 .bss           0x40063c30        0x0 obj/usb/usb_s5a.o
 .bss           0x40063c30        0x0 obj/usb/usb_transfer.o
 .bss           0x40063c30        0x0 obj/usb/usb_util.o
 .bss           0x40063c30        0x0 obj/usb/usbdev_oxu210.o
 .bss           0x40063c30        0x0 obj/usb_helper.o
 .bss           0x40063c30        0x0 obj/video_helper.o
 .bss           0x40063c30     0x1afc obj/vip_helper.o
                0x40063c30                start_state
                0x400640f4                animate_state
                0x400645b8                end_state
                0x40064a7c                vip_animate
 .bss           0x4006572c        0x0 e:/altera/10.1/nios2eds/bin/gnu/h-i686-mingw32/bin/../lib/gcc/nios2-elf/4.1.2/../../../../nios2-elf/lib\libstdc++.a(eh_personality.o)
 .bss           0x4006572c        0x0 e:/altera/10.1/nios2eds/bin/gnu/h-i686-mingw32/bin/../lib/gcc/nios2-elf/4.1.2/../../../../nios2-elf/lib\libstdc++.a(eh_globals.o)
 .bss           0x4006572c        0x0 e:/altera/10.1/nios2eds/bin/gnu/h-i686-mingw32/bin/../lib/gcc/nios2-elf/4.1.2/../../../../nios2-elf/lib\libstdc++.a(eh_throw.o)
 .bss           0x4006572c        0x0 e:/altera/10.1/nios2eds/bin/gnu/h-i686-mingw32/bin/../lib/gcc/nios2-elf/4.1.2/../../../../nios2-elf/lib\libstdc++.a(eh_call.o)
 .bss           0x4006572c        0x0 e:/altera/10.1/nios2eds/bin/gnu/h-i686-mingw32/bin/../lib/gcc/nios2-elf/4.1.2/../../../../nios2-elf/lib\libstdc++.a(eh_catch.o)
 .bss           0x4006572c        0x0 e:/altera/10.1/nios2eds/bin/gnu/h-i686-mingw32/bin/../lib/gcc/nios2-elf/4.1.2/../../../../nios2-elf/lib\libstdc++.a(eh_exception.o)
 .bss           0x4006572c        0x0 e:/altera/10.1/nios2eds/bin/gnu/h-i686-mingw32/bin/../lib/gcc/nios2-elf/4.1.2/../../../../nios2-elf/lib\libstdc++.a(eh_terminate.o)
 .bss           0x4006572c        0x0 e:/altera/10.1/nios2eds/bin/gnu/h-i686-mingw32/bin/../lib/gcc/nios2-elf/4.1.2/../../../../nios2-elf/lib\libstdc++.a(si_class_type_info.o)
 .bss           0x4006572c      0x800 e:/altera/10.1/nios2eds/bin/gnu/h-i686-mingw32/bin/../lib/gcc/nios2-elf/4.1.2/../../../../nios2-elf/lib\libstdc++.a(eh_alloc.o)
 .bss           0x40065f2c        0x0 e:/altera/10.1/nios2eds/bin/gnu/h-i686-mingw32/bin/../lib/gcc/nios2-elf/4.1.2/../../../../nios2-elf/lib\libstdc++.a(eh_term_handler.o)
 .bss           0x40065f2c        0x0 e:/altera/10.1/nios2eds/bin/gnu/h-i686-mingw32/bin/../lib/gcc/nios2-elf/4.1.2/../../../../nios2-elf/lib\libstdc++.a(tinfo.o)
 .bss           0x40065f2c        0x0 e:/altera/10.1/nios2eds/bin/gnu/h-i686-mingw32/bin/../lib/gcc/nios2-elf/4.1.2/../../../../nios2-elf/lib\libstdc++.a(del_op.o)
 .bss           0x40065f2c        0x0 e:/altera/10.1/nios2eds/bin/gnu/h-i686-mingw32/bin/../lib/gcc/nios2-elf/4.1.2/../../../../nios2-elf/lib\libstdc++.a(class_type_info.o)
 .bss           0x40065f2c        0x0 e:/altera/10.1/nios2eds/bin/gnu/h-i686-mingw32/bin/../lib/gcc/nios2-elf/4.1.2/../../../../nios2-elf/lib\libstdc++.a(eh_unex_handler.o)
 .bss           0x40065f2c        0x0 e:/altera/10.1/nios2eds/bin/gnu/h-i686-mingw32/bin/../lib/gcc/nios2-elf/4.1.2\libgcc.a(_muldi3.o)
 .bss           0x40065f2c        0x0 e:/altera/10.1/nios2eds/bin/gnu/h-i686-mingw32/bin/../lib/gcc/nios2-elf/4.1.2\libgcc.a(_fixunsdfsi.o)
 .bss           0x40065f2c        0x0 e:/altera/10.1/nios2eds/bin/gnu/h-i686-mingw32/bin/../lib/gcc/nios2-elf/4.1.2\libgcc.a(_floatdidf.o)
 .bss           0x40065f2c        0x0 e:/altera/10.1/nios2eds/bin/gnu/h-i686-mingw32/bin/../lib/gcc/nios2-elf/4.1.2\libgcc.a(_divdi3.o)
 .bss           0x40065f2c        0x0 e:/altera/10.1/nios2eds/bin/gnu/h-i686-mingw32/bin/../lib/gcc/nios2-elf/4.1.2\libgcc.a(_addsub_df.o)
 .bss           0x40065f2c        0x0 e:/altera/10.1/nios2eds/bin/gnu/h-i686-mingw32/bin/../lib/gcc/nios2-elf/4.1.2\libgcc.a(_mul_df.o)
 .bss           0x40065f2c        0x0 e:/altera/10.1/nios2eds/bin/gnu/h-i686-mingw32/bin/../lib/gcc/nios2-elf/4.1.2\libgcc.a(_div_df.o)
 .bss           0x40065f2c        0x0 e:/altera/10.1/nios2eds/bin/gnu/h-i686-mingw32/bin/../lib/gcc/nios2-elf/4.1.2\libgcc.a(_ne_df.o)
 .bss           0x40065f2c        0x0 e:/altera/10.1/nios2eds/bin/gnu/h-i686-mingw32/bin/../lib/gcc/nios2-elf/4.1.2\libgcc.a(_ge_df.o)
 .bss           0x40065f2c        0x0 e:/altera/10.1/nios2eds/bin/gnu/h-i686-mingw32/bin/../lib/gcc/nios2-elf/4.1.2\libgcc.a(_si_to_df.o)
 .bss           0x40065f2c        0x0 e:/altera/10.1/nios2eds/bin/gnu/h-i686-mingw32/bin/../lib/gcc/nios2-elf/4.1.2\libgcc.a(_df_to_si.o)
 .bss           0x40065f2c        0x0 e:/altera/10.1/nios2eds/bin/gnu/h-i686-mingw32/bin/../lib/gcc/nios2-elf/4.1.2\libgcc.a(_thenan_df.o)
 .bss           0x40065f2c        0x0 e:/altera/10.1/nios2eds/bin/gnu/h-i686-mingw32/bin/../lib/gcc/nios2-elf/4.1.2\libgcc.a(_usi_to_df.o)
 .bss           0x40065f2c        0x0 e:/altera/10.1/nios2eds/bin/gnu/h-i686-mingw32/bin/../lib/gcc/nios2-elf/4.1.2\libgcc.a(lib2-divmod.o)
 .bss           0x40065f2c       0x29 e:/altera/10.1/nios2eds/bin/gnu/h-i686-mingw32/bin/../lib/gcc/nios2-elf/4.1.2\libgcc.a(unwind-dw2.o)
 .bss           0x40065f55        0x0 e:/altera/10.1/nios2eds/bin/gnu/h-i686-mingw32/bin/../lib/gcc/nios2-elf/4.1.2\libgcc.a(unwind-dw2-fde.o)
 .bss           0x40065f55        0x0 e:/altera/10.1/nios2eds/bin/gnu/h-i686-mingw32/bin/../lib/gcc/nios2-elf/4.1.2\libgcc.a(_clz.o)
 .bss           0x40065f55        0x0 e:/altera/10.1/nios2eds/bin/gnu/h-i686-mingw32/bin/../lib/gcc/nios2-elf/4.1.2\libgcc.a(_clzsi2.o)
 .bss           0x40065f55        0x0 e:/altera/10.1/nios2eds/bin/gnu/h-i686-mingw32/bin/../lib/gcc/nios2-elf/4.1.2\libgcc.a(_pack_df.o)
 .bss           0x40065f55        0x0 e:/altera/10.1/nios2eds/bin/gnu/h-i686-mingw32/bin/../lib/gcc/nios2-elf/4.1.2\libgcc.a(_unpack_df.o)
 .bss           0x40065f55        0x0 e:/altera/10.1/nios2eds/bin/gnu/h-i686-mingw32/bin/../lib/gcc/nios2-elf/4.1.2\libgcc.a(_fpcmp_parts_df.o)
 .bss           0x40065f55        0x0 e:/altera/10.1/nios2eds/bin/gnu/h-i686-mingw32/bin/../lib/gcc/nios2-elf/4.1.2/../../../../nios2-elf/lib\libc.a(lib_a-abort.o)
 .bss           0x40065f55        0x0 e:/altera/10.1/nios2eds/bin/gnu/h-i686-mingw32/bin/../lib/gcc/nios2-elf/4.1.2/../../../../nios2-elf/lib\libc.a(lib_a-bcopy.o)
 .bss           0x40065f55        0x0 e:/altera/10.1/nios2eds/bin/gnu/h-i686-mingw32/bin/../lib/gcc/nios2-elf/4.1.2/../../../../nios2-elf/lib\libc.a(lib_a-ctype_.o)
 .bss           0x40065f55        0x0 e:/altera/10.1/nios2eds/bin/gnu/h-i686-mingw32/bin/../lib/gcc/nios2-elf/4.1.2/../../../../nios2-elf/lib\libc.a(lib_a-malloc.o)
 *fill*         0x40065f55        0x3 00
 .bss           0x40065f58       0x28 e:/altera/10.1/nios2eds/bin/gnu/h-i686-mingw32/bin/../lib/gcc/nios2-elf/4.1.2/../../../../nios2-elf/lib\libc.a(lib_a-mallocr.o)
                0x40065f58                __malloc_current_mallinfo
 .bss           0x40065f80        0x0 e:/altera/10.1/nios2eds/bin/gnu/h-i686-mingw32/bin/../lib/gcc/nios2-elf/4.1.2/../../../../nios2-elf/lib\libc.a(lib_a-memcpy.o)
 .bss           0x40065f80        0x0 e:/altera/10.1/nios2eds/bin/gnu/h-i686-mingw32/bin/../lib/gcc/nios2-elf/4.1.2/../../../../nios2-elf/lib\libc.a(lib_a-memmove.o)
 .bss           0x40065f80        0x0 e:/altera/10.1/nios2eds/bin/gnu/h-i686-mingw32/bin/../lib/gcc/nios2-elf/4.1.2/../../../../nios2-elf/lib\libc.a(lib_a-memset.o)
 .bss           0x40065f80        0x0 e:/altera/10.1/nios2eds/bin/gnu/h-i686-mingw32/bin/../lib/gcc/nios2-elf/4.1.2/../../../../nios2-elf/lib\libc.a(lib_a-printf.o)
 .bss           0x40065f80        0x0 e:/altera/10.1/nios2eds/bin/gnu/h-i686-mingw32/bin/../lib/gcc/nios2-elf/4.1.2/../../../../nios2-elf/lib\libc.a(lib_a-putchar.o)
 .bss           0x40065f80        0x0 e:/altera/10.1/nios2eds/bin/gnu/h-i686-mingw32/bin/../lib/gcc/nios2-elf/4.1.2/../../../../nios2-elf/lib\libc.a(lib_a-puts.o)
 .bss           0x40065f80        0x0 e:/altera/10.1/nios2eds/bin/gnu/h-i686-mingw32/bin/../lib/gcc/nios2-elf/4.1.2/../../../../nios2-elf/lib\libc.a(lib_a-rand.o)
 .bss           0x40065f80        0x0 e:/altera/10.1/nios2eds/bin/gnu/h-i686-mingw32/bin/../lib/gcc/nios2-elf/4.1.2/../../../../nios2-elf/lib\libc.a(lib_a-sbrkr.o)
 .bss           0x40065f80        0x0 e:/altera/10.1/nios2eds/bin/gnu/h-i686-mingw32/bin/../lib/gcc/nios2-elf/4.1.2/../../../../nios2-elf/lib\libc.a(lib_a-signal.o)
 .bss           0x40065f80        0x0 e:/altera/10.1/nios2eds/bin/gnu/h-i686-mingw32/bin/../lib/gcc/nios2-elf/4.1.2/../../../../nios2-elf/lib\libc.a(lib_a-signalr.o)
 .bss           0x40065f80        0x0 e:/altera/10.1/nios2eds/bin/gnu/h-i686-mingw32/bin/../lib/gcc/nios2-elf/4.1.2/../../../../nios2-elf/lib\libc.a(lib_a-snprintf.o)
 .bss           0x40065f80        0x0 e:/altera/10.1/nios2eds/bin/gnu/h-i686-mingw32/bin/../lib/gcc/nios2-elf/4.1.2/../../../../nios2-elf/lib\libc.a(lib_a-sprintf.o)
 .bss           0x40065f80        0x0 e:/altera/10.1/nios2eds/bin/gnu/h-i686-mingw32/bin/../lib/gcc/nios2-elf/4.1.2/../../../../nios2-elf/lib\libc.a(lib_a-strcmp.o)
 .bss           0x40065f80        0x0 e:/altera/10.1/nios2eds/bin/gnu/h-i686-mingw32/bin/../lib/gcc/nios2-elf/4.1.2/../../../../nios2-elf/lib\libc.a(lib_a-strcpy.o)
 .bss           0x40065f80        0x0 e:/altera/10.1/nios2eds/bin/gnu/h-i686-mingw32/bin/../lib/gcc/nios2-elf/4.1.2/../../../../nios2-elf/lib\libc.a(lib_a-strdup.o)
 .bss           0x40065f80        0x0 e:/altera/10.1/nios2eds/bin/gnu/h-i686-mingw32/bin/../lib/gcc/nios2-elf/4.1.2/../../../../nios2-elf/lib\libc.a(lib_a-strdup_r.o)
 .bss           0x40065f80        0x0 e:/altera/10.1/nios2eds/bin/gnu/h-i686-mingw32/bin/../lib/gcc/nios2-elf/4.1.2/../../../../nios2-elf/lib\libc.a(lib_a-strlcpy.o)
 .bss           0x40065f80        0x0 e:/altera/10.1/nios2eds/bin/gnu/h-i686-mingw32/bin/../lib/gcc/nios2-elf/4.1.2/../../../../nios2-elf/lib\libc.a(lib_a-strlen.o)
 .bss           0x40065f80        0x0 e:/altera/10.1/nios2eds/bin/gnu/h-i686-mingw32/bin/../lib/gcc/nios2-elf/4.1.2/../../../../nios2-elf/lib\libc.a(lib_a-strncpy.o)
 .bss           0x40065f80        0x0 e:/altera/10.1/nios2eds/bin/gnu/h-i686-mingw32/bin/../lib/gcc/nios2-elf/4.1.2/../../../../nios2-elf/lib\libc.a(lib_a-strnlen.o)
 .bss           0x40065f80        0x0 e:/altera/10.1/nios2eds/bin/gnu/h-i686-mingw32/bin/../lib/gcc/nios2-elf/4.1.2/../../../../nios2-elf/lib\libc.a(lib_a-vfprintf.o)
 .bss           0x40065f80        0x0 e:/altera/10.1/nios2eds/bin/gnu/h-i686-mingw32/bin/../lib/gcc/nios2-elf/4.1.2/../../../../nios2-elf/lib\libc.a(lib_a-vprintf.o)
 .bss           0x40065f80        0x0 e:/altera/10.1/nios2eds/bin/gnu/h-i686-mingw32/bin/../lib/gcc/nios2-elf/4.1.2/../../../../nios2-elf/lib\libc.a(lib_a-vsnprintf.o)
 .bss           0x40065f80        0x0 e:/altera/10.1/nios2eds/bin/gnu/h-i686-mingw32/bin/../lib/gcc/nios2-elf/4.1.2/../../../../nios2-elf/lib\libc.a(lib_a-vsprintf.o)
 .bss           0x40065f80        0x0 e:/altera/10.1/nios2eds/bin/gnu/h-i686-mingw32/bin/../lib/gcc/nios2-elf/4.1.2/../../../../nios2-elf/lib\libc.a(lib_a-wsetup.o)
 .bss           0x40065f80        0x0 e:/altera/10.1/nios2eds/bin/gnu/h-i686-mingw32/bin/../lib/gcc/nios2-elf/4.1.2/../../../../nios2-elf/lib\libc.a(lib_a-dtoa.o)
 .bss           0x40065f80        0x0 e:/altera/10.1/nios2eds/bin/gnu/h-i686-mingw32/bin/../lib/gcc/nios2-elf/4.1.2/../../../../nios2-elf/lib\libc.a(lib_a-fflush.o)
 .bss           0x40065f80        0x0 e:/altera/10.1/nios2eds/bin/gnu/h-i686-mingw32/bin/../lib/gcc/nios2-elf/4.1.2/../../../../nios2-elf/lib\libc.a(lib_a-findfp.o)
 .bss           0x40065f80        0x0 e:/altera/10.1/nios2eds/bin/gnu/h-i686-mingw32/bin/../lib/gcc/nios2-elf/4.1.2/../../../../nios2-elf/lib\libc.a(lib_a-freer.o)
 .bss           0x40065f80        0x0 e:/altera/10.1/nios2eds/bin/gnu/h-i686-mingw32/bin/../lib/gcc/nios2-elf/4.1.2/../../../../nios2-elf/lib\libc.a(lib_a-fvwrite.o)
 .bss           0x40065f80        0x0 e:/altera/10.1/nios2eds/bin/gnu/h-i686-mingw32/bin/../lib/gcc/nios2-elf/4.1.2/../../../../nios2-elf/lib\libc.a(lib_a-fwalk.o)
 .bss           0x40065f80        0x0 e:/altera/10.1/nios2eds/bin/gnu/h-i686-mingw32/bin/../lib/gcc/nios2-elf/4.1.2/../../../../nios2-elf/lib\libc.a(lib_a-impure.o)
 .bss           0x40065f80        0x0 e:/altera/10.1/nios2eds/bin/gnu/h-i686-mingw32/bin/../lib/gcc/nios2-elf/4.1.2/../../../../nios2-elf/lib\libc.a(lib_a-int_errno.o)
 .bss           0x40065f80        0x0 e:/altera/10.1/nios2eds/bin/gnu/h-i686-mingw32/bin/../lib/gcc/nios2-elf/4.1.2/../../../../nios2-elf/lib\libc.a(lib_a-locale.o)
 .bss           0x40065f80        0x0 e:/altera/10.1/nios2eds/bin/gnu/h-i686-mingw32/bin/../lib/gcc/nios2-elf/4.1.2/../../../../nios2-elf/lib\libc.a(lib_a-makebuf.o)
 .bss           0x40065f80        0x0 e:/altera/10.1/nios2eds/bin/gnu/h-i686-mingw32/bin/../lib/gcc/nios2-elf/4.1.2/../../../../nios2-elf/lib\libc.a(lib_a-memchr.o)
 .bss           0x40065f80        0x0 e:/altera/10.1/nios2eds/bin/gnu/h-i686-mingw32/bin/../lib/gcc/nios2-elf/4.1.2/../../../../nios2-elf/lib\libc.a(lib_a-mprec.o)
 .bss           0x40065f80        0x0 e:/altera/10.1/nios2eds/bin/gnu/h-i686-mingw32/bin/../lib/gcc/nios2-elf/4.1.2/../../../../nios2-elf/lib\libc.a(lib_a-putc.o)
 .bss           0x40065f80        0x0 e:/altera/10.1/nios2eds/bin/gnu/h-i686-mingw32/bin/../lib/gcc/nios2-elf/4.1.2/../../../../nios2-elf/lib\libc.a(lib_a-reallocr.o)
 .bss           0x40065f80        0x0 e:/altera/10.1/nios2eds/bin/gnu/h-i686-mingw32/bin/../lib/gcc/nios2-elf/4.1.2/../../../../nios2-elf/lib\libc.a(lib_a-s_isinfd.o)
 .bss           0x40065f80        0x0 e:/altera/10.1/nios2eds/bin/gnu/h-i686-mingw32/bin/../lib/gcc/nios2-elf/4.1.2/../../../../nios2-elf/lib\libc.a(lib_a-s_isnand.o)
 .bss           0x40065f80        0x0 e:/altera/10.1/nios2eds/bin/gnu/h-i686-mingw32/bin/../lib/gcc/nios2-elf/4.1.2/../../../../nios2-elf/lib\libc.a(lib_a-stdio.o)
 .bss           0x40065f80        0x0 e:/altera/10.1/nios2eds/bin/gnu/h-i686-mingw32/bin/../lib/gcc/nios2-elf/4.1.2/../../../../nios2-elf/lib\libc.a(lib_a-wbuf.o)
 .bss           0x40065f80        0x0 e:/altera/10.1/nios2eds/bin/gnu/h-i686-mingw32/bin/../lib/gcc/nios2-elf/4.1.2/../../../../nios2-elf/lib\libc.a(lib_a-writer.o)
 .bss           0x40065f80        0x0 e:/altera/10.1/nios2eds/bin/gnu/h-i686-mingw32/bin/../lib/gcc/nios2-elf/4.1.2/../../../../nios2-elf/lib\libc.a(lib_a-callocr.o)
 .bss           0x40065f80        0x0 e:/altera/10.1/nios2eds/bin/gnu/h-i686-mingw32/bin/../lib/gcc/nios2-elf/4.1.2/../../../../nios2-elf/lib\libc.a(lib_a-closer.o)
 .bss           0x40065f80        0x0 e:/altera/10.1/nios2eds/bin/gnu/h-i686-mingw32/bin/../lib/gcc/nios2-elf/4.1.2/../../../../nios2-elf/lib\libc.a(lib_a-fclose.o)
 .bss           0x40065f80        0x0 e:/altera/10.1/nios2eds/bin/gnu/h-i686-mingw32/bin/../lib/gcc/nios2-elf/4.1.2/../../../../nios2-elf/lib\libc.a(lib_a-fstatr.o)
 .bss           0x40065f80        0x0 e:/altera/10.1/nios2eds/bin/gnu/h-i686-mingw32/bin/../lib/gcc/nios2-elf/4.1.2/../../../../nios2-elf/lib\libc.a(lib_a-isattyr.o)
 .bss           0x40065f80        0x0 e:/altera/10.1/nios2eds/bin/gnu/h-i686-mingw32/bin/../lib/gcc/nios2-elf/4.1.2/../../../../nios2-elf/lib\libc.a(lib_a-lseekr.o)
 .bss           0x40065f80        0x0 e:/altera/10.1/nios2eds/bin/gnu/h-i686-mingw32/bin/../lib/gcc/nios2-elf/4.1.2/../../../../nios2-elf/lib\libc.a(lib_a-readr.o)
 .bss           0x40065f80        0x0 e:/altera/10.1/nios2eds/bin/gnu/h-i686-mingw32/bin/../lib/gcc/nios2-elf/4.1.2\libgcc.a(_udivdi3.o)
 .bss           0x40065f80        0x0 e:/altera/10.1/nios2eds/bin/gnu/h-i686-mingw32/bin/../lib/gcc/nios2-elf/4.1.2\libgcc.a(_umoddi3.o)
 .bss           0x40065f80        0x0 e:/altera/10.1/nios2eds/bin/gnu/h-i686-mingw32/bin/../lib/gcc/nios2-elf/4.1.2\libgcc.a(_eq_df.o)
 .bss           0x40065f80        0x0 e:/altera/10.1/nios2eds/bin/gnu/h-i686-mingw32/bin/../lib/gcc/nios2-elf/4.1.2\libgcc.a(_gt_df.o)
 .bss           0x40065f80        0x0 e:/altera/10.1/nios2eds/bin/gnu/h-i686-mingw32/bin/../lib/gcc/nios2-elf/4.1.2\libgcc.a(_lt_df.o)
 .bss           0x40065f80        0x0 ../mf2_ddr_ucos_bsp/\libucosii_bsp.a(alt_close.o)
 .bss           0x40065f80        0x0 ../mf2_ddr_ucos_bsp/\libucosii_bsp.a(alt_dev.o)
 .bss           0x40065f80        0x0 ../mf2_ddr_ucos_bsp/\libucosii_bsp.a(alt_errno.o)
 .bss           0x40065f80        0x0 ../mf2_ddr_ucos_bsp/\libucosii_bsp.a(alt_exit.o)
 .bss           0x40065f80        0x0 ../mf2_ddr_ucos_bsp/\libucosii_bsp.a(alt_fstat.o)
 .bss           0x40065f80        0x0 ../mf2_ddr_ucos_bsp/\libucosii_bsp.a(alt_getpid.o)
 .bss           0x40065f80        0x0 ../mf2_ddr_ucos_bsp/\libucosii_bsp.a(alt_iic.o)
 .bss           0x40065f80        0x0 ../mf2_ddr_ucos_bsp/\libucosii_bsp.a(alt_iic_isr_register.o)
 .bss           0x40065f80        0x0 ../mf2_ddr_ucos_bsp/\libucosii_bsp.a(alt_instruction_exception_register.o)
 .bss           0x40065f80        0x0 ../mf2_ddr_ucos_bsp/\libucosii_bsp.a(alt_irq_entry.o)
 .bss           0x40065f80        0x0 ../mf2_ddr_ucos_bsp/\libucosii_bsp.a(alt_irq_vars.o)
 .bss           0x40065f80        0x0 ../mf2_ddr_ucos_bsp/\libucosii_bsp.a(alt_isatty.o)
 .bss           0x40065f80        0x0 ../mf2_ddr_ucos_bsp/\libucosii_bsp.a(alt_kill.o)
 .bss           0x40065f80        0x0 ../mf2_ddr_ucos_bsp/\libucosii_bsp.a(alt_load.o)
 .bss           0x40065f80        0x0 ../mf2_ddr_ucos_bsp/\libucosii_bsp.a(alt_lseek.o)
 .bss           0x40065f80        0x0 ../mf2_ddr_ucos_bsp/\libucosii_bsp.a(alt_main.o)
 .bss           0x40065f80        0x0 ../mf2_ddr_ucos_bsp/\libucosii_bsp.a(alt_read.o)
 .bss           0x40065f80        0x0 ../mf2_ddr_ucos_bsp/\libucosii_bsp.a(alt_release_fd.o)
 .bss           0x40065f80        0x0 ../mf2_ddr_ucos_bsp/\libucosii_bsp.a(alt_sbrk.o)
 .bss           0x40065f80        0x0 ../mf2_ddr_ucos_bsp/\libucosii_bsp.a(alt_tick.o)
 .bss           0x40065f80        0x0 ../mf2_ddr_ucos_bsp/\libucosii_bsp.a(alt_usleep.o)
 .bss           0x40065f80        0x0 ../mf2_ddr_ucos_bsp/\libucosii_bsp.a(alt_write.o)
 .bss           0x40065f80        0x0 ../mf2_ddr_ucos_bsp/\libucosii_bsp.a(os_cpu_a.o)
 .bss           0x40065f80        0x0 ../mf2_ddr_ucos_bsp/\libucosii_bsp.a(alt_env_lock.o)
 .bss           0x40065f80        0x0 ../mf2_ddr_ucos_bsp/\libucosii_bsp.a(alt_malloc_lock.o)
 .bss           0x40065f80        0x0 ../mf2_ddr_ucos_bsp/\libucosii_bsp.a(os_core.o)
 .bss           0x40065f80        0x0 ../mf2_ddr_ucos_bsp/\libucosii_bsp.a(os_dbg.o)
 .bss           0x40065f80        0x0 ../mf2_ddr_ucos_bsp/\libucosii_bsp.a(os_flag.o)
 .bss           0x40065f80        0x0 ../mf2_ddr_ucos_bsp/\libucosii_bsp.a(os_mem.o)
 .bss           0x40065f80        0x0 ../mf2_ddr_ucos_bsp/\libucosii_bsp.a(os_q.o)
 .bss           0x40065f80        0x0 ../mf2_ddr_ucos_bsp/\libucosii_bsp.a(os_task.o)
 .bss           0x40065f80        0x0 ../mf2_ddr_ucos_bsp/\libucosii_bsp.a(os_time.o)
 .bss           0x40065f80        0x0 ../mf2_ddr_ucos_bsp/\libucosii_bsp.a(os_tmr.o)
 .bss           0x40065f80        0x0 ../mf2_ddr_ucos_bsp/\libucosii_bsp.a(alt_sys_init.o)
 .bss           0x40065f80        0x0 ../mf2_ddr_ucos_bsp/\libucosii_bsp.a(altera_avalon_jtag_uart_fd.o)
 .bss           0x40065f80        0x0 ../mf2_ddr_ucos_bsp/\libucosii_bsp.a(altera_avalon_jtag_uart_init.o)
 .bss           0x40065f80        0x0 ../mf2_ddr_ucos_bsp/\libucosii_bsp.a(altera_avalon_jtag_uart_ioctl.o)
 .bss           0x40065f80        0x0 ../mf2_ddr_ucos_bsp/\libucosii_bsp.a(altera_avalon_jtag_uart_read.o)
 .bss           0x40065f80        0x0 ../mf2_ddr_ucos_bsp/\libucosii_bsp.a(altera_avalon_jtag_uart_write.o)
 .bss           0x40065f80        0x0 ../mf2_ddr_ucos_bsp/\libucosii_bsp.a(altera_avalon_spi.o)
 .bss           0x40065f80        0x0 ../mf2_ddr_ucos_bsp/\libucosii_bsp.a(altera_avalon_timer_sc.o)
 .bss           0x40065f80        0x0 ../mf2_ddr_ucos_bsp/\libucosii_bsp.a(alt_alarm_start.o)
 .bss           0x40065f80        0x0 ../mf2_ddr_ucos_bsp/\libucosii_bsp.a(alt_busy_sleep.o)
 .bss           0x40065f80        0x0 ../mf2_ddr_ucos_bsp/\libucosii_bsp.a(alt_dcache_flush_all.o)
 .bss           0x40065f80        0x0 ../mf2_ddr_ucos_bsp/\libucosii_bsp.a(alt_dev_llist_insert.o)
 .bss           0x40065f80        0x0 ../mf2_ddr_ucos_bsp/\libucosii_bsp.a(alt_do_ctors.o)
 .bss           0x40065f80        0x0 ../mf2_ddr_ucos_bsp/\libucosii_bsp.a(alt_do_dtors.o)
 .bss           0x40065f80        0x0 ../mf2_ddr_ucos_bsp/\libucosii_bsp.a(alt_exception_entry.o)
 .bss           0x40065f80        0x0 ../mf2_ddr_ucos_bsp/\libucosii_bsp.a(alt_icache_flush_all.o)
 .bss           0x40065f80        0x0 ../mf2_ddr_ucos_bsp/\libucosii_bsp.a(alt_instruction_exception_entry.o)
 .bss           0x40065f80        0x0 ../mf2_ddr_ucos_bsp/\libucosii_bsp.a(alt_io_redirect.o)
 .bss           0x40065f80        0x0 ../mf2_ddr_ucos_bsp/\libucosii_bsp.a(alt_open.o)
 .bss           0x40065f80        0x0 ../mf2_ddr_ucos_bsp/\libucosii_bsp.a(altera_nios2_irq.o)
 .bss           0x40065f80        0x0 ../mf2_ddr_ucos_bsp/\libucosii_bsp.a(alt_find_dev.o)
 .bss           0x40065f80        0x0 ../mf2_ddr_ucos_bsp/\libucosii_bsp.a(alt_find_file.o)
 .bss           0x40065f80        0x0 ../mf2_ddr_ucos_bsp/\libucosii_bsp.a(alt_get_fd.o)
 .bss           0x40065f80        0x0 ../mf2_ddr_ucos_bsp/\libucosii_bsp.a(alt_icache_flush.o)
 .bss           0x40065f80        0x0 e:/altera/10.1/nios2eds/bin/gnu/h-i686-mingw32/bin/../lib/gcc/nios2-elf/4.1.2/../../../../nios2-elf/lib\libc.a(lib_a-atexit.o)
 .bss           0x40065f80        0x0 e:/altera/10.1/nios2eds/bin/gnu/h-i686-mingw32/bin/../lib/gcc/nios2-elf/4.1.2/../../../../nios2-elf/lib\libc.a(lib_a-exit.o)
 .bss           0x40065f80        0x0 e:/altera/10.1/nios2eds/bin/gnu/h-i686-mingw32/bin/../lib/gcc/nios2-elf/4.1.2/../../../../nios2-elf/lib\libc.a(lib_a-memcmp.o)
 .bss           0x40065f80        0x0 e:/altera/10.1/nios2eds/bin/gnu/h-i686-mingw32/bin/../lib/gcc/nios2-elf/4.1.2/../../../../nios2-elf/lib\libc.a(lib_a-__atexit.o)
 .bss           0x40065f80        0x0 e:/altera/10.1/nios2eds/bin/gnu/h-i686-mingw32/bin/../lib/gcc/nios2-elf/4.1.2/../../../../nios2-elf/lib\libc.a(lib_a-__call_atexit.o)
 *(COMMON)
 COMMON         0x40065f80      0x100 obj/alt-irq-handler.o
                0x40065f80                alt_irq
 COMMON         0x40066080       0x80 obj/ddc_helper.o
                0x40066080                monitor_edid
 COMMON         0x40066100      0x242 obj/ee_helper.o
                0x40066100                ee_map
 COMMON         0x40066342      0x400 obj/fifo_helper.o
                0x40066342                cmd_buf
 *fill*         0x40066742        0x2 00
 COMMON         0x40066744       0x50 obj/uhe.o
                0x40066744                stack_data
 COMMON         0x40066794      0x818 obj/usb/bsd-wrap.o
                0x40066794                malloc_mtx
                0x400667a0                Giant
                0x400667ac                sbuf_buffer
 COMMON         0x40066fac     0x4f6c ../mf2_ddr_ucos_bsp/\libucosii_bsp.a(os_core.o)
                0x40066fac                OSTmrWheelTbl
                0x40066fbc                OSFlagTbl
                0x4006732c                OSTmrTbl
                0x4006766c                OSMemTbl
                0x4006829c                OSTaskStatStk
                0x40068a9c                OSQTbl
                0x40068c7c                OSTmrTaskStk
                0x4006947c                OSTaskIdleStk
                0x40069c7c                OSEventTbl
                0x4006b0cc                OSTCBTbl
                0x4006be4c                OSTCBPrioTbl
 COMMON         0x4006bf18      0x190 e:/altera/10.1/nios2eds/bin/gnu/h-i686-mingw32/bin/../lib/gcc/nios2-elf/4.1.2/../../../../nios2-elf/lib\libc.a(lib_a-atexit.o)
                0x4006bf18                _atexit0
                0x4006c0a8                . = ALIGN (0x4)
                0x4006c0a8                __bss_end = ABSOLUTE (.)

_bsd_set_sysinit_set
                0x4006c0a8       0x7c
                0x4006c0a8                PROVIDE (_alt_partition__bsd_set_sysinit_set_start, ABSOLUTE (.))
 *(_bsd_set_sysinit_set _bsd_set_sysinit_set.*)
 _bsd_set_sysinit_set
                0x4006c0a8       0x14 obj/usb/bsd-wrap.o
 _bsd_set_sysinit_set
                0x4006c0bc        0x4 obj/usb/ehci_oxu210.o
 _bsd_set_sysinit_set
                0x4006c0c0        0x4 obj/usb/kern_linker.o
 _bsd_set_sysinit_set
                0x4006c0c4        0x8 obj/usb/kern_module.o
 _bsd_set_sysinit_set
                0x4006c0cc       0x10 obj/usb/kern_sysctl.o
 _bsd_set_sysinit_set
                0x4006c0dc        0x4 obj/usb/pdev.o
 _bsd_set_sysinit_set
                0x4006c0e0        0xc obj/usb/s5a-autoconf.o
 _bsd_set_sysinit_set
                0x4006c0ec        0xc obj/usb/subr_bus.o
 _bsd_set_sysinit_set
                0x4006c0f8        0x8 obj/usb/subr_kobj.o
 _bsd_set_sysinit_set
                0x4006c100        0x4 obj/usb/tc-mtouch.o
 _bsd_set_sysinit_set
                0x4006c104        0x4 obj/usb/tc-zytronic.o
 _bsd_set_sysinit_set
                0x4006c108        0x4 obj/usb/tc.o
 _bsd_set_sysinit_set
                0x4006c10c        0x4 obj/usb/ums.o
 _bsd_set_sysinit_set
                0x4006c110        0x4 obj/usb/usb_controller.o
 _bsd_set_sysinit_set
                0x4006c114        0x8 obj/usb/usb_hub.o
 _bsd_set_sysinit_set
                0x4006c11c        0x4 obj/usb/usb_s5a.o
 _bsd_set_sysinit_set
                0x4006c120        0x4 obj/usb/usbdev_oxu210.o
                0x4006c124                . = ALIGN (0x4)
                0x4006c124                PROVIDE (_alt_partition__bsd_set_sysinit_set_end, ABSOLUTE (.))

_bsd_set_sysctl_set
                0x4006c124       0x34
                0x4006c124                PROVIDE (_alt_partition__bsd_set_sysctl_set_start, ABSOLUTE (.))
 *(_bsd_set_sysctl_set _bsd_set_sysctl_set.*)
 _bsd_set_sysctl_set
                0x4006c124       0x24 obj/usb/kern_sysctl.o
 _bsd_set_sysctl_set
                0x4006c148        0x8 obj/usb/subr_bus.o
 _bsd_set_sysctl_set
                0x4006c150        0x4 obj/usb/subr_kobj.o
 _bsd_set_sysctl_set
                0x4006c154        0x4 obj/usb/subr_uio.o
                0x4006c158                . = ALIGN (0x4)
                0x4006c158                PROVIDE (_alt_partition__bsd_set_sysctl_set_end, ABSOLUTE (.))

_bsd_set_modmetadata_set
                0x4006c158       0x84
                0x4006c158                PROVIDE (_alt_partition__bsd_set_modmetadata_set_start, ABSOLUTE (.))
 *(_bsd_set_modmetadata_set _bsd_set_modmetadata_set.*)
 _bsd_set_modmetadata_set
                0x4006c158        0xc obj/usb/ehci_oxu210.o
 _bsd_set_modmetadata_set
                0x4006c164        0x4 obj/usb/kern_module.o
 _bsd_set_modmetadata_set
                0x4006c168        0x8 obj/usb/pdev.o
 _bsd_set_modmetadata_set
                0x4006c170        0x8 obj/usb/subr_bus.o
 _bsd_set_modmetadata_set
                0x4006c178        0x8 obj/usb/tc-mtouch.o
 _bsd_set_modmetadata_set
                0x4006c180        0x8 obj/usb/tc-zytronic.o
 _bsd_set_modmetadata_set
                0x4006c188       0x10 obj/usb/tc.o
 _bsd_set_modmetadata_set
                0x4006c198       0x10 obj/usb/ums.o
 _bsd_set_modmetadata_set
                0x4006c1a8        0x8 obj/usb/usb_controller.o
 _bsd_set_modmetadata_set
                0x4006c1b0       0x14 obj/usb/usb_hub.o
 _bsd_set_modmetadata_set
                0x4006c1c4        0x8 obj/usb/usb_s5a.o
 _bsd_set_modmetadata_set
                0x4006c1cc       0x10 obj/usb/usbdev_oxu210.o
                0x4006c1dc                . = ALIGN (0x4)
                0x4006c1dc                PROVIDE (_alt_partition__bsd_set_modmetadata_set_end, ABSOLUTE (.))

.bootloader     0x20000020        0x0 load address 0x4006c1dc
                0x20000020                PROVIDE (_alt_partition_bootloader_start, ABSOLUTE (.))
 *(.bootloader. bootloader.*)
                0x20000020                . = ALIGN (0x4)
                0x20000020                PROVIDE (_alt_partition_bootloader_end, ABSOLUTE (.))
                0x4006c1dc                PROVIDE (_alt_partition_bootloader_load_addr, LOADADDR (.bootloader))

.altmemddr_0    0x4006c1dc        0x0
                0x4006c1dc                PROVIDE (_alt_partition_altmemddr_0_start, ABSOLUTE (.))
 *(.altmemddr_0. altmemddr_0.*)
                0x4006c1dc                . = ALIGN (0x4)
                0x4006c1dc                PROVIDE (_alt_partition_altmemddr_0_end, ABSOLUTE (.))
                0x4006c1dc                _end = ABSOLUTE (.)
                0x4006c1dc                end = ABSOLUTE (.)
                0x4006c1dc                __alt_stack_base = ABSOLUTE (.)
                0x4006c1dc                PROVIDE (_alt_partition_altmemddr_0_load_addr, LOADADDR (.altmemddr_0))

.stab
 *(.stab)

.stabstr
 *(.stabstr)

.stab.excl
 *(.stab.excl)

.stab.exclstr
 *(.stab.exclstr)

.stab.index
 *(.stab.index)

.stab.indexstr
 *(.stab.indexstr)

.comment        0x00000000       0x23
 *(.comment)
 .comment       0x00000000       0x23 obj/alt-irq-handler.o
                                 0x24 (size before relaxing)
 .comment       0x00000000       0x24 obj/dbg_helper.o
 .comment       0x00000000       0x24 obj/ddc_helper.o
 .comment       0x00000000       0x24 obj/dynedid.o
 .comment       0x00000000       0x24 obj/ee_helper.o
 .comment       0x00000000       0x24 obj/fifo_helper.o
 .comment       0x00000000       0x24 obj/i2c_master.o
 .comment       0x00000000       0x24 obj/main.o
 .comment       0x00000000       0x24 obj/os-support.o
 .comment       0x00000000       0x24 obj/os_bsem.o
 .comment       0x00000000       0x24 obj/os_cpu_c.o
 .comment       0x00000000       0x24 obj/os_sem.o
 .comment       0x00000000       0x24 obj/ow.o
 .comment       0x00000000       0x24 obj/pll_helper.o
 .comment       0x00000000       0x24 obj/sys-base.o
 .comment       0x00000000       0x24 obj/touchcon.o
 .comment       0x00000000       0x24 obj/ts_helper.o
 .comment       0x00000000       0x24 obj/tvp7002_helper.o
 .comment       0x00000000       0x24 obj/uhe.o
 .comment       0x00000000       0x24 obj/usb/bsd-bus-dma.o
 .comment       0x00000000       0x24 obj/usb/bsd-wrap.o
 .comment       0x00000000       0x24 obj/usb/bus_if.o
 .comment       0x00000000       0x24 obj/usb/device_if.o
 .comment       0x00000000       0x24 obj/usb/ehci.o
 .comment       0x00000000       0x24 obj/usb/ehci_oxu210.o
 .comment       0x00000000       0x24 obj/usb/init_main.o
 .comment       0x00000000       0x24 obj/usb/kern_linker.o
 .comment       0x00000000       0x24 obj/usb/kern_module.o
 .comment       0x00000000       0x24 obj/usb/kern_sysctl.o
 .comment       0x00000000       0x24 obj/usb/oxu210-alloc.o
 .comment       0x00000000       0x24 obj/usb/oxu210-intr.o
 .comment       0x00000000       0x24 obj/usb/pdev.o
 .comment       0x00000000       0x24 obj/usb/s5a-autoconf.o
 .comment       0x00000000       0x24 obj/usb/subr_bus.o
 .comment       0x00000000       0x24 obj/usb/subr_kobj.o
 .comment       0x00000000       0x24 obj/usb/subr_uio.o
 .comment       0x00000000       0x24 obj/usb/tc-mtouch.o
 .comment       0x00000000       0x24 obj/usb/tc-zytronic.o
 .comment       0x00000000       0x24 obj/usb/tc.o
 .comment       0x00000000       0x24 obj/usb/ums.o
 .comment       0x00000000       0x24 obj/usb/usb_busdma.o
 .comment       0x00000000       0x24 obj/usb/usb_controller.o
 .comment       0x00000000       0x24 obj/usb/usb_debug.o
 .comment       0x00000000       0x24 obj/usb/usb_device.o
 .comment       0x00000000       0x24 obj/usb/usb_dynamic.o
 .comment       0x00000000       0x24 obj/usb/usb_error.o
 .comment       0x00000000       0x24 obj/usb/usb_handle_request.o
 .comment       0x00000000       0x24 obj/usb/usb_hid.o
 .comment       0x00000000       0x24 obj/usb/usb_hub.o
 .comment       0x00000000       0x24 obj/usb/usb_if.o
 .comment       0x00000000       0x24 obj/usb/usb_parse.o
 .comment       0x00000000       0x24 obj/usb/usb_process.o
 .comment       0x00000000       0x24 obj/usb/usb_request.o
 .comment       0x00000000       0x24 obj/usb/usb_s5a.o
 .comment       0x00000000       0x24 obj/usb/usb_transfer.o
 .comment       0x00000000       0x24 obj/usb/usb_util.o
 .comment       0x00000000       0x24 obj/usb/usbdev_oxu210.o
 .comment       0x00000000       0x24 obj/usb_helper.o
 .comment       0x00000000       0x24 obj/video_helper.o
 .comment       0x00000000       0x24 obj/vip_helper.o
 .comment       0x00000000       0x24 e:/altera/10.1/nios2eds/bin/gnu/h-i686-mingw32/bin/../lib/gcc/nios2-elf/4.1.2/../../../../nios2-elf/lib\libstdc++.a(eh_personality.o)
 .comment       0x00000000       0x24 e:/altera/10.1/nios2eds/bin/gnu/h-i686-mingw32/bin/../lib/gcc/nios2-elf/4.1.2/../../../../nios2-elf/lib\libstdc++.a(eh_globals.o)
 .comment       0x00000000       0x24 e:/altera/10.1/nios2eds/bin/gnu/h-i686-mingw32/bin/../lib/gcc/nios2-elf/4.1.2/../../../../nios2-elf/lib\libstdc++.a(eh_throw.o)
 .comment       0x00000000       0x24 e:/altera/10.1/nios2eds/bin/gnu/h-i686-mingw32/bin/../lib/gcc/nios2-elf/4.1.2/../../../../nios2-elf/lib\libstdc++.a(eh_call.o)
 .comment       0x00000000       0x24 e:/altera/10.1/nios2eds/bin/gnu/h-i686-mingw32/bin/../lib/gcc/nios2-elf/4.1.2/../../../../nios2-elf/lib\libstdc++.a(eh_catch.o)
 .comment       0x00000000       0x24 e:/altera/10.1/nios2eds/bin/gnu/h-i686-mingw32/bin/../lib/gcc/nios2-elf/4.1.2/../../../../nios2-elf/lib\libstdc++.a(eh_exception.o)
 .comment       0x00000000       0x24 e:/altera/10.1/nios2eds/bin/gnu/h-i686-mingw32/bin/../lib/gcc/nios2-elf/4.1.2/../../../../nios2-elf/lib\libstdc++.a(eh_terminate.o)
 .comment       0x00000000       0x24 e:/altera/10.1/nios2eds/bin/gnu/h-i686-mingw32/bin/../lib/gcc/nios2-elf/4.1.2/../../../../nios2-elf/lib\libstdc++.a(si_class_type_info.o)
 .comment       0x00000000       0x24 e:/altera/10.1/nios2eds/bin/gnu/h-i686-mingw32/bin/../lib/gcc/nios2-elf/4.1.2/../../../../nios2-elf/lib\libstdc++.a(eh_alloc.o)
 .comment       0x00000000       0x24 e:/altera/10.1/nios2eds/bin/gnu/h-i686-mingw32/bin/../lib/gcc/nios2-elf/4.1.2/../../../../nios2-elf/lib\libstdc++.a(eh_term_handler.o)
 .comment       0x00000000       0x24 e:/altera/10.1/nios2eds/bin/gnu/h-i686-mingw32/bin/../lib/gcc/nios2-elf/4.1.2/../../../../nios2-elf/lib\libstdc++.a(tinfo.o)
 .comment       0x00000000       0x24 e:/altera/10.1/nios2eds/bin/gnu/h-i686-mingw32/bin/../lib/gcc/nios2-elf/4.1.2/../../../../nios2-elf/lib\libstdc++.a(del_op.o)
 .comment       0x00000000       0x24 e:/altera/10.1/nios2eds/bin/gnu/h-i686-mingw32/bin/../lib/gcc/nios2-elf/4.1.2/../../../../nios2-elf/lib\libstdc++.a(class_type_info.o)
 .comment       0x00000000       0x24 e:/altera/10.1/nios2eds/bin/gnu/h-i686-mingw32/bin/../lib/gcc/nios2-elf/4.1.2/../../../../nios2-elf/lib\libstdc++.a(eh_unex_handler.o)
 .comment       0x00000000       0x24 e:/altera/10.1/nios2eds/bin/gnu/h-i686-mingw32/bin/../lib/gcc/nios2-elf/4.1.2\libgcc.a(_muldi3.o)
 .comment       0x00000000       0x24 e:/altera/10.1/nios2eds/bin/gnu/h-i686-mingw32/bin/../lib/gcc/nios2-elf/4.1.2\libgcc.a(_fixunsdfsi.o)
 .comment       0x00000000       0x24 e:/altera/10.1/nios2eds/bin/gnu/h-i686-mingw32/bin/../lib/gcc/nios2-elf/4.1.2\libgcc.a(_floatdidf.o)
 .comment       0x00000000       0x24 e:/altera/10.1/nios2eds/bin/gnu/h-i686-mingw32/bin/../lib/gcc/nios2-elf/4.1.2\libgcc.a(_divdi3.o)
 .comment       0x00000000       0x24 e:/altera/10.1/nios2eds/bin/gnu/h-i686-mingw32/bin/../lib/gcc/nios2-elf/4.1.2\libgcc.a(_addsub_df.o)
 .comment       0x00000000       0x24 e:/altera/10.1/nios2eds/bin/gnu/h-i686-mingw32/bin/../lib/gcc/nios2-elf/4.1.2\libgcc.a(_mul_df.o)
 .comment       0x00000000       0x24 e:/altera/10.1/nios2eds/bin/gnu/h-i686-mingw32/bin/../lib/gcc/nios2-elf/4.1.2\libgcc.a(_div_df.o)
 .comment       0x00000000       0x24 e:/altera/10.1/nios2eds/bin/gnu/h-i686-mingw32/bin/../lib/gcc/nios2-elf/4.1.2\libgcc.a(_ne_df.o)
 .comment       0x00000000       0x24 e:/altera/10.1/nios2eds/bin/gnu/h-i686-mingw32/bin/../lib/gcc/nios2-elf/4.1.2\libgcc.a(_ge_df.o)
 .comment       0x00000000       0x24 e:/altera/10.1/nios2eds/bin/gnu/h-i686-mingw32/bin/../lib/gcc/nios2-elf/4.1.2\libgcc.a(_si_to_df.o)
 .comment       0x00000000       0x24 e:/altera/10.1/nios2eds/bin/gnu/h-i686-mingw32/bin/../lib/gcc/nios2-elf/4.1.2\libgcc.a(_df_to_si.o)
 .comment       0x00000000       0x24 e:/altera/10.1/nios2eds/bin/gnu/h-i686-mingw32/bin/../lib/gcc/nios2-elf/4.1.2\libgcc.a(_thenan_df.o)
 .comment       0x00000000       0x24 e:/altera/10.1/nios2eds/bin/gnu/h-i686-mingw32/bin/../lib/gcc/nios2-elf/4.1.2\libgcc.a(_usi_to_df.o)
 .comment       0x00000000       0x24 e:/altera/10.1/nios2eds/bin/gnu/h-i686-mingw32/bin/../lib/gcc/nios2-elf/4.1.2\libgcc.a(lib2-divmod.o)
 .comment       0x00000000       0x24 e:/altera/10.1/nios2eds/bin/gnu/h-i686-mingw32/bin/../lib/gcc/nios2-elf/4.1.2\libgcc.a(unwind-dw2.o)
 .comment       0x00000000       0x24 e:/altera/10.1/nios2eds/bin/gnu/h-i686-mingw32/bin/../lib/gcc/nios2-elf/4.1.2\libgcc.a(unwind-dw2-fde.o)
 .comment       0x00000000       0x24 e:/altera/10.1/nios2eds/bin/gnu/h-i686-mingw32/bin/../lib/gcc/nios2-elf/4.1.2\libgcc.a(_clz.o)
 .comment       0x00000000       0x24 e:/altera/10.1/nios2eds/bin/gnu/h-i686-mingw32/bin/../lib/gcc/nios2-elf/4.1.2\libgcc.a(_clzsi2.o)
 .comment       0x00000000       0x24 e:/altera/10.1/nios2eds/bin/gnu/h-i686-mingw32/bin/../lib/gcc/nios2-elf/4.1.2\libgcc.a(_pack_df.o)
 .comment       0x00000000       0x24 e:/altera/10.1/nios2eds/bin/gnu/h-i686-mingw32/bin/../lib/gcc/nios2-elf/4.1.2\libgcc.a(_unpack_df.o)
 .comment       0x00000000       0x24 e:/altera/10.1/nios2eds/bin/gnu/h-i686-mingw32/bin/../lib/gcc/nios2-elf/4.1.2\libgcc.a(_fpcmp_parts_df.o)
 .comment       0x00000000       0x24 e:/altera/10.1/nios2eds/bin/gnu/h-i686-mingw32/bin/../lib/gcc/nios2-elf/4.1.2/../../../../nios2-elf/lib\libc.a(lib_a-abort.o)
 .comment       0x00000000       0x24 e:/altera/10.1/nios2eds/bin/gnu/h-i686-mingw32/bin/../lib/gcc/nios2-elf/4.1.2/../../../../nios2-elf/lib\libc.a(lib_a-bcopy.o)
 .comment       0x00000000       0x24 e:/altera/10.1/nios2eds/bin/gnu/h-i686-mingw32/bin/../lib/gcc/nios2-elf/4.1.2/../../../../nios2-elf/lib\libc.a(lib_a-ctype_.o)
 .comment       0x00000000       0x24 e:/altera/10.1/nios2eds/bin/gnu/h-i686-mingw32/bin/../lib/gcc/nios2-elf/4.1.2/../../../../nios2-elf/lib\libc.a(lib_a-malloc.o)
 .comment       0x00000000       0x24 e:/altera/10.1/nios2eds/bin/gnu/h-i686-mingw32/bin/../lib/gcc/nios2-elf/4.1.2/../../../../nios2-elf/lib\libc.a(lib_a-mallocr.o)
 .comment       0x00000000       0x24 e:/altera/10.1/nios2eds/bin/gnu/h-i686-mingw32/bin/../lib/gcc/nios2-elf/4.1.2/../../../../nios2-elf/lib\libc.a(lib_a-memcpy.o)
 .comment       0x00000000       0x24 e:/altera/10.1/nios2eds/bin/gnu/h-i686-mingw32/bin/../lib/gcc/nios2-elf/4.1.2/../../../../nios2-elf/lib\libc.a(lib_a-memmove.o)
 .comment       0x00000000       0x24 e:/altera/10.1/nios2eds/bin/gnu/h-i686-mingw32/bin/../lib/gcc/nios2-elf/4.1.2/../../../../nios2-elf/lib\libc.a(lib_a-memset.o)
 .comment       0x00000000       0x24 e:/altera/10.1/nios2eds/bin/gnu/h-i686-mingw32/bin/../lib/gcc/nios2-elf/4.1.2/../../../../nios2-elf/lib\libc.a(lib_a-printf.o)
 .comment       0x00000000       0x24 e:/altera/10.1/nios2eds/bin/gnu/h-i686-mingw32/bin/../lib/gcc/nios2-elf/4.1.2/../../../../nios2-elf/lib\libc.a(lib_a-putchar.o)
 .comment       0x00000000       0x24 e:/altera/10.1/nios2eds/bin/gnu/h-i686-mingw32/bin/../lib/gcc/nios2-elf/4.1.2/../../../../nios2-elf/lib\libc.a(lib_a-puts.o)
 .comment       0x00000000       0x24 e:/altera/10.1/nios2eds/bin/gnu/h-i686-mingw32/bin/../lib/gcc/nios2-elf/4.1.2/../../../../nios2-elf/lib\libc.a(lib_a-rand.o)
 .comment       0x00000000       0x24 e:/altera/10.1/nios2eds/bin/gnu/h-i686-mingw32/bin/../lib/gcc/nios2-elf/4.1.2/../../../../nios2-elf/lib\libc.a(lib_a-sbrkr.o)
 .comment       0x00000000       0x24 e:/altera/10.1/nios2eds/bin/gnu/h-i686-mingw32/bin/../lib/gcc/nios2-elf/4.1.2/../../../../nios2-elf/lib\libc.a(lib_a-signal.o)
 .comment       0x00000000       0x24 e:/altera/10.1/nios2eds/bin/gnu/h-i686-mingw32/bin/../lib/gcc/nios2-elf/4.1.2/../../../../nios2-elf/lib\libc.a(lib_a-signalr.o)
 .comment       0x00000000       0x24 e:/altera/10.1/nios2eds/bin/gnu/h-i686-mingw32/bin/../lib/gcc/nios2-elf/4.1.2/../../../../nios2-elf/lib\libc.a(lib_a-snprintf.o)
 .comment       0x00000000       0x24 e:/altera/10.1/nios2eds/bin/gnu/h-i686-mingw32/bin/../lib/gcc/nios2-elf/4.1.2/../../../../nios2-elf/lib\libc.a(lib_a-sprintf.o)
 .comment       0x00000000       0x24 e:/altera/10.1/nios2eds/bin/gnu/h-i686-mingw32/bin/../lib/gcc/nios2-elf/4.1.2/../../../../nios2-elf/lib\libc.a(lib_a-strcmp.o)
 .comment       0x00000000       0x24 e:/altera/10.1/nios2eds/bin/gnu/h-i686-mingw32/bin/../lib/gcc/nios2-elf/4.1.2/../../../../nios2-elf/lib\libc.a(lib_a-strcpy.o)
 .comment       0x00000000       0x24 e:/altera/10.1/nios2eds/bin/gnu/h-i686-mingw32/bin/../lib/gcc/nios2-elf/4.1.2/../../../../nios2-elf/lib\libc.a(lib_a-strdup.o)
 .comment       0x00000000       0x24 e:/altera/10.1/nios2eds/bin/gnu/h-i686-mingw32/bin/../lib/gcc/nios2-elf/4.1.2/../../../../nios2-elf/lib\libc.a(lib_a-strdup_r.o)
 .comment       0x00000000       0x24 e:/altera/10.1/nios2eds/bin/gnu/h-i686-mingw32/bin/../lib/gcc/nios2-elf/4.1.2/../../../../nios2-elf/lib\libc.a(lib_a-strlcpy.o)
 .comment       0x00000000       0x24 e:/altera/10.1/nios2eds/bin/gnu/h-i686-mingw32/bin/../lib/gcc/nios2-elf/4.1.2/../../../../nios2-elf/lib\libc.a(lib_a-strlen.o)
 .comment       0x00000000       0x24 e:/altera/10.1/nios2eds/bin/gnu/h-i686-mingw32/bin/../lib/gcc/nios2-elf/4.1.2/../../../../nios2-elf/lib\libc.a(lib_a-strncpy.o)
 .comment       0x00000000       0x24 e:/altera/10.1/nios2eds/bin/gnu/h-i686-mingw32/bin/../lib/gcc/nios2-elf/4.1.2/../../../../nios2-elf/lib\libc.a(lib_a-strnlen.o)
 .comment       0x00000000       0x24 e:/altera/10.1/nios2eds/bin/gnu/h-i686-mingw32/bin/../lib/gcc/nios2-elf/4.1.2/../../../../nios2-elf/lib\libc.a(lib_a-vfprintf.o)
 .comment       0x00000000       0x24 e:/altera/10.1/nios2eds/bin/gnu/h-i686-mingw32/bin/../lib/gcc/nios2-elf/4.1.2/../../../../nios2-elf/lib\libc.a(lib_a-vprintf.o)
 .comment       0x00000000       0x24 e:/altera/10.1/nios2eds/bin/gnu/h-i686-mingw32/bin/../lib/gcc/nios2-elf/4.1.2/../../../../nios2-elf/lib\libc.a(lib_a-vsnprintf.o)
 .comment       0x00000000       0x24 e:/altera/10.1/nios2eds/bin/gnu/h-i686-mingw32/bin/../lib/gcc/nios2-elf/4.1.2/../../../../nios2-elf/lib\libc.a(lib_a-vsprintf.o)
 .comment       0x00000000       0x24 e:/altera/10.1/nios2eds/bin/gnu/h-i686-mingw32/bin/../lib/gcc/nios2-elf/4.1.2/../../../../nios2-elf/lib\libc.a(lib_a-wsetup.o)
 .comment       0x00000000       0x24 e:/altera/10.1/nios2eds/bin/gnu/h-i686-mingw32/bin/../lib/gcc/nios2-elf/4.1.2/../../../../nios2-elf/lib\libc.a(lib_a-dtoa.o)
 .comment       0x00000000       0x24 e:/altera/10.1/nios2eds/bin/gnu/h-i686-mingw32/bin/../lib/gcc/nios2-elf/4.1.2/../../../../nios2-elf/lib\libc.a(lib_a-fflush.o)
 .comment       0x00000000       0x24 e:/altera/10.1/nios2eds/bin/gnu/h-i686-mingw32/bin/../lib/gcc/nios2-elf/4.1.2/../../../../nios2-elf/lib\libc.a(lib_a-findfp.o)
 .comment       0x00000000       0x24 e:/altera/10.1/nios2eds/bin/gnu/h-i686-mingw32/bin/../lib/gcc/nios2-elf/4.1.2/../../../../nios2-elf/lib\libc.a(lib_a-freer.o)
 .comment       0x00000000       0x24 e:/altera/10.1/nios2eds/bin/gnu/h-i686-mingw32/bin/../lib/gcc/nios2-elf/4.1.2/../../../../nios2-elf/lib\libc.a(lib_a-fvwrite.o)
 .comment       0x00000000       0x24 e:/altera/10.1/nios2eds/bin/gnu/h-i686-mingw32/bin/../lib/gcc/nios2-elf/4.1.2/../../../../nios2-elf/lib\libc.a(lib_a-fwalk.o)
 .comment       0x00000000       0x24 e:/altera/10.1/nios2eds/bin/gnu/h-i686-mingw32/bin/../lib/gcc/nios2-elf/4.1.2/../../../../nios2-elf/lib\libc.a(lib_a-impure.o)
 .comment       0x00000000       0x24 e:/altera/10.1/nios2eds/bin/gnu/h-i686-mingw32/bin/../lib/gcc/nios2-elf/4.1.2/../../../../nios2-elf/lib\libc.a(lib_a-int_errno.o)
 .comment       0x00000000       0x24 e:/altera/10.1/nios2eds/bin/gnu/h-i686-mingw32/bin/../lib/gcc/nios2-elf/4.1.2/../../../../nios2-elf/lib\libc.a(lib_a-locale.o)
 .comment       0x00000000       0x24 e:/altera/10.1/nios2eds/bin/gnu/h-i686-mingw32/bin/../lib/gcc/nios2-elf/4.1.2/../../../../nios2-elf/lib\libc.a(lib_a-makebuf.o)
 .comment       0x00000000       0x24 e:/altera/10.1/nios2eds/bin/gnu/h-i686-mingw32/bin/../lib/gcc/nios2-elf/4.1.2/../../../../nios2-elf/lib\libc.a(lib_a-memchr.o)
 .comment       0x00000000       0x24 e:/altera/10.1/nios2eds/bin/gnu/h-i686-mingw32/bin/../lib/gcc/nios2-elf/4.1.2/../../../../nios2-elf/lib\libc.a(lib_a-mprec.o)
 .comment       0x00000000       0x24 e:/altera/10.1/nios2eds/bin/gnu/h-i686-mingw32/bin/../lib/gcc/nios2-elf/4.1.2/../../../../nios2-elf/lib\libc.a(lib_a-putc.o)
 .comment       0x00000000       0x24 e:/altera/10.1/nios2eds/bin/gnu/h-i686-mingw32/bin/../lib/gcc/nios2-elf/4.1.2/../../../../nios2-elf/lib\libc.a(lib_a-reallocr.o)
 .comment       0x00000000       0x24 e:/altera/10.1/nios2eds/bin/gnu/h-i686-mingw32/bin/../lib/gcc/nios2-elf/4.1.2/../../../../nios2-elf/lib\libc.a(lib_a-s_isinfd.o)
 .comment       0x00000000       0x24 e:/altera/10.1/nios2eds/bin/gnu/h-i686-mingw32/bin/../lib/gcc/nios2-elf/4.1.2/../../../../nios2-elf/lib\libc.a(lib_a-s_isnand.o)
 .comment       0x00000000       0x24 e:/altera/10.1/nios2eds/bin/gnu/h-i686-mingw32/bin/../lib/gcc/nios2-elf/4.1.2/../../../../nios2-elf/lib\libc.a(lib_a-stdio.o)
 .comment       0x00000000       0x24 e:/altera/10.1/nios2eds/bin/gnu/h-i686-mingw32/bin/../lib/gcc/nios2-elf/4.1.2/../../../../nios2-elf/lib\libc.a(lib_a-wbuf.o)
 .comment       0x00000000       0x24 e:/altera/10.1/nios2eds/bin/gnu/h-i686-mingw32/bin/../lib/gcc/nios2-elf/4.1.2/../../../../nios2-elf/lib\libc.a(lib_a-writer.o)
 .comment       0x00000000       0x24 e:/altera/10.1/nios2eds/bin/gnu/h-i686-mingw32/bin/../lib/gcc/nios2-elf/4.1.2/../../../../nios2-elf/lib\libc.a(lib_a-callocr.o)
 .comment       0x00000000       0x24 e:/altera/10.1/nios2eds/bin/gnu/h-i686-mingw32/bin/../lib/gcc/nios2-elf/4.1.2/../../../../nios2-elf/lib\libc.a(lib_a-closer.o)
 .comment       0x00000000       0x24 e:/altera/10.1/nios2eds/bin/gnu/h-i686-mingw32/bin/../lib/gcc/nios2-elf/4.1.2/../../../../nios2-elf/lib\libc.a(lib_a-fclose.o)
 .comment       0x00000000       0x24 e:/altera/10.1/nios2eds/bin/gnu/h-i686-mingw32/bin/../lib/gcc/nios2-elf/4.1.2/../../../../nios2-elf/lib\libc.a(lib_a-fstatr.o)
 .comment       0x00000000       0x24 e:/altera/10.1/nios2eds/bin/gnu/h-i686-mingw32/bin/../lib/gcc/nios2-elf/4.1.2/../../../../nios2-elf/lib\libc.a(lib_a-isattyr.o)
 .comment       0x00000000       0x24 e:/altera/10.1/nios2eds/bin/gnu/h-i686-mingw32/bin/../lib/gcc/nios2-elf/4.1.2/../../../../nios2-elf/lib\libc.a(lib_a-lseekr.o)
 .comment       0x00000000       0x24 e:/altera/10.1/nios2eds/bin/gnu/h-i686-mingw32/bin/../lib/gcc/nios2-elf/4.1.2/../../../../nios2-elf/lib\libc.a(lib_a-readr.o)
 .comment       0x00000000       0x24 e:/altera/10.1/nios2eds/bin/gnu/h-i686-mingw32/bin/../lib/gcc/nios2-elf/4.1.2\libgcc.a(_udivdi3.o)
 .comment       0x00000000       0x24 e:/altera/10.1/nios2eds/bin/gnu/h-i686-mingw32/bin/../lib/gcc/nios2-elf/4.1.2\libgcc.a(_umoddi3.o)
 .comment       0x00000000       0x24 e:/altera/10.1/nios2eds/bin/gnu/h-i686-mingw32/bin/../lib/gcc/nios2-elf/4.1.2\libgcc.a(_eq_df.o)
 .comment       0x00000000       0x24 e:/altera/10.1/nios2eds/bin/gnu/h-i686-mingw32/bin/../lib/gcc/nios2-elf/4.1.2\libgcc.a(_gt_df.o)
 .comment       0x00000000       0x24 e:/altera/10.1/nios2eds/bin/gnu/h-i686-mingw32/bin/../lib/gcc/nios2-elf/4.1.2\libgcc.a(_lt_df.o)
 .comment       0x00000000       0x24 ../mf2_ddr_ucos_bsp/\libucosii_bsp.a(alt_close.o)
 .comment       0x00000000       0x24 ../mf2_ddr_ucos_bsp/\libucosii_bsp.a(alt_dev.o)
 .comment       0x00000000       0x24 ../mf2_ddr_ucos_bsp/\libucosii_bsp.a(alt_errno.o)
 .comment       0x00000000       0x24 ../mf2_ddr_ucos_bsp/\libucosii_bsp.a(alt_exit.o)
 .comment       0x00000000       0x24 ../mf2_ddr_ucos_bsp/\libucosii_bsp.a(alt_fstat.o)
 .comment       0x00000000       0x24 ../mf2_ddr_ucos_bsp/\libucosii_bsp.a(alt_getpid.o)
 .comment       0x00000000       0x24 ../mf2_ddr_ucos_bsp/\libucosii_bsp.a(alt_iic.o)
 .comment       0x00000000       0x24 ../mf2_ddr_ucos_bsp/\libucosii_bsp.a(alt_iic_isr_register.o)
 .comment       0x00000000       0x24 ../mf2_ddr_ucos_bsp/\libucosii_bsp.a(alt_instruction_exception_register.o)
 .comment       0x00000000       0x24 ../mf2_ddr_ucos_bsp/\libucosii_bsp.a(alt_irq_vars.o)
 .comment       0x00000000       0x24 ../mf2_ddr_ucos_bsp/\libucosii_bsp.a(alt_isatty.o)
 .comment       0x00000000       0x24 ../mf2_ddr_ucos_bsp/\libucosii_bsp.a(alt_kill.o)
 .comment       0x00000000       0x24 ../mf2_ddr_ucos_bsp/\libucosii_bsp.a(alt_load.o)
 .comment       0x00000000       0x24 ../mf2_ddr_ucos_bsp/\libucosii_bsp.a(alt_lseek.o)
 .comment       0x00000000       0x24 ../mf2_ddr_ucos_bsp/\libucosii_bsp.a(alt_main.o)
 .comment       0x00000000       0x24 ../mf2_ddr_ucos_bsp/\libucosii_bsp.a(alt_read.o)
 .comment       0x00000000       0x24 ../mf2_ddr_ucos_bsp/\libucosii_bsp.a(alt_release_fd.o)
 .comment       0x00000000       0x24 ../mf2_ddr_ucos_bsp/\libucosii_bsp.a(alt_sbrk.o)
 .comment       0x00000000       0x24 ../mf2_ddr_ucos_bsp/\libucosii_bsp.a(alt_tick.o)
 .comment       0x00000000       0x24 ../mf2_ddr_ucos_bsp/\libucosii_bsp.a(alt_usleep.o)
 .comment       0x00000000       0x24 ../mf2_ddr_ucos_bsp/\libucosii_bsp.a(alt_write.o)
 .comment       0x00000000       0x24 ../mf2_ddr_ucos_bsp/\libucosii_bsp.a(alt_env_lock.o)
 .comment       0x00000000       0x24 ../mf2_ddr_ucos_bsp/\libucosii_bsp.a(alt_malloc_lock.o)
 .comment       0x00000000       0x24 ../mf2_ddr_ucos_bsp/\libucosii_bsp.a(os_core.o)
 .comment       0x00000000       0x24 ../mf2_ddr_ucos_bsp/\libucosii_bsp.a(os_dbg.o)
 .comment       0x00000000       0x24 ../mf2_ddr_ucos_bsp/\libucosii_bsp.a(os_flag.o)
 .comment       0x00000000       0x24 ../mf2_ddr_ucos_bsp/\libucosii_bsp.a(os_mem.o)
 .comment       0x00000000       0x24 ../mf2_ddr_ucos_bsp/\libucosii_bsp.a(os_q.o)
 .comment       0x00000000       0x24 ../mf2_ddr_ucos_bsp/\libucosii_bsp.a(os_task.o)
 .comment       0x00000000       0x24 ../mf2_ddr_ucos_bsp/\libucosii_bsp.a(os_time.o)
 .comment       0x00000000       0x24 ../mf2_ddr_ucos_bsp/\libucosii_bsp.a(os_tmr.o)
 .comment       0x00000000       0x24 ../mf2_ddr_ucos_bsp/\libucosii_bsp.a(alt_sys_init.o)
 .comment       0x00000000       0x24 ../mf2_ddr_ucos_bsp/\libucosii_bsp.a(altera_avalon_jtag_uart_fd.o)
 .comment       0x00000000       0x24 ../mf2_ddr_ucos_bsp/\libucosii_bsp.a(altera_avalon_jtag_uart_init.o)
 .comment       0x00000000       0x24 ../mf2_ddr_ucos_bsp/\libucosii_bsp.a(altera_avalon_jtag_uart_ioctl.o)
 .comment       0x00000000       0x24 ../mf2_ddr_ucos_bsp/\libucosii_bsp.a(altera_avalon_jtag_uart_read.o)
 .comment       0x00000000       0x24 ../mf2_ddr_ucos_bsp/\libucosii_bsp.a(altera_avalon_jtag_uart_write.o)
 .comment       0x00000000       0x24 ../mf2_ddr_ucos_bsp/\libucosii_bsp.a(altera_avalon_spi.o)
 .comment       0x00000000       0x24 ../mf2_ddr_ucos_bsp/\libucosii_bsp.a(altera_avalon_timer_sc.o)
 .comment       0x00000000       0x24 ../mf2_ddr_ucos_bsp/\libucosii_bsp.a(alt_alarm_start.o)
 .comment       0x00000000       0x24 ../mf2_ddr_ucos_bsp/\libucosii_bsp.a(alt_busy_sleep.o)
 .comment       0x00000000       0x24 ../mf2_ddr_ucos_bsp/\libucosii_bsp.a(alt_dcache_flush_all.o)
 .comment       0x00000000       0x24 ../mf2_ddr_ucos_bsp/\libucosii_bsp.a(alt_dev_llist_insert.o)
 .comment       0x00000000       0x24 ../mf2_ddr_ucos_bsp/\libucosii_bsp.a(alt_do_ctors.o)
 .comment       0x00000000       0x24 ../mf2_ddr_ucos_bsp/\libucosii_bsp.a(alt_do_dtors.o)
 .comment       0x00000000       0x24 ../mf2_ddr_ucos_bsp/\libucosii_bsp.a(alt_icache_flush_all.o)
 .comment       0x00000000       0x24 ../mf2_ddr_ucos_bsp/\libucosii_bsp.a(alt_instruction_exception_entry.o)
 .comment       0x00000000       0x24 ../mf2_ddr_ucos_bsp/\libucosii_bsp.a(alt_io_redirect.o)
 .comment       0x00000000       0x24 ../mf2_ddr_ucos_bsp/\libucosii_bsp.a(alt_open.o)
 .comment       0x00000000       0x24 ../mf2_ddr_ucos_bsp/\libucosii_bsp.a(altera_nios2_irq.o)
 .comment       0x00000000       0x24 ../mf2_ddr_ucos_bsp/\libucosii_bsp.a(alt_find_dev.o)
 .comment       0x00000000       0x24 ../mf2_ddr_ucos_bsp/\libucosii_bsp.a(alt_find_file.o)
 .comment       0x00000000       0x24 ../mf2_ddr_ucos_bsp/\libucosii_bsp.a(alt_get_fd.o)
 .comment       0x00000000       0x24 ../mf2_ddr_ucos_bsp/\libucosii_bsp.a(alt_icache_flush.o)
 .comment       0x00000000       0x24 e:/altera/10.1/nios2eds/bin/gnu/h-i686-mingw32/bin/../lib/gcc/nios2-elf/4.1.2/../../../../nios2-elf/lib\libc.a(lib_a-atexit.o)
 .comment       0x00000000       0x24 e:/altera/10.1/nios2eds/bin/gnu/h-i686-mingw32/bin/../lib/gcc/nios2-elf/4.1.2/../../../../nios2-elf/lib\libc.a(lib_a-exit.o)
 .comment       0x00000000       0x24 e:/altera/10.1/nios2eds/bin/gnu/h-i686-mingw32/bin/../lib/gcc/nios2-elf/4.1.2/../../../../nios2-elf/lib\libc.a(lib_a-memcmp.o)
 .comment       0x00000000       0x24 e:/altera/10.1/nios2eds/bin/gnu/h-i686-mingw32/bin/../lib/gcc/nios2-elf/4.1.2/../../../../nios2-elf/lib\libc.a(lib_a-__atexit.o)
 .comment       0x00000000       0x24 e:/altera/10.1/nios2eds/bin/gnu/h-i686-mingw32/bin/../lib/gcc/nios2-elf/4.1.2/../../../../nios2-elf/lib\libc.a(lib_a-__call_atexit.o)

.debug
 *(.debug)

.line
 *(.line)

.debug_srcinfo
 *(.debug_srcinfo)

.debug_sfnames
 *(.debug_sfnames)

.debug_aranges  0x00000000     0x1a60
 *(.debug_aranges)
 .debug_aranges
                0x00000000       0x28 ../mf2_ddr_ucos_bsp//obj/HAL/src/crt0.o
 .debug_aranges
                0x00000028       0x28 obj/alt-irq-handler.o
 .debug_aranges
                0x00000050       0x20 obj/dbg_helper.o
 .debug_aranges
                0x00000070       0x20 obj/ddc_helper.o
 .debug_aranges
                0x00000090       0x20 obj/dynedid.o
 .debug_aranges
                0x000000b0       0x20 obj/ee_helper.o
 .debug_aranges
                0x000000d0       0x20 obj/fifo_helper.o
 .debug_aranges
                0x000000f0       0x20 obj/i2c_master.o
 .debug_aranges
                0x00000110       0x20 obj/main.o
 .debug_aranges
                0x00000130       0x20 obj/os-support.o
 .debug_aranges
                0x00000150       0x20 obj/os_bsem.o
 .debug_aranges
                0x00000170       0x20 obj/os_cpu_c.o
 .debug_aranges
                0x00000190       0x20 obj/os_sem.o
 .debug_aranges
                0x000001b0       0x20 obj/ow.o
 .debug_aranges
                0x000001d0       0x20 obj/pll_helper.o
 .debug_aranges
                0x000001f0       0x20 obj/sys-base.o
 .debug_aranges
                0x00000210       0x20 obj/touchcon.o
 .debug_aranges
                0x00000230       0x20 obj/ts_helper.o
 .debug_aranges
                0x00000250       0x20 obj/tvp7002_helper.o
 .debug_aranges
                0x00000270       0x20 obj/uhe.o
 .debug_aranges
                0x00000290       0x20 obj/usb/bsd-bus-dma.o
 .debug_aranges
                0x000002b0       0x20 obj/usb/bsd-wrap.o
 .debug_aranges
                0x000002d0       0x20 obj/usb/bus_if.o
 .debug_aranges
                0x000002f0       0x20 obj/usb/device_if.o
 .debug_aranges
                0x00000310       0x20 obj/usb/ehci.o
 .debug_aranges
                0x00000330       0x20 obj/usb/ehci_oxu210.o
 .debug_aranges
                0x00000350       0x20 obj/usb/init_main.o
 .debug_aranges
                0x00000370       0x20 obj/usb/kern_linker.o
 .debug_aranges
                0x00000390       0x20 obj/usb/kern_module.o
 .debug_aranges
                0x000003b0       0x20 obj/usb/kern_sysctl.o
 .debug_aranges
                0x000003d0       0x20 obj/usb/oxu210-alloc.o
 .debug_aranges
                0x000003f0       0x20 obj/usb/oxu210-intr.o
 .debug_aranges
                0x00000410       0x20 obj/usb/pdev.o
 .debug_aranges
                0x00000430       0x20 obj/usb/s5a-autoconf.o
 .debug_aranges
                0x00000450       0x20 obj/usb/subr_bus.o
 .debug_aranges
                0x00000470       0x20 obj/usb/subr_kobj.o
 .debug_aranges
                0x00000490       0x20 obj/usb/subr_uio.o
 .debug_aranges
                0x000004b0       0x20 obj/usb/tc-mtouch.o
 .debug_aranges
                0x000004d0       0x20 obj/usb/tc-zytronic.o
 .debug_aranges
                0x000004f0       0x20 obj/usb/tc.o
 .debug_aranges
                0x00000510       0x20 obj/usb/ums.o
 .debug_aranges
                0x00000530       0x20 obj/usb/usb_busdma.o
 .debug_aranges
                0x00000550       0x20 obj/usb/usb_controller.o
 .debug_aranges
                0x00000570       0x20 obj/usb/usb_debug.o
 .debug_aranges
                0x00000590       0x20 obj/usb/usb_device.o
 .debug_aranges
                0x000005b0       0x20 obj/usb/usb_dynamic.o
 .debug_aranges
                0x000005d0       0x20 obj/usb/usb_error.o
 .debug_aranges
                0x000005f0       0x20 obj/usb/usb_handle_request.o
 .debug_aranges
                0x00000610       0x20 obj/usb/usb_hid.o
 .debug_aranges
                0x00000630       0x20 obj/usb/usb_hub.o
 .debug_aranges
                0x00000650       0x20 obj/usb/usb_parse.o
 .debug_aranges
                0x00000670       0x20 obj/usb/usb_process.o
 .debug_aranges
                0x00000690       0x20 obj/usb/usb_request.o
 .debug_aranges
                0x000006b0       0x20 obj/usb/usb_s5a.o
 .debug_aranges
                0x000006d0       0x20 obj/usb/usb_transfer.o
 .debug_aranges
                0x000006f0       0x20 obj/usb/usb_util.o
 .debug_aranges
                0x00000710       0x20 obj/usb/usbdev_oxu210.o
 .debug_aranges
                0x00000730       0x20 obj/usb_helper.o
 .debug_aranges
                0x00000750       0x20 obj/video_helper.o
 .debug_aranges
                0x00000770       0x20 obj/vip_helper.o
 .debug_aranges
                0x00000790       0x20 e:/altera/10.1/nios2eds/bin/gnu/h-i686-mingw32/bin/../lib/gcc/nios2-elf/4.1.2/../../../../nios2-elf/lib\libstdc++.a(eh_personality.o)
 .debug_aranges
                0x000007b0       0x20 e:/altera/10.1/nios2eds/bin/gnu/h-i686-mingw32/bin/../lib/gcc/nios2-elf/4.1.2/../../../../nios2-elf/lib\libstdc++.a(eh_globals.o)
 .debug_aranges
                0x000007d0       0x20 e:/altera/10.1/nios2eds/bin/gnu/h-i686-mingw32/bin/../lib/gcc/nios2-elf/4.1.2/../../../../nios2-elf/lib\libstdc++.a(eh_throw.o)
 .debug_aranges
                0x000007f0       0x20 e:/altera/10.1/nios2eds/bin/gnu/h-i686-mingw32/bin/../lib/gcc/nios2-elf/4.1.2/../../../../nios2-elf/lib\libstdc++.a(eh_call.o)
 .debug_aranges
                0x00000810       0x20 e:/altera/10.1/nios2eds/bin/gnu/h-i686-mingw32/bin/../lib/gcc/nios2-elf/4.1.2/../../../../nios2-elf/lib\libstdc++.a(eh_catch.o)
 .debug_aranges
                0x00000830       0x20 e:/altera/10.1/nios2eds/bin/gnu/h-i686-mingw32/bin/../lib/gcc/nios2-elf/4.1.2/../../../../nios2-elf/lib\libstdc++.a(eh_exception.o)
 .debug_aranges
                0x00000850       0x20 e:/altera/10.1/nios2eds/bin/gnu/h-i686-mingw32/bin/../lib/gcc/nios2-elf/4.1.2/../../../../nios2-elf/lib\libstdc++.a(eh_terminate.o)
 .debug_aranges
                0x00000870       0x20 e:/altera/10.1/nios2eds/bin/gnu/h-i686-mingw32/bin/../lib/gcc/nios2-elf/4.1.2/../../../../nios2-elf/lib\libstdc++.a(si_class_type_info.o)
 .debug_aranges
                0x00000890       0x20 e:/altera/10.1/nios2eds/bin/gnu/h-i686-mingw32/bin/../lib/gcc/nios2-elf/4.1.2/../../../../nios2-elf/lib\libstdc++.a(eh_alloc.o)
 .debug_aranges
                0x000008b0       0x20 e:/altera/10.1/nios2eds/bin/gnu/h-i686-mingw32/bin/../lib/gcc/nios2-elf/4.1.2/../../../../nios2-elf/lib\libstdc++.a(tinfo.o)
 .debug_aranges
                0x000008d0       0x20 e:/altera/10.1/nios2eds/bin/gnu/h-i686-mingw32/bin/../lib/gcc/nios2-elf/4.1.2/../../../../nios2-elf/lib\libstdc++.a(del_op.o)
 .debug_aranges
                0x000008f0       0x20 e:/altera/10.1/nios2eds/bin/gnu/h-i686-mingw32/bin/../lib/gcc/nios2-elf/4.1.2/../../../../nios2-elf/lib\libstdc++.a(class_type_info.o)
 .debug_aranges
                0x00000910       0x20 e:/altera/10.1/nios2eds/bin/gnu/h-i686-mingw32/bin/../lib/gcc/nios2-elf/4.1.2\libgcc.a(_muldi3.o)
 .debug_aranges
                0x00000930       0x20 e:/altera/10.1/nios2eds/bin/gnu/h-i686-mingw32/bin/../lib/gcc/nios2-elf/4.1.2\libgcc.a(_fixunsdfsi.o)
 .debug_aranges
                0x00000950       0x20 e:/altera/10.1/nios2eds/bin/gnu/h-i686-mingw32/bin/../lib/gcc/nios2-elf/4.1.2\libgcc.a(_floatdidf.o)
 .debug_aranges
                0x00000970       0x20 e:/altera/10.1/nios2eds/bin/gnu/h-i686-mingw32/bin/../lib/gcc/nios2-elf/4.1.2\libgcc.a(_divdi3.o)
 .debug_aranges
                0x00000990       0x20 e:/altera/10.1/nios2eds/bin/gnu/h-i686-mingw32/bin/../lib/gcc/nios2-elf/4.1.2\libgcc.a(_addsub_df.o)
 .debug_aranges
                0x000009b0       0x20 e:/altera/10.1/nios2eds/bin/gnu/h-i686-mingw32/bin/../lib/gcc/nios2-elf/4.1.2\libgcc.a(_mul_df.o)
 .debug_aranges
                0x000009d0       0x20 e:/altera/10.1/nios2eds/bin/gnu/h-i686-mingw32/bin/../lib/gcc/nios2-elf/4.1.2\libgcc.a(_div_df.o)
 .debug_aranges
                0x000009f0       0x20 e:/altera/10.1/nios2eds/bin/gnu/h-i686-mingw32/bin/../lib/gcc/nios2-elf/4.1.2\libgcc.a(_ne_df.o)
 .debug_aranges
                0x00000a10       0x20 e:/altera/10.1/nios2eds/bin/gnu/h-i686-mingw32/bin/../lib/gcc/nios2-elf/4.1.2\libgcc.a(_ge_df.o)
 .debug_aranges
                0x00000a30       0x20 e:/altera/10.1/nios2eds/bin/gnu/h-i686-mingw32/bin/../lib/gcc/nios2-elf/4.1.2\libgcc.a(_si_to_df.o)
 .debug_aranges
                0x00000a50       0x20 e:/altera/10.1/nios2eds/bin/gnu/h-i686-mingw32/bin/../lib/gcc/nios2-elf/4.1.2\libgcc.a(_df_to_si.o)
 .debug_aranges
                0x00000a70       0x20 e:/altera/10.1/nios2eds/bin/gnu/h-i686-mingw32/bin/../lib/gcc/nios2-elf/4.1.2\libgcc.a(_usi_to_df.o)
 .debug_aranges
                0x00000a90       0x20 e:/altera/10.1/nios2eds/bin/gnu/h-i686-mingw32/bin/../lib/gcc/nios2-elf/4.1.2\libgcc.a(lib2-divmod.o)
 .debug_aranges
                0x00000ab0       0x20 e:/altera/10.1/nios2eds/bin/gnu/h-i686-mingw32/bin/../lib/gcc/nios2-elf/4.1.2\libgcc.a(unwind-dw2.o)
 .debug_aranges
                0x00000ad0       0x20 e:/altera/10.1/nios2eds/bin/gnu/h-i686-mingw32/bin/../lib/gcc/nios2-elf/4.1.2\libgcc.a(unwind-dw2-fde.o)
 .debug_aranges
                0x00000af0       0x20 e:/altera/10.1/nios2eds/bin/gnu/h-i686-mingw32/bin/../lib/gcc/nios2-elf/4.1.2\libgcc.a(_clzsi2.o)
 .debug_aranges
                0x00000b10       0x20 e:/altera/10.1/nios2eds/bin/gnu/h-i686-mingw32/bin/../lib/gcc/nios2-elf/4.1.2\libgcc.a(_pack_df.o)
 .debug_aranges
                0x00000b30       0x20 e:/altera/10.1/nios2eds/bin/gnu/h-i686-mingw32/bin/../lib/gcc/nios2-elf/4.1.2\libgcc.a(_unpack_df.o)
 .debug_aranges
                0x00000b50       0x20 e:/altera/10.1/nios2eds/bin/gnu/h-i686-mingw32/bin/../lib/gcc/nios2-elf/4.1.2\libgcc.a(_fpcmp_parts_df.o)
 .debug_aranges
                0x00000b70       0x20 e:/altera/10.1/nios2eds/bin/gnu/h-i686-mingw32/bin/../lib/gcc/nios2-elf/4.1.2/../../../../nios2-elf/lib\libc.a(lib_a-abort.o)
 .debug_aranges
                0x00000b90       0x20 e:/altera/10.1/nios2eds/bin/gnu/h-i686-mingw32/bin/../lib/gcc/nios2-elf/4.1.2/../../../../nios2-elf/lib\libc.a(lib_a-bcopy.o)
 .debug_aranges
                0x00000bb0       0x20 e:/altera/10.1/nios2eds/bin/gnu/h-i686-mingw32/bin/../lib/gcc/nios2-elf/4.1.2/../../../../nios2-elf/lib\libc.a(lib_a-malloc.o)
 .debug_aranges
                0x00000bd0       0x20 e:/altera/10.1/nios2eds/bin/gnu/h-i686-mingw32/bin/../lib/gcc/nios2-elf/4.1.2/../../../../nios2-elf/lib\libc.a(lib_a-mallocr.o)
 .debug_aranges
                0x00000bf0       0x20 e:/altera/10.1/nios2eds/bin/gnu/h-i686-mingw32/bin/../lib/gcc/nios2-elf/4.1.2/../../../../nios2-elf/lib\libc.a(lib_a-memcpy.o)
 .debug_aranges
                0x00000c10       0x20 e:/altera/10.1/nios2eds/bin/gnu/h-i686-mingw32/bin/../lib/gcc/nios2-elf/4.1.2/../../../../nios2-elf/lib\libc.a(lib_a-memmove.o)
 .debug_aranges
                0x00000c30       0x20 e:/altera/10.1/nios2eds/bin/gnu/h-i686-mingw32/bin/../lib/gcc/nios2-elf/4.1.2/../../../../nios2-elf/lib\libc.a(lib_a-memset.o)
 .debug_aranges
                0x00000c50       0x20 e:/altera/10.1/nios2eds/bin/gnu/h-i686-mingw32/bin/../lib/gcc/nios2-elf/4.1.2/../../../../nios2-elf/lib\libc.a(lib_a-printf.o)
 .debug_aranges
                0x00000c70       0x20 e:/altera/10.1/nios2eds/bin/gnu/h-i686-mingw32/bin/../lib/gcc/nios2-elf/4.1.2/../../../../nios2-elf/lib\libc.a(lib_a-putchar.o)
 .debug_aranges
                0x00000c90       0x20 e:/altera/10.1/nios2eds/bin/gnu/h-i686-mingw32/bin/../lib/gcc/nios2-elf/4.1.2/../../../../nios2-elf/lib\libc.a(lib_a-puts.o)
 .debug_aranges
                0x00000cb0       0x20 e:/altera/10.1/nios2eds/bin/gnu/h-i686-mingw32/bin/../lib/gcc/nios2-elf/4.1.2/../../../../nios2-elf/lib\libc.a(lib_a-rand.o)
 .debug_aranges
                0x00000cd0       0x20 e:/altera/10.1/nios2eds/bin/gnu/h-i686-mingw32/bin/../lib/gcc/nios2-elf/4.1.2/../../../../nios2-elf/lib\libc.a(lib_a-sbrkr.o)
 .debug_aranges
                0x00000cf0       0x20 e:/altera/10.1/nios2eds/bin/gnu/h-i686-mingw32/bin/../lib/gcc/nios2-elf/4.1.2/../../../../nios2-elf/lib\libc.a(lib_a-signal.o)
 .debug_aranges
                0x00000d10       0x20 e:/altera/10.1/nios2eds/bin/gnu/h-i686-mingw32/bin/../lib/gcc/nios2-elf/4.1.2/../../../../nios2-elf/lib\libc.a(lib_a-signalr.o)
 .debug_aranges
                0x00000d30       0x20 e:/altera/10.1/nios2eds/bin/gnu/h-i686-mingw32/bin/../lib/gcc/nios2-elf/4.1.2/../../../../nios2-elf/lib\libc.a(lib_a-snprintf.o)
 .debug_aranges
                0x00000d50       0x20 e:/altera/10.1/nios2eds/bin/gnu/h-i686-mingw32/bin/../lib/gcc/nios2-elf/4.1.2/../../../../nios2-elf/lib\libc.a(lib_a-sprintf.o)
 .debug_aranges
                0x00000d70       0x20 e:/altera/10.1/nios2eds/bin/gnu/h-i686-mingw32/bin/../lib/gcc/nios2-elf/4.1.2/../../../../nios2-elf/lib\libc.a(lib_a-strcmp.o)
 .debug_aranges
                0x00000d90       0x20 e:/altera/10.1/nios2eds/bin/gnu/h-i686-mingw32/bin/../lib/gcc/nios2-elf/4.1.2/../../../../nios2-elf/lib\libc.a(lib_a-strcpy.o)
 .debug_aranges
                0x00000db0       0x20 e:/altera/10.1/nios2eds/bin/gnu/h-i686-mingw32/bin/../lib/gcc/nios2-elf/4.1.2/../../../../nios2-elf/lib\libc.a(lib_a-strdup.o)
 .debug_aranges
                0x00000dd0       0x20 e:/altera/10.1/nios2eds/bin/gnu/h-i686-mingw32/bin/../lib/gcc/nios2-elf/4.1.2/../../../../nios2-elf/lib\libc.a(lib_a-strdup_r.o)
 .debug_aranges
                0x00000df0       0x20 e:/altera/10.1/nios2eds/bin/gnu/h-i686-mingw32/bin/../lib/gcc/nios2-elf/4.1.2/../../../../nios2-elf/lib\libc.a(lib_a-strlcpy.o)
 .debug_aranges
                0x00000e10       0x20 e:/altera/10.1/nios2eds/bin/gnu/h-i686-mingw32/bin/../lib/gcc/nios2-elf/4.1.2/../../../../nios2-elf/lib\libc.a(lib_a-strlen.o)
 .debug_aranges
                0x00000e30       0x20 e:/altera/10.1/nios2eds/bin/gnu/h-i686-mingw32/bin/../lib/gcc/nios2-elf/4.1.2/../../../../nios2-elf/lib\libc.a(lib_a-strncpy.o)
 .debug_aranges
                0x00000e50       0x20 e:/altera/10.1/nios2eds/bin/gnu/h-i686-mingw32/bin/../lib/gcc/nios2-elf/4.1.2/../../../../nios2-elf/lib\libc.a(lib_a-strnlen.o)
 .debug_aranges
                0x00000e70       0x20 e:/altera/10.1/nios2eds/bin/gnu/h-i686-mingw32/bin/../lib/gcc/nios2-elf/4.1.2/../../../../nios2-elf/lib\libc.a(lib_a-vfprintf.o)
 .debug_aranges
                0x00000e90       0x20 e:/altera/10.1/nios2eds/bin/gnu/h-i686-mingw32/bin/../lib/gcc/nios2-elf/4.1.2/../../../../nios2-elf/lib\libc.a(lib_a-vprintf.o)
 .debug_aranges
                0x00000eb0       0x20 e:/altera/10.1/nios2eds/bin/gnu/h-i686-mingw32/bin/../lib/gcc/nios2-elf/4.1.2/../../../../nios2-elf/lib\libc.a(lib_a-vsnprintf.o)
 .debug_aranges
                0x00000ed0       0x20 e:/altera/10.1/nios2eds/bin/gnu/h-i686-mingw32/bin/../lib/gcc/nios2-elf/4.1.2/../../../../nios2-elf/lib\libc.a(lib_a-vsprintf.o)
 .debug_aranges
                0x00000ef0       0x20 e:/altera/10.1/nios2eds/bin/gnu/h-i686-mingw32/bin/../lib/gcc/nios2-elf/4.1.2/../../../../nios2-elf/lib\libc.a(lib_a-wsetup.o)
 .debug_aranges
                0x00000f10       0x20 e:/altera/10.1/nios2eds/bin/gnu/h-i686-mingw32/bin/../lib/gcc/nios2-elf/4.1.2/../../../../nios2-elf/lib\libc.a(lib_a-dtoa.o)
 .debug_aranges
                0x00000f30       0x20 e:/altera/10.1/nios2eds/bin/gnu/h-i686-mingw32/bin/../lib/gcc/nios2-elf/4.1.2/../../../../nios2-elf/lib\libc.a(lib_a-fflush.o)
 .debug_aranges
                0x00000f50       0x20 e:/altera/10.1/nios2eds/bin/gnu/h-i686-mingw32/bin/../lib/gcc/nios2-elf/4.1.2/../../../../nios2-elf/lib\libc.a(lib_a-findfp.o)
 .debug_aranges
                0x00000f70       0x20 e:/altera/10.1/nios2eds/bin/gnu/h-i686-mingw32/bin/../lib/gcc/nios2-elf/4.1.2/../../../../nios2-elf/lib\libc.a(lib_a-freer.o)
 .debug_aranges
                0x00000f90       0x20 e:/altera/10.1/nios2eds/bin/gnu/h-i686-mingw32/bin/../lib/gcc/nios2-elf/4.1.2/../../../../nios2-elf/lib\libc.a(lib_a-fvwrite.o)
 .debug_aranges
                0x00000fb0       0x20 e:/altera/10.1/nios2eds/bin/gnu/h-i686-mingw32/bin/../lib/gcc/nios2-elf/4.1.2/../../../../nios2-elf/lib\libc.a(lib_a-fwalk.o)
 .debug_aranges
                0x00000fd0       0x20 e:/altera/10.1/nios2eds/bin/gnu/h-i686-mingw32/bin/../lib/gcc/nios2-elf/4.1.2/../../../../nios2-elf/lib\libc.a(lib_a-locale.o)
 .debug_aranges
                0x00000ff0       0x20 e:/altera/10.1/nios2eds/bin/gnu/h-i686-mingw32/bin/../lib/gcc/nios2-elf/4.1.2/../../../../nios2-elf/lib\libc.a(lib_a-makebuf.o)
 .debug_aranges
                0x00001010       0x20 e:/altera/10.1/nios2eds/bin/gnu/h-i686-mingw32/bin/../lib/gcc/nios2-elf/4.1.2/../../../../nios2-elf/lib\libc.a(lib_a-memchr.o)
 .debug_aranges
                0x00001030       0x20 e:/altera/10.1/nios2eds/bin/gnu/h-i686-mingw32/bin/../lib/gcc/nios2-elf/4.1.2/../../../../nios2-elf/lib\libc.a(lib_a-mprec.o)
 .debug_aranges
                0x00001050       0x20 e:/altera/10.1/nios2eds/bin/gnu/h-i686-mingw32/bin/../lib/gcc/nios2-elf/4.1.2/../../../../nios2-elf/lib\libc.a(lib_a-putc.o)
 .debug_aranges
                0x00001070       0x20 e:/altera/10.1/nios2eds/bin/gnu/h-i686-mingw32/bin/../lib/gcc/nios2-elf/4.1.2/../../../../nios2-elf/lib\libc.a(lib_a-reallocr.o)
 .debug_aranges
                0x00001090       0x20 e:/altera/10.1/nios2eds/bin/gnu/h-i686-mingw32/bin/../lib/gcc/nios2-elf/4.1.2/../../../../nios2-elf/lib\libc.a(lib_a-s_isinfd.o)
 .debug_aranges
                0x000010b0       0x20 e:/altera/10.1/nios2eds/bin/gnu/h-i686-mingw32/bin/../lib/gcc/nios2-elf/4.1.2/../../../../nios2-elf/lib\libc.a(lib_a-s_isnand.o)
 .debug_aranges
                0x000010d0       0x20 e:/altera/10.1/nios2eds/bin/gnu/h-i686-mingw32/bin/../lib/gcc/nios2-elf/4.1.2/../../../../nios2-elf/lib\libc.a(lib_a-stdio.o)
 .debug_aranges
                0x000010f0       0x20 e:/altera/10.1/nios2eds/bin/gnu/h-i686-mingw32/bin/../lib/gcc/nios2-elf/4.1.2/../../../../nios2-elf/lib\libc.a(lib_a-wbuf.o)
 .debug_aranges
                0x00001110       0x20 e:/altera/10.1/nios2eds/bin/gnu/h-i686-mingw32/bin/../lib/gcc/nios2-elf/4.1.2/../../../../nios2-elf/lib\libc.a(lib_a-writer.o)
 .debug_aranges
                0x00001130       0x20 e:/altera/10.1/nios2eds/bin/gnu/h-i686-mingw32/bin/../lib/gcc/nios2-elf/4.1.2/../../../../nios2-elf/lib\libc.a(lib_a-callocr.o)
 .debug_aranges
                0x00001150       0x20 e:/altera/10.1/nios2eds/bin/gnu/h-i686-mingw32/bin/../lib/gcc/nios2-elf/4.1.2/../../../../nios2-elf/lib\libc.a(lib_a-closer.o)
 .debug_aranges
                0x00001170       0x20 e:/altera/10.1/nios2eds/bin/gnu/h-i686-mingw32/bin/../lib/gcc/nios2-elf/4.1.2/../../../../nios2-elf/lib\libc.a(lib_a-fclose.o)
 .debug_aranges
                0x00001190       0x20 e:/altera/10.1/nios2eds/bin/gnu/h-i686-mingw32/bin/../lib/gcc/nios2-elf/4.1.2/../../../../nios2-elf/lib\libc.a(lib_a-fstatr.o)
 .debug_aranges
                0x000011b0       0x20 e:/altera/10.1/nios2eds/bin/gnu/h-i686-mingw32/bin/../lib/gcc/nios2-elf/4.1.2/../../../../nios2-elf/lib\libc.a(lib_a-isattyr.o)
 .debug_aranges
                0x000011d0       0x20 e:/altera/10.1/nios2eds/bin/gnu/h-i686-mingw32/bin/../lib/gcc/nios2-elf/4.1.2/../../../../nios2-elf/lib\libc.a(lib_a-lseekr.o)
 .debug_aranges
                0x000011f0       0x20 e:/altera/10.1/nios2eds/bin/gnu/h-i686-mingw32/bin/../lib/gcc/nios2-elf/4.1.2/../../../../nios2-elf/lib\libc.a(lib_a-readr.o)
 .debug_aranges
                0x00001210       0x20 e:/altera/10.1/nios2eds/bin/gnu/h-i686-mingw32/bin/../lib/gcc/nios2-elf/4.1.2\libgcc.a(_udivdi3.o)
 .debug_aranges
                0x00001230       0x20 e:/altera/10.1/nios2eds/bin/gnu/h-i686-mingw32/bin/../lib/gcc/nios2-elf/4.1.2\libgcc.a(_umoddi3.o)
 .debug_aranges
                0x00001250       0x20 e:/altera/10.1/nios2eds/bin/gnu/h-i686-mingw32/bin/../lib/gcc/nios2-elf/4.1.2\libgcc.a(_eq_df.o)
 .debug_aranges
                0x00001270       0x20 e:/altera/10.1/nios2eds/bin/gnu/h-i686-mingw32/bin/../lib/gcc/nios2-elf/4.1.2\libgcc.a(_gt_df.o)
 .debug_aranges
                0x00001290       0x20 e:/altera/10.1/nios2eds/bin/gnu/h-i686-mingw32/bin/../lib/gcc/nios2-elf/4.1.2\libgcc.a(_lt_df.o)
 .debug_aranges
                0x000012b0       0x20 ../mf2_ddr_ucos_bsp/\libucosii_bsp.a(alt_close.o)
 .debug_aranges
                0x000012d0       0x20 ../mf2_ddr_ucos_bsp/\libucosii_bsp.a(alt_dev.o)
 .debug_aranges
                0x000012f0       0x20 ../mf2_ddr_ucos_bsp/\libucosii_bsp.a(alt_exit.o)
 .debug_aranges
                0x00001310       0x20 ../mf2_ddr_ucos_bsp/\libucosii_bsp.a(alt_fstat.o)
 .debug_aranges
                0x00001330       0x20 ../mf2_ddr_ucos_bsp/\libucosii_bsp.a(alt_getpid.o)
 .debug_aranges
                0x00001350       0x20 ../mf2_ddr_ucos_bsp/\libucosii_bsp.a(alt_iic.o)
 .debug_aranges
                0x00001370       0x20 ../mf2_ddr_ucos_bsp/\libucosii_bsp.a(alt_iic_isr_register.o)
 .debug_aranges
                0x00001390       0x20 ../mf2_ddr_ucos_bsp/\libucosii_bsp.a(alt_instruction_exception_register.o)
 .debug_aranges
                0x000013b0       0x30 ../mf2_ddr_ucos_bsp/\libucosii_bsp.a(alt_irq_entry.o)
 .debug_aranges
                0x000013e0       0x20 ../mf2_ddr_ucos_bsp/\libucosii_bsp.a(alt_isatty.o)
 .debug_aranges
                0x00001400       0x20 ../mf2_ddr_ucos_bsp/\libucosii_bsp.a(alt_kill.o)
 .debug_aranges
                0x00001420       0x20 ../mf2_ddr_ucos_bsp/\libucosii_bsp.a(alt_load.o)
 .debug_aranges
                0x00001440       0x20 ../mf2_ddr_ucos_bsp/\libucosii_bsp.a(alt_lseek.o)
 .debug_aranges
                0x00001460       0x20 ../mf2_ddr_ucos_bsp/\libucosii_bsp.a(alt_main.o)
 .debug_aranges
                0x00001480       0x20 ../mf2_ddr_ucos_bsp/\libucosii_bsp.a(alt_read.o)
 .debug_aranges
                0x000014a0       0x20 ../mf2_ddr_ucos_bsp/\libucosii_bsp.a(alt_release_fd.o)
 .debug_aranges
                0x000014c0       0x20 ../mf2_ddr_ucos_bsp/\libucosii_bsp.a(alt_sbrk.o)
 .debug_aranges
                0x000014e0       0x20 ../mf2_ddr_ucos_bsp/\libucosii_bsp.a(alt_tick.o)
 .debug_aranges
                0x00001500       0x20 ../mf2_ddr_ucos_bsp/\libucosii_bsp.a(alt_usleep.o)
 .debug_aranges
                0x00001520       0x20 ../mf2_ddr_ucos_bsp/\libucosii_bsp.a(alt_write.o)
 .debug_aranges
                0x00001540       0x20 ../mf2_ddr_ucos_bsp/\libucosii_bsp.a(os_cpu_a.o)
 .debug_aranges
                0x00001560       0x20 ../mf2_ddr_ucos_bsp/\libucosii_bsp.a(alt_env_lock.o)
 .debug_aranges
                0x00001580       0x20 ../mf2_ddr_ucos_bsp/\libucosii_bsp.a(alt_malloc_lock.o)
 .debug_aranges
                0x000015a0       0x20 ../mf2_ddr_ucos_bsp/\libucosii_bsp.a(os_core.o)
 .debug_aranges
                0x000015c0       0x20 ../mf2_ddr_ucos_bsp/\libucosii_bsp.a(os_dbg.o)
 .debug_aranges
                0x000015e0       0x20 ../mf2_ddr_ucos_bsp/\libucosii_bsp.a(os_flag.o)
 .debug_aranges
                0x00001600       0x20 ../mf2_ddr_ucos_bsp/\libucosii_bsp.a(os_mem.o)
 .debug_aranges
                0x00001620       0x20 ../mf2_ddr_ucos_bsp/\libucosii_bsp.a(os_q.o)
 .debug_aranges
                0x00001640       0x20 ../mf2_ddr_ucos_bsp/\libucosii_bsp.a(os_task.o)
 .debug_aranges
                0x00001660       0x20 ../mf2_ddr_ucos_bsp/\libucosii_bsp.a(os_time.o)
 .debug_aranges
                0x00001680       0x20 ../mf2_ddr_ucos_bsp/\libucosii_bsp.a(os_tmr.o)
 .debug_aranges
                0x000016a0       0x20 ../mf2_ddr_ucos_bsp/\libucosii_bsp.a(alt_sys_init.o)
 .debug_aranges
                0x000016c0       0x20 ../mf2_ddr_ucos_bsp/\libucosii_bsp.a(altera_avalon_jtag_uart_fd.o)
 .debug_aranges
                0x000016e0       0x20 ../mf2_ddr_ucos_bsp/\libucosii_bsp.a(altera_avalon_jtag_uart_init.o)
 .debug_aranges
                0x00001700       0x20 ../mf2_ddr_ucos_bsp/\libucosii_bsp.a(altera_avalon_jtag_uart_ioctl.o)
 .debug_aranges
                0x00001720       0x20 ../mf2_ddr_ucos_bsp/\libucosii_bsp.a(altera_avalon_jtag_uart_read.o)
 .debug_aranges
                0x00001740       0x20 ../mf2_ddr_ucos_bsp/\libucosii_bsp.a(altera_avalon_jtag_uart_write.o)
 .debug_aranges
                0x00001760       0x20 ../mf2_ddr_ucos_bsp/\libucosii_bsp.a(altera_avalon_spi.o)
 .debug_aranges
                0x00001780       0x20 ../mf2_ddr_ucos_bsp/\libucosii_bsp.a(altera_avalon_timer_sc.o)
 .debug_aranges
                0x000017a0       0x20 ../mf2_ddr_ucos_bsp/\libucosii_bsp.a(alt_alarm_start.o)
 .debug_aranges
                0x000017c0       0x20 ../mf2_ddr_ucos_bsp/\libucosii_bsp.a(alt_busy_sleep.o)
 .debug_aranges
                0x000017e0       0x20 ../mf2_ddr_ucos_bsp/\libucosii_bsp.a(alt_dcache_flush_all.o)
 .debug_aranges
                0x00001800       0x20 ../mf2_ddr_ucos_bsp/\libucosii_bsp.a(alt_dev_llist_insert.o)
 .debug_aranges
                0x00001820       0x20 ../mf2_ddr_ucos_bsp/\libucosii_bsp.a(alt_do_ctors.o)
 .debug_aranges
                0x00001840       0x20 ../mf2_ddr_ucos_bsp/\libucosii_bsp.a(alt_do_dtors.o)
 .debug_aranges
                0x00001860       0x38 ../mf2_ddr_ucos_bsp/\libucosii_bsp.a(alt_exception_entry.o)
 .debug_aranges
                0x00001898       0x20 ../mf2_ddr_ucos_bsp/\libucosii_bsp.a(alt_icache_flush_all.o)
 .debug_aranges
                0x000018b8       0x28 ../mf2_ddr_ucos_bsp/\libucosii_bsp.a(alt_instruction_exception_entry.o)
 .debug_aranges
                0x000018e0       0x20 ../mf2_ddr_ucos_bsp/\libucosii_bsp.a(alt_io_redirect.o)
 .debug_aranges
                0x00001900       0x20 ../mf2_ddr_ucos_bsp/\libucosii_bsp.a(alt_open.o)
 .debug_aranges
                0x00001920       0x20 ../mf2_ddr_ucos_bsp/\libucosii_bsp.a(altera_nios2_irq.o)
 .debug_aranges
                0x00001940       0x20 ../mf2_ddr_ucos_bsp/\libucosii_bsp.a(alt_find_dev.o)
 .debug_aranges
                0x00001960       0x20 ../mf2_ddr_ucos_bsp/\libucosii_bsp.a(alt_find_file.o)
 .debug_aranges
                0x00001980       0x20 ../mf2_ddr_ucos_bsp/\libucosii_bsp.a(alt_get_fd.o)
 .debug_aranges
                0x000019a0       0x20 ../mf2_ddr_ucos_bsp/\libucosii_bsp.a(alt_icache_flush.o)
 .debug_aranges
                0x000019c0       0x20 e:/altera/10.1/nios2eds/bin/gnu/h-i686-mingw32/bin/../lib/gcc/nios2-elf/4.1.2/../../../../nios2-elf/lib\libc.a(lib_a-atexit.o)
 .debug_aranges
                0x000019e0       0x20 e:/altera/10.1/nios2eds/bin/gnu/h-i686-mingw32/bin/../lib/gcc/nios2-elf/4.1.2/../../../../nios2-elf/lib\libc.a(lib_a-exit.o)
 .debug_aranges
                0x00001a00       0x20 e:/altera/10.1/nios2eds/bin/gnu/h-i686-mingw32/bin/../lib/gcc/nios2-elf/4.1.2/../../../../nios2-elf/lib\libc.a(lib_a-memcmp.o)
 .debug_aranges
                0x00001a20       0x20 e:/altera/10.1/nios2eds/bin/gnu/h-i686-mingw32/bin/../lib/gcc/nios2-elf/4.1.2/../../../../nios2-elf/lib\libc.a(lib_a-__atexit.o)
 .debug_aranges
                0x00001a40       0x20 e:/altera/10.1/nios2eds/bin/gnu/h-i686-mingw32/bin/../lib/gcc/nios2-elf/4.1.2/../../../../nios2-elf/lib\libc.a(lib_a-__call_atexit.o)

.debug_pubnames
                0x00000000     0x7e9e
 *(.debug_pubnames)
 .debug_pubnames
                0x00000000       0x32 obj/alt-irq-handler.o
 .debug_pubnames
                0x00000032       0x77 obj/dbg_helper.o
 .debug_pubnames
                0x000000a9      0x144 obj/ddc_helper.o
 .debug_pubnames
                0x000001ed       0x21 obj/dynedid.o
 .debug_pubnames
                0x0000020e      0x2ef obj/ee_helper.o
 .debug_pubnames
                0x000004fd      0x10b obj/fifo_helper.o
 .debug_pubnames
                0x00000608       0x45 obj/i2c_master.o
 .debug_pubnames
                0x0000064d       0x1b obj/main.o
 .debug_pubnames
                0x00000668      0x1e7 obj/os-support.o
 .debug_pubnames
                0x0000084f       0x8c obj/os_bsem.o
 .debug_pubnames
                0x000008db       0xbb obj/os_cpu_c.o
 .debug_pubnames
                0x00000996       0xb8 obj/os_sem.o
 .debug_pubnames
                0x00000a4e       0x3e obj/ow.o
 .debug_pubnames
                0x00000a8c       0x64 obj/pll_helper.o
 .debug_pubnames
                0x00000af0       0xd5 obj/sys-base.o
 .debug_pubnames
                0x00000bc5       0x2f obj/touchcon.o
 .debug_pubnames
                0x00000bf4       0xb3 obj/ts_helper.o
 .debug_pubnames
                0x00000ca7       0xce obj/tvp7002_helper.o
 .debug_pubnames
                0x00000d75       0x40 obj/uhe.o
 .debug_pubnames
                0x00000db5       0xed obj/usb/bsd-bus-dma.o
 .debug_pubnames
                0x00000ea2      0x3e7 obj/usb/bsd-wrap.o
 .debug_pubnames
                0x00001289      0x70c obj/usb/bus_if.o
 .debug_pubnames
                0x00001995      0x1dc obj/usb/device_if.o
 .debug_pubnames
                0x00001b71      0x1db obj/usb/ehci.o
 .debug_pubnames
                0x00001d4c       0xd1 obj/usb/ehci_oxu210.o
 .debug_pubnames
                0x00001e1d       0x21 obj/usb/init_main.o
 .debug_pubnames
                0x00001e3e       0x32 obj/usb/kern_linker.o
 .debug_pubnames
                0x00001e70       0xb2 obj/usb/kern_module.o
 .debug_pubnames
                0x00001f22      0x2df obj/usb/kern_sysctl.o
 .debug_pubnames
                0x00002201       0x9a obj/usb/oxu210-alloc.o
 .debug_pubnames
                0x0000229b       0x40 obj/usb/oxu210-intr.o
 .debug_pubnames
                0x000022db      0x181 obj/usb/pdev.o
 .debug_pubnames
                0x0000245c       0x69 obj/usb/s5a-autoconf.o
 .debug_pubnames
                0x000024c5      0xa6e obj/usb/subr_bus.o
 .debug_pubnames
                0x00002f33       0xeb obj/usb/subr_kobj.o
 .debug_pubnames
                0x0000301e       0x95 obj/usb/subr_uio.o
 .debug_pubnames
                0x000030b3       0x33 obj/usb/tc-mtouch.o
 .debug_pubnames
                0x000030e6       0x33 obj/usb/tc-zytronic.o
 .debug_pubnames
                0x00003119       0x4f obj/usb/tc.o
 .debug_pubnames
                0x00003168       0x33 obj/usb/ums.o
 .debug_pubnames
                0x0000319b      0x199 obj/usb/usb_busdma.o
 .debug_pubnames
                0x00003334       0xd1 obj/usb/usb_controller.o
 .debug_pubnames
                0x00003405       0x82 obj/usb/usb_debug.o
 .debug_pubnames
                0x00003487      0x3e9 obj/usb/usb_device.o
 .debug_pubnames
                0x00003870       0xdb obj/usb/usb_dynamic.o
 .debug_pubnames
                0x0000394b       0x22 obj/usb/usb_error.o
 .debug_pubnames
                0x0000396d       0x32 obj/usb/usb_handle_request.o
 .debug_pubnames
                0x0000399f       0xe7 obj/usb/usb_hid.o
 .debug_pubnames
                0x00003a86      0x21d obj/usb/usb_hub.o
 .debug_pubnames
                0x00003ca3       0x54 obj/usb/usb_if.o
 .debug_pubnames
                0x00003cf7       0x9c obj/usb/usb_parse.o
 .debug_pubnames
                0x00003d93       0xaa obj/usb/usb_process.o
 .debug_pubnames
                0x00003e3d      0x479 obj/usb/usb_request.o
 .debug_pubnames
                0x000042b6       0x66 obj/usb/usb_s5a.o
 .debug_pubnames
                0x0000431c      0x4b8 obj/usb/usb_transfer.o
 .debug_pubnames
                0x000047d4       0x96 obj/usb/usb_util.o
 .debug_pubnames
                0x0000486a      0x187 obj/usb/usbdev_oxu210.o
 .debug_pubnames
                0x000049f1       0x1f obj/usb_helper.o
 .debug_pubnames
                0x00004a10      0x260 obj/video_helper.o
 .debug_pubnames
                0x00004c70      0x2fd obj/vip_helper.o
 .debug_pubnames
                0x00004f6d       0x45 e:/altera/10.1/nios2eds/bin/gnu/h-i686-mingw32/bin/../lib/gcc/nios2-elf/4.1.2/../../../../nios2-elf/lib\libstdc++.a(eh_personality.o)
 .debug_pubnames
                0x00004fb2       0x43 e:/altera/10.1/nios2eds/bin/gnu/h-i686-mingw32/bin/../lib/gcc/nios2-elf/4.1.2/../../../../nios2-elf/lib\libstdc++.a(eh_globals.o)
 .debug_pubnames
                0x00004ff5       0x34 e:/altera/10.1/nios2eds/bin/gnu/h-i686-mingw32/bin/../lib/gcc/nios2-elf/4.1.2/../../../../nios2-elf/lib\libstdc++.a(eh_throw.o)
 .debug_pubnames
                0x00005029       0x2b e:/altera/10.1/nios2eds/bin/gnu/h-i686-mingw32/bin/../lib/gcc/nios2-elf/4.1.2/../../../../nios2-elf/lib\libstdc++.a(eh_call.o)
 .debug_pubnames
                0x00005054       0x6f e:/altera/10.1/nios2eds/bin/gnu/h-i686-mingw32/bin/../lib/gcc/nios2-elf/4.1.2/../../../../nios2-elf/lib\libstdc++.a(eh_catch.o)
 .debug_pubnames
                0x000050c3       0xfd e:/altera/10.1/nios2eds/bin/gnu/h-i686-mingw32/bin/../lib/gcc/nios2-elf/4.1.2/../../../../nios2-elf/lib\libstdc++.a(eh_exception.o)
 .debug_pubnames
                0x000051c0       0x75 e:/altera/10.1/nios2eds/bin/gnu/h-i686-mingw32/bin/../lib/gcc/nios2-elf/4.1.2/../../../../nios2-elf/lib\libstdc++.a(eh_terminate.o)
 .debug_pubnames
                0x00005235      0x166 e:/altera/10.1/nios2eds/bin/gnu/h-i686-mingw32/bin/../lib/gcc/nios2-elf/4.1.2/../../../../nios2-elf/lib\libstdc++.a(si_class_type_info.o)
 .debug_pubnames
                0x0000539b       0x48 e:/altera/10.1/nios2eds/bin/gnu/h-i686-mingw32/bin/../lib/gcc/nios2-elf/4.1.2/../../../../nios2-elf/lib\libstdc++.a(eh_alloc.o)
 .debug_pubnames
                0x000053e3       0x2a e:/altera/10.1/nios2eds/bin/gnu/h-i686-mingw32/bin/../lib/gcc/nios2-elf/4.1.2/../../../../nios2-elf/lib\libstdc++.a(eh_term_handler.o)
 .debug_pubnames
                0x0000540d       0xf5 e:/altera/10.1/nios2eds/bin/gnu/h-i686-mingw32/bin/../lib/gcc/nios2-elf/4.1.2/../../../../nios2-elf/lib\libstdc++.a(tinfo.o)
 .debug_pubnames
                0x00005502       0x26 e:/altera/10.1/nios2eds/bin/gnu/h-i686-mingw32/bin/../lib/gcc/nios2-elf/4.1.2/../../../../nios2-elf/lib\libstdc++.a(del_op.o)
 .debug_pubnames
                0x00005528      0x1a8 e:/altera/10.1/nios2eds/bin/gnu/h-i686-mingw32/bin/../lib/gcc/nios2-elf/4.1.2/../../../../nios2-elf/lib\libstdc++.a(class_type_info.o)
 .debug_pubnames
                0x000056d0       0x2b e:/altera/10.1/nios2eds/bin/gnu/h-i686-mingw32/bin/../lib/gcc/nios2-elf/4.1.2/../../../../nios2-elf/lib\libstdc++.a(eh_unex_handler.o)
 .debug_pubnames
                0x000056fb       0x1f e:/altera/10.1/nios2eds/bin/gnu/h-i686-mingw32/bin/../lib/gcc/nios2-elf/4.1.2\libgcc.a(_muldi3.o)
 .debug_pubnames
                0x0000571a       0x23 e:/altera/10.1/nios2eds/bin/gnu/h-i686-mingw32/bin/../lib/gcc/nios2-elf/4.1.2\libgcc.a(_fixunsdfsi.o)
 .debug_pubnames
                0x0000573d       0x22 e:/altera/10.1/nios2eds/bin/gnu/h-i686-mingw32/bin/../lib/gcc/nios2-elf/4.1.2\libgcc.a(_floatdidf.o)
 .debug_pubnames
                0x0000575f       0x1f e:/altera/10.1/nios2eds/bin/gnu/h-i686-mingw32/bin/../lib/gcc/nios2-elf/4.1.2\libgcc.a(_divdi3.o)
 .debug_pubnames
                0x0000577e       0x2c e:/altera/10.1/nios2eds/bin/gnu/h-i686-mingw32/bin/../lib/gcc/nios2-elf/4.1.2\libgcc.a(_addsub_df.o)
 .debug_pubnames
                0x000057aa       0x1f e:/altera/10.1/nios2eds/bin/gnu/h-i686-mingw32/bin/../lib/gcc/nios2-elf/4.1.2\libgcc.a(_mul_df.o)
 .debug_pubnames
                0x000057c9       0x1f e:/altera/10.1/nios2eds/bin/gnu/h-i686-mingw32/bin/../lib/gcc/nios2-elf/4.1.2\libgcc.a(_div_df.o)
 .debug_pubnames
                0x000057e8       0x1e e:/altera/10.1/nios2eds/bin/gnu/h-i686-mingw32/bin/../lib/gcc/nios2-elf/4.1.2\libgcc.a(_ne_df.o)
 .debug_pubnames
                0x00005806       0x1e e:/altera/10.1/nios2eds/bin/gnu/h-i686-mingw32/bin/../lib/gcc/nios2-elf/4.1.2\libgcc.a(_ge_df.o)
 .debug_pubnames
                0x00005824       0x22 e:/altera/10.1/nios2eds/bin/gnu/h-i686-mingw32/bin/../lib/gcc/nios2-elf/4.1.2\libgcc.a(_si_to_df.o)
 .debug_pubnames
                0x00005846       0x20 e:/altera/10.1/nios2eds/bin/gnu/h-i686-mingw32/bin/../lib/gcc/nios2-elf/4.1.2\libgcc.a(_df_to_si.o)
 .debug_pubnames
                0x00005866       0x22 e:/altera/10.1/nios2eds/bin/gnu/h-i686-mingw32/bin/../lib/gcc/nios2-elf/4.1.2\libgcc.a(_thenan_df.o)
 .debug_pubnames
                0x00005888       0x24 e:/altera/10.1/nios2eds/bin/gnu/h-i686-mingw32/bin/../lib/gcc/nios2-elf/4.1.2\libgcc.a(_usi_to_df.o)
 .debug_pubnames
                0x000058ac       0x48 e:/altera/10.1/nios2eds/bin/gnu/h-i686-mingw32/bin/../lib/gcc/nios2-elf/4.1.2\libgcc.a(lib2-divmod.o)
 .debug_pubnames
                0x000058f4      0x1c7 e:/altera/10.1/nios2eds/bin/gnu/h-i686-mingw32/bin/../lib/gcc/nios2-elf/4.1.2\libgcc.a(unwind-dw2.o)
 .debug_pubnames
                0x00005abb      0x12c e:/altera/10.1/nios2eds/bin/gnu/h-i686-mingw32/bin/../lib/gcc/nios2-elf/4.1.2\libgcc.a(unwind-dw2-fde.o)
 .debug_pubnames
                0x00005be7       0x20 e:/altera/10.1/nios2eds/bin/gnu/h-i686-mingw32/bin/../lib/gcc/nios2-elf/4.1.2\libgcc.a(_clz.o)
 .debug_pubnames
                0x00005c07       0x1f e:/altera/10.1/nios2eds/bin/gnu/h-i686-mingw32/bin/../lib/gcc/nios2-elf/4.1.2\libgcc.a(_clzsi2.o)
 .debug_pubnames
                0x00005c26       0x1f e:/altera/10.1/nios2eds/bin/gnu/h-i686-mingw32/bin/../lib/gcc/nios2-elf/4.1.2\libgcc.a(_pack_df.o)
 .debug_pubnames
                0x00005c45       0x21 e:/altera/10.1/nios2eds/bin/gnu/h-i686-mingw32/bin/../lib/gcc/nios2-elf/4.1.2\libgcc.a(_unpack_df.o)
 .debug_pubnames
                0x00005c66       0x26 e:/altera/10.1/nios2eds/bin/gnu/h-i686-mingw32/bin/../lib/gcc/nios2-elf/4.1.2\libgcc.a(_fpcmp_parts_df.o)
 .debug_pubnames
                0x00005c8c       0x1c e:/altera/10.1/nios2eds/bin/gnu/h-i686-mingw32/bin/../lib/gcc/nios2-elf/4.1.2/../../../../nios2-elf/lib\libc.a(lib_a-abort.o)
 .debug_pubnames
                0x00005ca8       0x1c e:/altera/10.1/nios2eds/bin/gnu/h-i686-mingw32/bin/../lib/gcc/nios2-elf/4.1.2/../../../../nios2-elf/lib\libc.a(lib_a-bcopy.o)
 .debug_pubnames
                0x00005cc4       0x2e e:/altera/10.1/nios2eds/bin/gnu/h-i686-mingw32/bin/../lib/gcc/nios2-elf/4.1.2/../../../../nios2-elf/lib\libc.a(lib_a-ctype_.o)
 .debug_pubnames
                0x00005cf2       0x26 e:/altera/10.1/nios2eds/bin/gnu/h-i686-mingw32/bin/../lib/gcc/nios2-elf/4.1.2/../../../../nios2-elf/lib\libc.a(lib_a-malloc.o)
 .debug_pubnames
                0x00005d18       0xce e:/altera/10.1/nios2eds/bin/gnu/h-i686-mingw32/bin/../lib/gcc/nios2-elf/4.1.2/../../../../nios2-elf/lib\libc.a(lib_a-mallocr.o)
 .debug_pubnames
                0x00005de6       0x1d e:/altera/10.1/nios2eds/bin/gnu/h-i686-mingw32/bin/../lib/gcc/nios2-elf/4.1.2/../../../../nios2-elf/lib\libc.a(lib_a-memcpy.o)
 .debug_pubnames
                0x00005e03       0x1e e:/altera/10.1/nios2eds/bin/gnu/h-i686-mingw32/bin/../lib/gcc/nios2-elf/4.1.2/../../../../nios2-elf/lib\libc.a(lib_a-memmove.o)
 .debug_pubnames
                0x00005e21       0x1d e:/altera/10.1/nios2eds/bin/gnu/h-i686-mingw32/bin/../lib/gcc/nios2-elf/4.1.2/../../../../nios2-elf/lib\libc.a(lib_a-memset.o)
 .debug_pubnames
                0x00005e3e       0x2b e:/altera/10.1/nios2eds/bin/gnu/h-i686-mingw32/bin/../lib/gcc/nios2-elf/4.1.2/../../../../nios2-elf/lib\libc.a(lib_a-printf.o)
 .debug_pubnames
                0x00005e69       0x2d e:/altera/10.1/nios2eds/bin/gnu/h-i686-mingw32/bin/../lib/gcc/nios2-elf/4.1.2/../../../../nios2-elf/lib\libc.a(lib_a-putchar.o)
 .debug_pubnames
                0x00005e96       0x27 e:/altera/10.1/nios2eds/bin/gnu/h-i686-mingw32/bin/../lib/gcc/nios2-elf/4.1.2/../../../../nios2-elf/lib\libc.a(lib_a-puts.o)
 .debug_pubnames
                0x00005ebd       0x25 e:/altera/10.1/nios2eds/bin/gnu/h-i686-mingw32/bin/../lib/gcc/nios2-elf/4.1.2/../../../../nios2-elf/lib\libc.a(lib_a-rand.o)
 .debug_pubnames
                0x00005ee2       0x1e e:/altera/10.1/nios2eds/bin/gnu/h-i686-mingw32/bin/../lib/gcc/nios2-elf/4.1.2/../../../../nios2-elf/lib\libc.a(lib_a-sbrkr.o)
 .debug_pubnames
                0x00005f00       0x86 e:/altera/10.1/nios2eds/bin/gnu/h-i686-mingw32/bin/../lib/gcc/nios2-elf/4.1.2/../../../../nios2-elf/lib\libc.a(lib_a-signal.o)
 .debug_pubnames
                0x00005f86       0x2c e:/altera/10.1/nios2eds/bin/gnu/h-i686-mingw32/bin/../lib/gcc/nios2-elf/4.1.2/../../../../nios2-elf/lib\libc.a(lib_a-signalr.o)
 .debug_pubnames
                0x00005fb2       0x2f e:/altera/10.1/nios2eds/bin/gnu/h-i686-mingw32/bin/../lib/gcc/nios2-elf/4.1.2/../../../../nios2-elf/lib\libc.a(lib_a-snprintf.o)
 .debug_pubnames
                0x00005fe1       0x2d e:/altera/10.1/nios2eds/bin/gnu/h-i686-mingw32/bin/../lib/gcc/nios2-elf/4.1.2/../../../../nios2-elf/lib\libc.a(lib_a-sprintf.o)
 .debug_pubnames
                0x0000600e       0x1d e:/altera/10.1/nios2eds/bin/gnu/h-i686-mingw32/bin/../lib/gcc/nios2-elf/4.1.2/../../../../nios2-elf/lib\libc.a(lib_a-strcmp.o)
 .debug_pubnames
                0x0000602b       0x1d e:/altera/10.1/nios2eds/bin/gnu/h-i686-mingw32/bin/../lib/gcc/nios2-elf/4.1.2/../../../../nios2-elf/lib\libc.a(lib_a-strcpy.o)
 .debug_pubnames
                0x00006048       0x1d e:/altera/10.1/nios2eds/bin/gnu/h-i686-mingw32/bin/../lib/gcc/nios2-elf/4.1.2/../../../../nios2-elf/lib\libc.a(lib_a-strdup.o)
 .debug_pubnames
                0x00006065       0x20 e:/altera/10.1/nios2eds/bin/gnu/h-i686-mingw32/bin/../lib/gcc/nios2-elf/4.1.2/../../../../nios2-elf/lib\libc.a(lib_a-strdup_r.o)
 .debug_pubnames
                0x00006085       0x1e e:/altera/10.1/nios2eds/bin/gnu/h-i686-mingw32/bin/../lib/gcc/nios2-elf/4.1.2/../../../../nios2-elf/lib\libc.a(lib_a-strlcpy.o)
 .debug_pubnames
                0x000060a3       0x1d e:/altera/10.1/nios2eds/bin/gnu/h-i686-mingw32/bin/../lib/gcc/nios2-elf/4.1.2/../../../../nios2-elf/lib\libc.a(lib_a-strlen.o)
 .debug_pubnames
                0x000060c0       0x1e e:/altera/10.1/nios2eds/bin/gnu/h-i686-mingw32/bin/../lib/gcc/nios2-elf/4.1.2/../../../../nios2-elf/lib\libc.a(lib_a-strncpy.o)
 .debug_pubnames
                0x000060de       0x1e e:/altera/10.1/nios2eds/bin/gnu/h-i686-mingw32/bin/../lib/gcc/nios2-elf/4.1.2/../../../../nios2-elf/lib\libc.a(lib_a-strnlen.o)
 .debug_pubnames
                0x000060fc       0x45 e:/altera/10.1/nios2eds/bin/gnu/h-i686-mingw32/bin/../lib/gcc/nios2-elf/4.1.2/../../../../nios2-elf/lib\libc.a(lib_a-vfprintf.o)
 .debug_pubnames
                0x00006141       0x2d e:/altera/10.1/nios2eds/bin/gnu/h-i686-mingw32/bin/../lib/gcc/nios2-elf/4.1.2/../../../../nios2-elf/lib\libc.a(lib_a-vprintf.o)
 .debug_pubnames
                0x0000616e       0x31 e:/altera/10.1/nios2eds/bin/gnu/h-i686-mingw32/bin/../lib/gcc/nios2-elf/4.1.2/../../../../nios2-elf/lib\libc.a(lib_a-vsnprintf.o)
 .debug_pubnames
                0x0000619f       0x2f e:/altera/10.1/nios2eds/bin/gnu/h-i686-mingw32/bin/../lib/gcc/nios2-elf/4.1.2/../../../../nios2-elf/lib\libc.a(lib_a-vsprintf.o)
 .debug_pubnames
                0x000061ce       0x22 e:/altera/10.1/nios2eds/bin/gnu/h-i686-mingw32/bin/../lib/gcc/nios2-elf/4.1.2/../../../../nios2-elf/lib\libc.a(lib_a-wsetup.o)
 .debug_pubnames
                0x000061f0       0x1e e:/altera/10.1/nios2eds/bin/gnu/h-i686-mingw32/bin/../lib/gcc/nios2-elf/4.1.2/../../../../nios2-elf/lib\libc.a(lib_a-dtoa.o)
 .debug_pubnames
                0x0000620e       0x2b e:/altera/10.1/nios2eds/bin/gnu/h-i686-mingw32/bin/../lib/gcc/nios2-elf/4.1.2/../../../../nios2-elf/lib\libc.a(lib_a-fflush.o)
 .debug_pubnames
                0x00006239       0xdb e:/altera/10.1/nios2eds/bin/gnu/h-i686-mingw32/bin/../lib/gcc/nios2-elf/4.1.2/../../../../nios2-elf/lib\libc.a(lib_a-findfp.o)
 .debug_pubnames
                0x00006314       0x31 e:/altera/10.1/nios2eds/bin/gnu/h-i686-mingw32/bin/../lib/gcc/nios2-elf/4.1.2/../../../../nios2-elf/lib\libc.a(lib_a-freer.o)
 .debug_pubnames
                0x00006345       0x23 e:/altera/10.1/nios2eds/bin/gnu/h-i686-mingw32/bin/../lib/gcc/nios2-elf/4.1.2/../../../../nios2-elf/lib\libc.a(lib_a-fvwrite.o)
 .debug_pubnames
                0x00006368       0x2e e:/altera/10.1/nios2eds/bin/gnu/h-i686-mingw32/bin/../lib/gcc/nios2-elf/4.1.2/../../../../nios2-elf/lib\libc.a(lib_a-fwalk.o)
 .debug_pubnames
                0x00006396       0x39 e:/altera/10.1/nios2eds/bin/gnu/h-i686-mingw32/bin/../lib/gcc/nios2-elf/4.1.2/../../../../nios2-elf/lib\libc.a(lib_a-impure.o)
 .debug_pubnames
                0x000063cf       0x1c e:/altera/10.1/nios2eds/bin/gnu/h-i686-mingw32/bin/../lib/gcc/nios2-elf/4.1.2/../../../../nios2-elf/lib\libc.a(lib_a-int_errno.o)
 .debug_pubnames
                0x000063eb       0xc3 e:/altera/10.1/nios2eds/bin/gnu/h-i686-mingw32/bin/../lib/gcc/nios2-elf/4.1.2/../../../../nios2-elf/lib\libc.a(lib_a-locale.o)
 .debug_pubnames
                0x000064ae       0x23 e:/altera/10.1/nios2eds/bin/gnu/h-i686-mingw32/bin/../lib/gcc/nios2-elf/4.1.2/../../../../nios2-elf/lib\libc.a(lib_a-makebuf.o)
 .debug_pubnames
                0x000064d1       0x1d e:/altera/10.1/nios2eds/bin/gnu/h-i686-mingw32/bin/../lib/gcc/nios2-elf/4.1.2/../../../../nios2-elf/lib\libc.a(lib_a-memchr.o)
 .debug_pubnames
                0x000064ee      0x13a e:/altera/10.1/nios2eds/bin/gnu/h-i686-mingw32/bin/../lib/gcc/nios2-elf/4.1.2/../../../../nios2-elf/lib\libc.a(lib_a-mprec.o)
 .debug_pubnames
                0x00006628       0x27 e:/altera/10.1/nios2eds/bin/gnu/h-i686-mingw32/bin/../lib/gcc/nios2-elf/4.1.2/../../../../nios2-elf/lib\libc.a(lib_a-putc.o)
 .debug_pubnames
                0x0000664f       0x21 e:/altera/10.1/nios2eds/bin/gnu/h-i686-mingw32/bin/../lib/gcc/nios2-elf/4.1.2/../../../../nios2-elf/lib\libc.a(lib_a-reallocr.o)
 .debug_pubnames
                0x00006670       0x1f e:/altera/10.1/nios2eds/bin/gnu/h-i686-mingw32/bin/../lib/gcc/nios2-elf/4.1.2/../../../../nios2-elf/lib\libc.a(lib_a-s_isinfd.o)
 .debug_pubnames
                0x0000668f       0x1f e:/altera/10.1/nios2eds/bin/gnu/h-i686-mingw32/bin/../lib/gcc/nios2-elf/4.1.2/../../../../nios2-elf/lib\libc.a(lib_a-s_isnand.o)
 .debug_pubnames
                0x000066ae       0x44 e:/altera/10.1/nios2eds/bin/gnu/h-i686-mingw32/bin/../lib/gcc/nios2-elf/4.1.2/../../../../nios2-elf/lib\libc.a(lib_a-stdio.o)
 .debug_pubnames
                0x000066f2       0x2c e:/altera/10.1/nios2eds/bin/gnu/h-i686-mingw32/bin/../lib/gcc/nios2-elf/4.1.2/../../../../nios2-elf/lib\libc.a(lib_a-wbuf.o)
 .debug_pubnames
                0x0000671e       0x1f e:/altera/10.1/nios2eds/bin/gnu/h-i686-mingw32/bin/../lib/gcc/nios2-elf/4.1.2/../../../../nios2-elf/lib\libc.a(lib_a-writer.o)
 .debug_pubnames
                0x0000673d       0x20 e:/altera/10.1/nios2eds/bin/gnu/h-i686-mingw32/bin/../lib/gcc/nios2-elf/4.1.2/../../../../nios2-elf/lib\libc.a(lib_a-callocr.o)
 .debug_pubnames
                0x0000675d       0x1f e:/altera/10.1/nios2eds/bin/gnu/h-i686-mingw32/bin/../lib/gcc/nios2-elf/4.1.2/../../../../nios2-elf/lib\libc.a(lib_a-closer.o)
 .debug_pubnames
                0x0000677c       0x2b e:/altera/10.1/nios2eds/bin/gnu/h-i686-mingw32/bin/../lib/gcc/nios2-elf/4.1.2/../../../../nios2-elf/lib\libc.a(lib_a-fclose.o)
 .debug_pubnames
                0x000067a7       0x1f e:/altera/10.1/nios2eds/bin/gnu/h-i686-mingw32/bin/../lib/gcc/nios2-elf/4.1.2/../../../../nios2-elf/lib\libc.a(lib_a-fstatr.o)
 .debug_pubnames
                0x000067c6       0x20 e:/altera/10.1/nios2eds/bin/gnu/h-i686-mingw32/bin/../lib/gcc/nios2-elf/4.1.2/../../../../nios2-elf/lib\libc.a(lib_a-isattyr.o)
 .debug_pubnames
                0x000067e6       0x1f e:/altera/10.1/nios2eds/bin/gnu/h-i686-mingw32/bin/../lib/gcc/nios2-elf/4.1.2/../../../../nios2-elf/lib\libc.a(lib_a-lseekr.o)
 .debug_pubnames
                0x00006805       0x1e e:/altera/10.1/nios2eds/bin/gnu/h-i686-mingw32/bin/../lib/gcc/nios2-elf/4.1.2/../../../../nios2-elf/lib\libc.a(lib_a-readr.o)
 .debug_pubnames
                0x00006823       0x20 e:/altera/10.1/nios2eds/bin/gnu/h-i686-mingw32/bin/../lib/gcc/nios2-elf/4.1.2\libgcc.a(_udivdi3.o)
 .debug_pubnames
                0x00006843       0x20 e:/altera/10.1/nios2eds/bin/gnu/h-i686-mingw32/bin/../lib/gcc/nios2-elf/4.1.2\libgcc.a(_umoddi3.o)
 .debug_pubnames
                0x00006863       0x1e e:/altera/10.1/nios2eds/bin/gnu/h-i686-mingw32/bin/../lib/gcc/nios2-elf/4.1.2\libgcc.a(_eq_df.o)
 .debug_pubnames
                0x00006881       0x1e e:/altera/10.1/nios2eds/bin/gnu/h-i686-mingw32/bin/../lib/gcc/nios2-elf/4.1.2\libgcc.a(_gt_df.o)
 .debug_pubnames
                0x0000689f       0x1e e:/altera/10.1/nios2eds/bin/gnu/h-i686-mingw32/bin/../lib/gcc/nios2-elf/4.1.2\libgcc.a(_lt_df.o)
 .debug_pubnames
                0x000068bd       0x1c ../mf2_ddr_ucos_bsp/\libucosii_bsp.a(alt_close.o)
 .debug_pubnames
                0x000068d9       0x78 ../mf2_ddr_ucos_bsp/\libucosii_bsp.a(alt_dev.o)
 .debug_pubnames
                0x00006951       0x20 ../mf2_ddr_ucos_bsp/\libucosii_bsp.a(alt_errno.o)
 .debug_pubnames
                0x00006971       0x1c ../mf2_ddr_ucos_bsp/\libucosii_bsp.a(alt_exit.o)
 .debug_pubnames
                0x0000698d       0x1c ../mf2_ddr_ucos_bsp/\libucosii_bsp.a(alt_fstat.o)
 .debug_pubnames
                0x000069a9       0x1d ../mf2_ddr_ucos_bsp/\libucosii_bsp.a(alt_getpid.o)
 .debug_pubnames
                0x000069c6       0x6e ../mf2_ddr_ucos_bsp/\libucosii_bsp.a(alt_iic.o)
 .debug_pubnames
                0x00006a34       0x2b ../mf2_ddr_ucos_bsp/\libucosii_bsp.a(alt_iic_isr_register.o)
 .debug_pubnames
                0x00006a5f       0x39 ../mf2_ddr_ucos_bsp/\libucosii_bsp.a(alt_instruction_exception_register.o)
 .debug_pubnames
                0x00006a98       0x3b ../mf2_ddr_ucos_bsp/\libucosii_bsp.a(alt_irq_vars.o)
 .debug_pubnames
                0x00006ad3       0x1d ../mf2_ddr_ucos_bsp/\libucosii_bsp.a(alt_isatty.o)
 .debug_pubnames
                0x00006af0       0x1b ../mf2_ddr_ucos_bsp/\libucosii_bsp.a(alt_kill.o)
 .debug_pubnames
                0x00006b0b       0x1f ../mf2_ddr_ucos_bsp/\libucosii_bsp.a(alt_load.o)
 .debug_pubnames
                0x00006b2a       0x1c ../mf2_ddr_ucos_bsp/\libucosii_bsp.a(alt_lseek.o)
 .debug_pubnames
                0x00006b46       0x46 ../mf2_ddr_ucos_bsp/\libucosii_bsp.a(alt_main.o)
 .debug_pubnames
                0x00006b8c       0x1b ../mf2_ddr_ucos_bsp/\libucosii_bsp.a(alt_read.o)
 .debug_pubnames
                0x00006ba7       0x25 ../mf2_ddr_ucos_bsp/\libucosii_bsp.a(alt_release_fd.o)
 .debug_pubnames
                0x00006bcc       0x1b ../mf2_ddr_ucos_bsp/\libucosii_bsp.a(alt_sbrk.o)
 .debug_pubnames
                0x00006be7       0x68 ../mf2_ddr_ucos_bsp/\libucosii_bsp.a(alt_tick.o)
 .debug_pubnames
                0x00006c4f       0x1d ../mf2_ddr_ucos_bsp/\libucosii_bsp.a(alt_usleep.o)
 .debug_pubnames
                0x00006c6c       0x1c ../mf2_ddr_ucos_bsp/\libucosii_bsp.a(alt_write.o)
 .debug_pubnames
                0x00006c88       0x41 ../mf2_ddr_ucos_bsp/\libucosii_bsp.a(alt_env_lock.o)
 .debug_pubnames
                0x00006cc9       0x48 ../mf2_ddr_ucos_bsp/\libucosii_bsp.a(alt_malloc_lock.o)
 .debug_pubnames
                0x00006d11      0x484 ../mf2_ddr_ucos_bsp/\libucosii_bsp.a(os_core.o)
 .debug_pubnames
                0x00007195      0x3c5 ../mf2_ddr_ucos_bsp/\libucosii_bsp.a(os_dbg.o)
 .debug_pubnames
                0x0000755a       0xd0 ../mf2_ddr_ucos_bsp/\libucosii_bsp.a(os_flag.o)
 .debug_pubnames
                0x0000762a       0x7c ../mf2_ddr_ucos_bsp/\libucosii_bsp.a(os_mem.o)
 .debug_pubnames
                0x000076a6       0xa9 ../mf2_ddr_ucos_bsp/\libucosii_bsp.a(os_q.o)
 .debug_pubnames
                0x0000774f       0xe5 ../mf2_ddr_ucos_bsp/\libucosii_bsp.a(os_task.o)
 .debug_pubnames
                0x00007834       0x62 ../mf2_ddr_ucos_bsp/\libucosii_bsp.a(os_time.o)
 .debug_pubnames
                0x00007896       0xa1 ../mf2_ddr_ucos_bsp/\libucosii_bsp.a(os_tmr.o)
 .debug_pubnames
                0x00007937       0x34 ../mf2_ddr_ucos_bsp/\libucosii_bsp.a(alt_sys_init.o)
 .debug_pubnames
                0x0000796b       0xa5 ../mf2_ddr_ucos_bsp/\libucosii_bsp.a(altera_avalon_jtag_uart_fd.o)
 .debug_pubnames
                0x00007a10       0x55 ../mf2_ddr_ucos_bsp/\libucosii_bsp.a(altera_avalon_jtag_uart_init.o)
 .debug_pubnames
                0x00007a65       0x34 ../mf2_ddr_ucos_bsp/\libucosii_bsp.a(altera_avalon_jtag_uart_ioctl.o)
 .debug_pubnames
                0x00007a99       0x33 ../mf2_ddr_ucos_bsp/\libucosii_bsp.a(altera_avalon_jtag_uart_read.o)
 .debug_pubnames
                0x00007acc       0x34 ../mf2_ddr_ucos_bsp/\libucosii_bsp.a(altera_avalon_jtag_uart_write.o)
 .debug_pubnames
                0x00007b00       0x2d ../mf2_ddr_ucos_bsp/\libucosii_bsp.a(altera_avalon_spi.o)
 .debug_pubnames
                0x00007b2d       0x2f ../mf2_ddr_ucos_bsp/\libucosii_bsp.a(altera_avalon_timer_sc.o)
 .debug_pubnames
                0x00007b5c       0x26 ../mf2_ddr_ucos_bsp/\libucosii_bsp.a(alt_alarm_start.o)
 .debug_pubnames
                0x00007b82       0x25 ../mf2_ddr_ucos_bsp/\libucosii_bsp.a(alt_busy_sleep.o)
 .debug_pubnames
                0x00007ba7       0x2b ../mf2_ddr_ucos_bsp/\libucosii_bsp.a(alt_dcache_flush_all.o)
 .debug_pubnames
                0x00007bd2       0x2b ../mf2_ddr_ucos_bsp/\libucosii_bsp.a(alt_dev_llist_insert.o)
 .debug_pubnames
                0x00007bfd       0x20 ../mf2_ddr_ucos_bsp/\libucosii_bsp.a(alt_do_ctors.o)
 .debug_pubnames
                0x00007c1d       0x20 ../mf2_ddr_ucos_bsp/\libucosii_bsp.a(alt_do_dtors.o)
 .debug_pubnames
                0x00007c3d       0x2b ../mf2_ddr_ucos_bsp/\libucosii_bsp.a(alt_icache_flush_all.o)
 .debug_pubnames
                0x00007c68       0x87 ../mf2_ddr_ucos_bsp/\libucosii_bsp.a(alt_instruction_exception_entry.o)
 .debug_pubnames
                0x00007cef       0x26 ../mf2_ddr_ucos_bsp/\libucosii_bsp.a(alt_io_redirect.o)
 .debug_pubnames
                0x00007d15       0x1b ../mf2_ddr_ucos_bsp/\libucosii_bsp.a(alt_open.o)
 .debug_pubnames
                0x00007d30       0x2c ../mf2_ddr_ucos_bsp/\libucosii_bsp.a(altera_nios2_irq.o)
 .debug_pubnames
                0x00007d5c       0x23 ../mf2_ddr_ucos_bsp/\libucosii_bsp.a(alt_find_dev.o)
 .debug_pubnames
                0x00007d7f       0x24 ../mf2_ddr_ucos_bsp/\libucosii_bsp.a(alt_find_file.o)
 .debug_pubnames
                0x00007da3       0x21 ../mf2_ddr_ucos_bsp/\libucosii_bsp.a(alt_get_fd.o)
 .debug_pubnames
                0x00007dc4       0x27 ../mf2_ddr_ucos_bsp/\libucosii_bsp.a(alt_icache_flush.o)
 .debug_pubnames
                0x00007deb       0x2a e:/altera/10.1/nios2eds/bin/gnu/h-i686-mingw32/bin/../lib/gcc/nios2-elf/4.1.2/../../../../nios2-elf/lib\libc.a(lib_a-atexit.o)
 .debug_pubnames
                0x00007e15       0x1b e:/altera/10.1/nios2eds/bin/gnu/h-i686-mingw32/bin/../lib/gcc/nios2-elf/4.1.2/../../../../nios2-elf/lib\libc.a(lib_a-exit.o)
 .debug_pubnames
                0x00007e30       0x1d e:/altera/10.1/nios2eds/bin/gnu/h-i686-mingw32/bin/../lib/gcc/nios2-elf/4.1.2/../../../../nios2-elf/lib\libc.a(lib_a-memcmp.o)
 .debug_pubnames
                0x00007e4d       0x2a e:/altera/10.1/nios2eds/bin/gnu/h-i686-mingw32/bin/../lib/gcc/nios2-elf/4.1.2/../../../../nios2-elf/lib\libc.a(lib_a-__atexit.o)
 .debug_pubnames
                0x00007e77       0x27 e:/altera/10.1/nios2eds/bin/gnu/h-i686-mingw32/bin/../lib/gcc/nios2-elf/4.1.2/../../../../nios2-elf/lib\libc.a(lib_a-__call_atexit.o)

.debug_info     0x00000000    0xc2d9a
 *(.debug_info .gnu.linkonce.wi.*)
 .debug_info    0x00000000       0xb5 ../mf2_ddr_ucos_bsp//obj/HAL/src/crt0.o
 .debug_info    0x000000b5      0x2a9 obj/alt-irq-handler.o
 .debug_info    0x0000035e      0x96d obj/dbg_helper.o
 .debug_info    0x00000ccb      0x933 obj/ddc_helper.o
 .debug_info    0x000015fe      0x438 obj/dynedid.o
 .debug_info    0x00001a36     0x12bd obj/ee_helper.o
 .debug_info    0x00002cf3      0x644 obj/fifo_helper.o
 .debug_info    0x00003337      0x423 obj/i2c_master.o
 .debug_info    0x0000375a      0x6ab obj/main.o
 .debug_info    0x00003e05     0x1365 obj/os-support.o
 .debug_info    0x0000516a      0xb7c obj/os_bsem.o
 .debug_info    0x00005ce6     0x128f obj/os_cpu_c.o
 .debug_info    0x00006f75      0xeb1 obj/os_sem.o
 .debug_info    0x00007e26      0x22a obj/ow.o
 .debug_info    0x00008050      0x3e7 obj/pll_helper.o
 .debug_info    0x00008437     0x1ab7 obj/sys-base.o
 .debug_info    0x00009eee       0xa7 obj/touchcon.o
 .debug_info    0x00009f95      0xec1 obj/ts_helper.o
 .debug_info    0x0000ae56      0x516 obj/tvp7002_helper.o
 .debug_info    0x0000b36c      0x639 obj/uhe.o
 .debug_info    0x0000b9a5     0x1926 obj/usb/bsd-bus-dma.o
 .debug_info    0x0000d2cb     0x26e7 obj/usb/bsd-wrap.o
 .debug_info    0x0000f9b2     0x1369 obj/usb/bus_if.o
 .debug_info    0x00010d1b      0xddf obj/usb/device_if.o
 .debug_info    0x00011afa     0x6f18 obj/usb/ehci.o
 .debug_info    0x00018a12     0x4884 obj/usb/ehci_oxu210.o
 .debug_info    0x0001d296      0xed9 obj/usb/init_main.o
 .debug_info    0x0001e16f     0x15bc obj/usb/kern_linker.o
 .debug_info    0x0001f72b     0x1a14 obj/usb/kern_module.o
 .debug_info    0x0002113f     0x2c79 obj/usb/kern_sysctl.o
 .debug_info    0x00023db8     0x10b7 obj/usb/oxu210-alloc.o
 .debug_info    0x00024e6f      0x9c3 obj/usb/oxu210-intr.o
 .debug_info    0x00025832     0x6ff1 obj/usb/pdev.o
 .debug_info    0x0002c823     0x1520 obj/usb/s5a-autoconf.o
 .debug_info    0x0002dd43     0x6963 obj/usb/subr_bus.o
 .debug_info    0x000346a6     0x1e8e obj/usb/subr_kobj.o
 .debug_info    0x00036534     0x16e6 obj/usb/subr_uio.o
 .debug_info    0x00037c1a     0x3544 obj/usb/tc-mtouch.o
 .debug_info    0x0003b15e     0x35a8 obj/usb/tc-zytronic.o
 .debug_info    0x0003e706     0x57a8 obj/usb/tc.o
 .debug_info    0x00043eae     0x2f70 obj/usb/ums.o
 .debug_info    0x00046e1e     0x483f obj/usb/usb_busdma.o
 .debug_info    0x0004b65d     0x4da6 obj/usb/usb_controller.o
 .debug_info    0x00050403     0x30ea obj/usb/usb_debug.o
 .debug_info    0x000534ed     0x59d2 obj/usb/usb_device.o
 .debug_info    0x00058ebf     0x3023 obj/usb/usb_dynamic.o
 .debug_info    0x0005bee2      0xe67 obj/usb/usb_error.o
 .debug_info    0x0005cd49     0x46a1 obj/usb/usb_handle_request.o
 .debug_info    0x000613ea     0x369d obj/usb/usb_hid.o
 .debug_info    0x00064a87     0x6769 obj/usb/usb_hub.o
 .debug_info    0x0006b1f0      0xbbf obj/usb/usb_if.o
 .debug_info    0x0006bdaf     0x1210 obj/usb/usb_parse.o
 .debug_info    0x0006cfbf     0x127b obj/usb/usb_process.o
 .debug_info    0x0006e23a     0x57d9 obj/usb/usb_request.o
 .debug_info    0x00073a13     0x1cd5 obj/usb/usb_s5a.o
 .debug_info    0x000756e8     0x55f7 obj/usb/usb_transfer.o
 .debug_info    0x0007acdf     0x3e25 obj/usb/usb_util.o
 .debug_info    0x0007eb04     0x39f8 obj/usb/usbdev_oxu210.o
 .debug_info    0x000824fc      0x297 obj/usb_helper.o
 .debug_info    0x00082793      0xe44 obj/video_helper.o
 .debug_info    0x000835d7     0x1bc0 obj/vip_helper.o
 .debug_info    0x00085197     0x14a0 e:/altera/10.1/nios2eds/bin/gnu/h-i686-mingw32/bin/../lib/gcc/nios2-elf/4.1.2/../../../../nios2-elf/lib\libstdc++.a(eh_personality.o)
 .debug_info    0x00086637      0xaf4 e:/altera/10.1/nios2eds/bin/gnu/h-i686-mingw32/bin/../lib/gcc/nios2-elf/4.1.2/../../../../nios2-elf/lib\libstdc++.a(eh_globals.o)
 .debug_info    0x0008712b      0x6e7 e:/altera/10.1/nios2eds/bin/gnu/h-i686-mingw32/bin/../lib/gcc/nios2-elf/4.1.2/../../../../nios2-elf/lib\libstdc++.a(eh_throw.o)
 .debug_info    0x00087812      0x8cd e:/altera/10.1/nios2eds/bin/gnu/h-i686-mingw32/bin/../lib/gcc/nios2-elf/4.1.2/../../../../nios2-elf/lib\libstdc++.a(eh_call.o)
 .debug_info    0x000880df      0xa78 e:/altera/10.1/nios2eds/bin/gnu/h-i686-mingw32/bin/../lib/gcc/nios2-elf/4.1.2/../../../../nios2-elf/lib\libstdc++.a(eh_catch.o)
 .debug_info    0x00088b57      0x511 e:/altera/10.1/nios2eds/bin/gnu/h-i686-mingw32/bin/../lib/gcc/nios2-elf/4.1.2/../../../../nios2-elf/lib\libstdc++.a(eh_exception.o)
 .debug_info    0x00089068      0x9c9 e:/altera/10.1/nios2eds/bin/gnu/h-i686-mingw32/bin/../lib/gcc/nios2-elf/4.1.2/../../../../nios2-elf/lib\libstdc++.a(eh_terminate.o)
 .debug_info    0x00089a31      0x9dd e:/altera/10.1/nios2eds/bin/gnu/h-i686-mingw32/bin/../lib/gcc/nios2-elf/4.1.2/../../../../nios2-elf/lib\libstdc++.a(si_class_type_info.o)
 .debug_info    0x0008a40e      0xaab e:/altera/10.1/nios2eds/bin/gnu/h-i686-mingw32/bin/../lib/gcc/nios2-elf/4.1.2/../../../../nios2-elf/lib\libstdc++.a(eh_alloc.o)
 .debug_info    0x0008aeb9      0x4e6 e:/altera/10.1/nios2eds/bin/gnu/h-i686-mingw32/bin/../lib/gcc/nios2-elf/4.1.2/../../../../nios2-elf/lib\libstdc++.a(eh_term_handler.o)
 .debug_info    0x0008b39f      0x77c e:/altera/10.1/nios2eds/bin/gnu/h-i686-mingw32/bin/../lib/gcc/nios2-elf/4.1.2/../../../../nios2-elf/lib\libstdc++.a(tinfo.o)
 .debug_info    0x0008bb1b      0x44c e:/altera/10.1/nios2eds/bin/gnu/h-i686-mingw32/bin/../lib/gcc/nios2-elf/4.1.2/../../../../nios2-elf/lib\libstdc++.a(del_op.o)
 .debug_info    0x0008bf67      0x8df e:/altera/10.1/nios2eds/bin/gnu/h-i686-mingw32/bin/../lib/gcc/nios2-elf/4.1.2/../../../../nios2-elf/lib\libstdc++.a(class_type_info.o)
 .debug_info    0x0008c846      0x4cc e:/altera/10.1/nios2eds/bin/gnu/h-i686-mingw32/bin/../lib/gcc/nios2-elf/4.1.2/../../../../nios2-elf/lib\libstdc++.a(eh_unex_handler.o)
 .debug_info    0x0008cd12      0x215 e:/altera/10.1/nios2eds/bin/gnu/h-i686-mingw32/bin/../lib/gcc/nios2-elf/4.1.2\libgcc.a(_muldi3.o)
 .debug_info    0x0008cf27       0xce e:/altera/10.1/nios2eds/bin/gnu/h-i686-mingw32/bin/../lib/gcc/nios2-elf/4.1.2\libgcc.a(_fixunsdfsi.o)
 .debug_info    0x0008cff5       0xdc e:/altera/10.1/nios2eds/bin/gnu/h-i686-mingw32/bin/../lib/gcc/nios2-elf/4.1.2\libgcc.a(_floatdidf.o)
 .debug_info    0x0008d0d1      0x777 e:/altera/10.1/nios2eds/bin/gnu/h-i686-mingw32/bin/../lib/gcc/nios2-elf/4.1.2\libgcc.a(_divdi3.o)
 .debug_info    0x0008d848      0x493 e:/altera/10.1/nios2eds/bin/gnu/h-i686-mingw32/bin/../lib/gcc/nios2-elf/4.1.2\libgcc.a(_addsub_df.o)
 .debug_info    0x0008dcdb      0x488 e:/altera/10.1/nios2eds/bin/gnu/h-i686-mingw32/bin/../lib/gcc/nios2-elf/4.1.2\libgcc.a(_mul_df.o)
 .debug_info    0x0008e163      0x39b e:/altera/10.1/nios2eds/bin/gnu/h-i686-mingw32/bin/../lib/gcc/nios2-elf/4.1.2\libgcc.a(_div_df.o)
 .debug_info    0x0008e4fe      0x29d e:/altera/10.1/nios2eds/bin/gnu/h-i686-mingw32/bin/../lib/gcc/nios2-elf/4.1.2\libgcc.a(_ne_df.o)
 .debug_info    0x0008e79b      0x29d e:/altera/10.1/nios2eds/bin/gnu/h-i686-mingw32/bin/../lib/gcc/nios2-elf/4.1.2\libgcc.a(_ge_df.o)
 .debug_info    0x0008ea38      0x218 e:/altera/10.1/nios2eds/bin/gnu/h-i686-mingw32/bin/../lib/gcc/nios2-elf/4.1.2\libgcc.a(_si_to_df.o)
 .debug_info    0x0008ec50      0x2cd e:/altera/10.1/nios2eds/bin/gnu/h-i686-mingw32/bin/../lib/gcc/nios2-elf/4.1.2\libgcc.a(_df_to_si.o)
 .debug_info    0x0008ef1d      0x164 e:/altera/10.1/nios2eds/bin/gnu/h-i686-mingw32/bin/../lib/gcc/nios2-elf/4.1.2\libgcc.a(_thenan_df.o)
 .debug_info    0x0008f081      0x213 e:/altera/10.1/nios2eds/bin/gnu/h-i686-mingw32/bin/../lib/gcc/nios2-elf/4.1.2\libgcc.a(_usi_to_df.o)
 .debug_info    0x0008f294      0x21c e:/altera/10.1/nios2eds/bin/gnu/h-i686-mingw32/bin/../lib/gcc/nios2-elf/4.1.2\libgcc.a(lib2-divmod.o)
 .debug_info    0x0008f4b0     0x232f e:/altera/10.1/nios2eds/bin/gnu/h-i686-mingw32/bin/../lib/gcc/nios2-elf/4.1.2\libgcc.a(unwind-dw2.o)
 .debug_info    0x000917df     0x1678 e:/altera/10.1/nios2eds/bin/gnu/h-i686-mingw32/bin/../lib/gcc/nios2-elf/4.1.2\libgcc.a(unwind-dw2-fde.o)
 .debug_info    0x00092e57       0xc9 e:/altera/10.1/nios2eds/bin/gnu/h-i686-mingw32/bin/../lib/gcc/nios2-elf/4.1.2\libgcc.a(_clz.o)
 .debug_info    0x00092f20      0x130 e:/altera/10.1/nios2eds/bin/gnu/h-i686-mingw32/bin/../lib/gcc/nios2-elf/4.1.2\libgcc.a(_clzsi2.o)
 .debug_info    0x00093050      0x2fc e:/altera/10.1/nios2eds/bin/gnu/h-i686-mingw32/bin/../lib/gcc/nios2-elf/4.1.2\libgcc.a(_pack_df.o)
 .debug_info    0x0009334c      0x268 e:/altera/10.1/nios2eds/bin/gnu/h-i686-mingw32/bin/../lib/gcc/nios2-elf/4.1.2\libgcc.a(_unpack_df.o)
 .debug_info    0x000935b4      0x21b e:/altera/10.1/nios2eds/bin/gnu/h-i686-mingw32/bin/../lib/gcc/nios2-elf/4.1.2\libgcc.a(_fpcmp_parts_df.o)
 .debug_info    0x000937cf       0x8f e:/altera/10.1/nios2eds/bin/gnu/h-i686-mingw32/bin/../lib/gcc/nios2-elf/4.1.2/../../../../nios2-elf/lib\libc.a(lib_a-abort.o)
 .debug_info    0x0009385e       0xd1 e:/altera/10.1/nios2eds/bin/gnu/h-i686-mingw32/bin/../lib/gcc/nios2-elf/4.1.2/../../../../nios2-elf/lib\libc.a(lib_a-bcopy.o)
 .debug_info    0x0009392f       0xa0 e:/altera/10.1/nios2eds/bin/gnu/h-i686-mingw32/bin/../lib/gcc/nios2-elf/4.1.2/../../../../nios2-elf/lib\libc.a(lib_a-ctype_.o)
 .debug_info    0x000939cf      0x96e e:/altera/10.1/nios2eds/bin/gnu/h-i686-mingw32/bin/../lib/gcc/nios2-elf/4.1.2/../../../../nios2-elf/lib\libc.a(lib_a-malloc.o)
 .debug_info    0x0009433d      0xcd0 e:/altera/10.1/nios2eds/bin/gnu/h-i686-mingw32/bin/../lib/gcc/nios2-elf/4.1.2/../../../../nios2-elf/lib\libc.a(lib_a-mallocr.o)
 .debug_info    0x0009500d      0x106 e:/altera/10.1/nios2eds/bin/gnu/h-i686-mingw32/bin/../lib/gcc/nios2-elf/4.1.2/../../../../nios2-elf/lib\libc.a(lib_a-memcpy.o)
 .debug_info    0x00095113      0x13e e:/altera/10.1/nios2eds/bin/gnu/h-i686-mingw32/bin/../lib/gcc/nios2-elf/4.1.2/../../../../nios2-elf/lib\libc.a(lib_a-memmove.o)
 .debug_info    0x00095251      0x113 e:/altera/10.1/nios2eds/bin/gnu/h-i686-mingw32/bin/../lib/gcc/nios2-elf/4.1.2/../../../../nios2-elf/lib\libc.a(lib_a-memset.o)
 .debug_info    0x00095364      0x9d1 e:/altera/10.1/nios2eds/bin/gnu/h-i686-mingw32/bin/../lib/gcc/nios2-elf/4.1.2/../../../../nios2-elf/lib\libc.a(lib_a-printf.o)
 .debug_info    0x00095d35      0x972 e:/altera/10.1/nios2eds/bin/gnu/h-i686-mingw32/bin/../lib/gcc/nios2-elf/4.1.2/../../../../nios2-elf/lib\libc.a(lib_a-putchar.o)
 .debug_info    0x000966a7      0xa25 e:/altera/10.1/nios2eds/bin/gnu/h-i686-mingw32/bin/../lib/gcc/nios2-elf/4.1.2/../../../../nios2-elf/lib\libc.a(lib_a-puts.o)
 .debug_info    0x000970cc      0x951 e:/altera/10.1/nios2eds/bin/gnu/h-i686-mingw32/bin/../lib/gcc/nios2-elf/4.1.2/../../../../nios2-elf/lib\libc.a(lib_a-rand.o)
 .debug_info    0x00097a1d      0x962 e:/altera/10.1/nios2eds/bin/gnu/h-i686-mingw32/bin/../lib/gcc/nios2-elf/4.1.2/../../../../nios2-elf/lib\libc.a(lib_a-sbrkr.o)
 .debug_info    0x0009837f      0xae9 e:/altera/10.1/nios2eds/bin/gnu/h-i686-mingw32/bin/../lib/gcc/nios2-elf/4.1.2/../../../../nios2-elf/lib\libc.a(lib_a-signal.o)
 .debug_info    0x00098e68      0x99e e:/altera/10.1/nios2eds/bin/gnu/h-i686-mingw32/bin/../lib/gcc/nios2-elf/4.1.2/../../../../nios2-elf/lib\libc.a(lib_a-signalr.o)
 .debug_info    0x00099806      0xa49 e:/altera/10.1/nios2eds/bin/gnu/h-i686-mingw32/bin/../lib/gcc/nios2-elf/4.1.2/../../../../nios2-elf/lib\libc.a(lib_a-snprintf.o)
 .debug_info    0x0009a24f      0xa16 e:/altera/10.1/nios2eds/bin/gnu/h-i686-mingw32/bin/../lib/gcc/nios2-elf/4.1.2/../../../../nios2-elf/lib\libc.a(lib_a-sprintf.o)
 .debug_info    0x0009ac65       0xdd e:/altera/10.1/nios2eds/bin/gnu/h-i686-mingw32/bin/../lib/gcc/nios2-elf/4.1.2/../../../../nios2-elf/lib\libc.a(lib_a-strcmp.o)
 .debug_info    0x0009ad42      0x110 e:/altera/10.1/nios2eds/bin/gnu/h-i686-mingw32/bin/../lib/gcc/nios2-elf/4.1.2/../../../../nios2-elf/lib\libc.a(lib_a-strcpy.o)
 .debug_info    0x0009ae52      0x93c e:/altera/10.1/nios2eds/bin/gnu/h-i686-mingw32/bin/../lib/gcc/nios2-elf/4.1.2/../../../../nios2-elf/lib\libc.a(lib_a-strdup.o)
 .debug_info    0x0009b78e      0x964 e:/altera/10.1/nios2eds/bin/gnu/h-i686-mingw32/bin/../lib/gcc/nios2-elf/4.1.2/../../../../nios2-elf/lib\libc.a(lib_a-strdup_r.o)
 .debug_info    0x0009c0f2      0x100 e:/altera/10.1/nios2eds/bin/gnu/h-i686-mingw32/bin/../lib/gcc/nios2-elf/4.1.2/../../../../nios2-elf/lib\libc.a(lib_a-strlcpy.o)
 .debug_info    0x0009c1f2       0xdb e:/altera/10.1/nios2eds/bin/gnu/h-i686-mingw32/bin/../lib/gcc/nios2-elf/4.1.2/../../../../nios2-elf/lib\libc.a(lib_a-strlen.o)
 .debug_info    0x0009c2cd      0x12a e:/altera/10.1/nios2eds/bin/gnu/h-i686-mingw32/bin/../lib/gcc/nios2-elf/4.1.2/../../../../nios2-elf/lib\libc.a(lib_a-strncpy.o)
 .debug_info    0x0009c3f7       0xcf e:/altera/10.1/nios2eds/bin/gnu/h-i686-mingw32/bin/../lib/gcc/nios2-elf/4.1.2/../../../../nios2-elf/lib\libc.a(lib_a-strnlen.o)
 .debug_info    0x0009c4c6     0x10d5 e:/altera/10.1/nios2eds/bin/gnu/h-i686-mingw32/bin/../lib/gcc/nios2-elf/4.1.2/../../../../nios2-elf/lib\libc.a(lib_a-vfprintf.o)
 .debug_info    0x0009d59b      0x9aa e:/altera/10.1/nios2eds/bin/gnu/h-i686-mingw32/bin/../lib/gcc/nios2-elf/4.1.2/../../../../nios2-elf/lib\libc.a(lib_a-vprintf.o)
 .debug_info    0x0009df45      0xa1b e:/altera/10.1/nios2eds/bin/gnu/h-i686-mingw32/bin/../lib/gcc/nios2-elf/4.1.2/../../../../nios2-elf/lib\libc.a(lib_a-vsnprintf.o)
 .debug_info    0x0009e960      0x9ed e:/altera/10.1/nios2eds/bin/gnu/h-i686-mingw32/bin/../lib/gcc/nios2-elf/4.1.2/../../../../nios2-elf/lib\libc.a(lib_a-vsprintf.o)
 .debug_info    0x0009f34d      0x95d e:/altera/10.1/nios2eds/bin/gnu/h-i686-mingw32/bin/../lib/gcc/nios2-elf/4.1.2/../../../../nios2-elf/lib\libc.a(lib_a-wsetup.o)
 .debug_info    0x0009fcaa      0xd6f e:/altera/10.1/nios2eds/bin/gnu/h-i686-mingw32/bin/../lib/gcc/nios2-elf/4.1.2/../../../../nios2-elf/lib\libc.a(lib_a-dtoa.o)
 .debug_info    0x000a0a19      0x9fe e:/altera/10.1/nios2eds/bin/gnu/h-i686-mingw32/bin/../lib/gcc/nios2-elf/4.1.2/../../../../nios2-elf/lib\libc.a(lib_a-fflush.o)
 .debug_info    0x000a1417      0xb72 e:/altera/10.1/nios2eds/bin/gnu/h-i686-mingw32/bin/../lib/gcc/nios2-elf/4.1.2/../../../../nios2-elf/lib\libc.a(lib_a-findfp.o)
 .debug_info    0x000a1f89      0xbc9 e:/altera/10.1/nios2eds/bin/gnu/h-i686-mingw32/bin/../lib/gcc/nios2-elf/4.1.2/../../../../nios2-elf/lib\libc.a(lib_a-freer.o)
 .debug_info    0x000a2b52      0xa88 e:/altera/10.1/nios2eds/bin/gnu/h-i686-mingw32/bin/../lib/gcc/nios2-elf/4.1.2/../../../../nios2-elf/lib\libc.a(lib_a-fvwrite.o)
 .debug_info    0x000a35da      0xaed e:/altera/10.1/nios2eds/bin/gnu/h-i686-mingw32/bin/../lib/gcc/nios2-elf/4.1.2/../../../../nios2-elf/lib\libc.a(lib_a-fwalk.o)
 .debug_info    0x000a40c7      0x93d e:/altera/10.1/nios2eds/bin/gnu/h-i686-mingw32/bin/../lib/gcc/nios2-elf/4.1.2/../../../../nios2-elf/lib\libc.a(lib_a-impure.o)
 .debug_info    0x000a4a04       0x8c e:/altera/10.1/nios2eds/bin/gnu/h-i686-mingw32/bin/../lib/gcc/nios2-elf/4.1.2/../../../../nios2-elf/lib\libc.a(lib_a-int_errno.o)
 .debug_info    0x000a4a90      0xb97 e:/altera/10.1/nios2eds/bin/gnu/h-i686-mingw32/bin/../lib/gcc/nios2-elf/4.1.2/../../../../nios2-elf/lib\libc.a(lib_a-locale.o)
 .debug_info    0x000a5627      0xb1a e:/altera/10.1/nios2eds/bin/gnu/h-i686-mingw32/bin/../lib/gcc/nios2-elf/4.1.2/../../../../nios2-elf/lib\libc.a(lib_a-makebuf.o)
 .debug_info    0x000a6141      0x138 e:/altera/10.1/nios2eds/bin/gnu/h-i686-mingw32/bin/../lib/gcc/nios2-elf/4.1.2/../../../../nios2-elf/lib\libc.a(lib_a-memchr.o)
 .debug_info    0x000a6279     0x1437 e:/altera/10.1/nios2eds/bin/gnu/h-i686-mingw32/bin/../lib/gcc/nios2-elf/4.1.2/../../../../nios2-elf/lib\libc.a(lib_a-mprec.o)
 .debug_info    0x000a76b0      0x9c1 e:/altera/10.1/nios2eds/bin/gnu/h-i686-mingw32/bin/../lib/gcc/nios2-elf/4.1.2/../../../../nios2-elf/lib\libc.a(lib_a-putc.o)
 .debug_info    0x000a8071      0xbd7 e:/altera/10.1/nios2eds/bin/gnu/h-i686-mingw32/bin/../lib/gcc/nios2-elf/4.1.2/../../../../nios2-elf/lib\libc.a(lib_a-reallocr.o)
 .debug_info    0x000a8c48       0xd7 e:/altera/10.1/nios2eds/bin/gnu/h-i686-mingw32/bin/../lib/gcc/nios2-elf/4.1.2/../../../../nios2-elf/lib\libc.a(lib_a-s_isinfd.o)
 .debug_info    0x000a8d1f       0xd5 e:/altera/10.1/nios2eds/bin/gnu/h-i686-mingw32/bin/../lib/gcc/nios2-elf/4.1.2/../../../../nios2-elf/lib\libc.a(lib_a-s_isnand.o)
 .debug_info    0x000a8df4      0xaac e:/altera/10.1/nios2eds/bin/gnu/h-i686-mingw32/bin/../lib/gcc/nios2-elf/4.1.2/../../../../nios2-elf/lib\libc.a(lib_a-stdio.o)
 .debug_info    0x000a98a0      0x9ae e:/altera/10.1/nios2eds/bin/gnu/h-i686-mingw32/bin/../lib/gcc/nios2-elf/4.1.2/../../../../nios2-elf/lib\libc.a(lib_a-wbuf.o)
 .debug_info    0x000aa24e      0x993 e:/altera/10.1/nios2eds/bin/gnu/h-i686-mingw32/bin/../lib/gcc/nios2-elf/4.1.2/../../../../nios2-elf/lib\libc.a(lib_a-writer.o)
 .debug_info    0x000aabe1      0xa1b e:/altera/10.1/nios2eds/bin/gnu/h-i686-mingw32/bin/../lib/gcc/nios2-elf/4.1.2/../../../../nios2-elf/lib\libc.a(lib_a-callocr.o)
 .debug_info    0x000ab5fc      0x958 e:/altera/10.1/nios2eds/bin/gnu/h-i686-mingw32/bin/../lib/gcc/nios2-elf/4.1.2/../../../../nios2-elf/lib\libc.a(lib_a-closer.o)
 .debug_info    0x000abf54      0x994 e:/altera/10.1/nios2eds/bin/gnu/h-i686-mingw32/bin/../lib/gcc/nios2-elf/4.1.2/../../../../nios2-elf/lib\libc.a(lib_a-fclose.o)
 .debug_info    0x000ac8e8      0xafc e:/altera/10.1/nios2eds/bin/gnu/h-i686-mingw32/bin/../lib/gcc/nios2-elf/4.1.2/../../../../nios2-elf/lib\libc.a(lib_a-fstatr.o)
 .debug_info    0x000ad3e4      0x958 e:/altera/10.1/nios2eds/bin/gnu/h-i686-mingw32/bin/../lib/gcc/nios2-elf/4.1.2/../../../../nios2-elf/lib\libc.a(lib_a-isattyr.o)
 .debug_info    0x000add3c      0x981 e:/altera/10.1/nios2eds/bin/gnu/h-i686-mingw32/bin/../lib/gcc/nios2-elf/4.1.2/../../../../nios2-elf/lib\libc.a(lib_a-lseekr.o)
 .debug_info    0x000ae6bd      0x98c e:/altera/10.1/nios2eds/bin/gnu/h-i686-mingw32/bin/../lib/gcc/nios2-elf/4.1.2/../../../../nios2-elf/lib\libc.a(lib_a-readr.o)
 .debug_info    0x000af049      0x724 e:/altera/10.1/nios2eds/bin/gnu/h-i686-mingw32/bin/../lib/gcc/nios2-elf/4.1.2\libgcc.a(_udivdi3.o)
 .debug_info    0x000af76d      0x751 e:/altera/10.1/nios2eds/bin/gnu/h-i686-mingw32/bin/../lib/gcc/nios2-elf/4.1.2\libgcc.a(_umoddi3.o)
 .debug_info    0x000afebe      0x29d e:/altera/10.1/nios2eds/bin/gnu/h-i686-mingw32/bin/../lib/gcc/nios2-elf/4.1.2\libgcc.a(_eq_df.o)
 .debug_info    0x000b015b      0x29d e:/altera/10.1/nios2eds/bin/gnu/h-i686-mingw32/bin/../lib/gcc/nios2-elf/4.1.2\libgcc.a(_gt_df.o)
 .debug_info    0x000b03f8      0x29d e:/altera/10.1/nios2eds/bin/gnu/h-i686-mingw32/bin/../lib/gcc/nios2-elf/4.1.2\libgcc.a(_lt_df.o)
 .debug_info    0x000b0695      0x387 ../mf2_ddr_ucos_bsp/\libucosii_bsp.a(alt_close.o)
 .debug_info    0x000b0a1c      0x5d7 ../mf2_ddr_ucos_bsp/\libucosii_bsp.a(alt_dev.o)
 .debug_info    0x000b0ff3       0xab ../mf2_ddr_ucos_bsp/\libucosii_bsp.a(alt_errno.o)
 .debug_info    0x000b109e      0x137 ../mf2_ddr_ucos_bsp/\libucosii_bsp.a(alt_exit.o)
 .debug_info    0x000b11d5      0x515 ../mf2_ddr_ucos_bsp/\libucosii_bsp.a(alt_fstat.o)
 .debug_info    0x000b16ea       0x40 ../mf2_ddr_ucos_bsp/\libucosii_bsp.a(alt_getpid.o)
 .debug_info    0x000b172a      0x341 ../mf2_ddr_ucos_bsp/\libucosii_bsp.a(alt_iic.o)
 .debug_info    0x000b1a6b      0x1f2 ../mf2_ddr_ucos_bsp/\libucosii_bsp.a(alt_iic_isr_register.o)
 .debug_info    0x000b1c5d      0x169 ../mf2_ddr_ucos_bsp/\libucosii_bsp.a(alt_instruction_exception_register.o)
 .debug_info    0x000b1dc6       0xbe ../mf2_ddr_ucos_bsp/\libucosii_bsp.a(alt_irq_entry.o)
 .debug_info    0x000b1e84       0x92 ../mf2_ddr_ucos_bsp/\libucosii_bsp.a(alt_irq_vars.o)
 .debug_info    0x000b1f16      0x515 ../mf2_ddr_ucos_bsp/\libucosii_bsp.a(alt_isatty.o)
 .debug_info    0x000b242b      0x109 ../mf2_ddr_ucos_bsp/\libucosii_bsp.a(alt_kill.o)
 .debug_info    0x000b2534      0x12e ../mf2_ddr_ucos_bsp/\libucosii_bsp.a(alt_load.o)
 .debug_info    0x000b2662      0x3c0 ../mf2_ddr_ucos_bsp/\libucosii_bsp.a(alt_lseek.o)
 .debug_info    0x000b2a22      0x27f ../mf2_ddr_ucos_bsp/\libucosii_bsp.a(alt_main.o)
 .debug_info    0x000b2ca1      0x539 ../mf2_ddr_ucos_bsp/\libucosii_bsp.a(alt_read.o)
 .debug_info    0x000b31da      0x31f ../mf2_ddr_ucos_bsp/\libucosii_bsp.a(alt_release_fd.o)
 .debug_info    0x000b34f9      0x275 ../mf2_ddr_ucos_bsp/\libucosii_bsp.a(alt_sbrk.o)
 .debug_info    0x000b376e      0x2af ../mf2_ddr_ucos_bsp/\libucosii_bsp.a(alt_tick.o)
 .debug_info    0x000b3a1d      0x13c ../mf2_ddr_ucos_bsp/\libucosii_bsp.a(alt_usleep.o)
 .debug_info    0x000b3b59      0x540 ../mf2_ddr_ucos_bsp/\libucosii_bsp.a(alt_write.o)
 .debug_info    0x000b4099       0xbd ../mf2_ddr_ucos_bsp/\libucosii_bsp.a(os_cpu_a.o)
 .debug_info    0x000b4156      0xd5b ../mf2_ddr_ucos_bsp/\libucosii_bsp.a(alt_env_lock.o)
 .debug_info    0x000b4eb1      0xe8e ../mf2_ddr_ucos_bsp/\libucosii_bsp.a(alt_malloc_lock.o)
 .debug_info    0x000b5d3f     0x1987 ../mf2_ddr_ucos_bsp/\libucosii_bsp.a(os_core.o)
 .debug_info    0x000b76c6      0xd5b ../mf2_ddr_ucos_bsp/\libucosii_bsp.a(os_dbg.o)
 .debug_info    0x000b8421      0xec0 ../mf2_ddr_ucos_bsp/\libucosii_bsp.a(os_flag.o)
 .debug_info    0x000b92e1      0x677 ../mf2_ddr_ucos_bsp/\libucosii_bsp.a(os_mem.o)
 .debug_info    0x000b9958      0xdd4 ../mf2_ddr_ucos_bsp/\libucosii_bsp.a(os_q.o)
 .debug_info    0x000ba72c     0x10cc ../mf2_ddr_ucos_bsp/\libucosii_bsp.a(os_task.o)
 .debug_info    0x000bb7f8      0x71b ../mf2_ddr_ucos_bsp/\libucosii_bsp.a(os_time.o)
 .debug_info    0x000bbf13      0x894 ../mf2_ddr_ucos_bsp/\libucosii_bsp.a(os_tmr.o)
 .debug_info    0x000bc7a7      0x66b ../mf2_ddr_ucos_bsp/\libucosii_bsp.a(alt_sys_init.o)
 .debug_info    0x000bce12      0x6e5 ../mf2_ddr_ucos_bsp/\libucosii_bsp.a(altera_avalon_jtag_uart_fd.o)
 .debug_info    0x000bd4f7      0x6a5 ../mf2_ddr_ucos_bsp/\libucosii_bsp.a(altera_avalon_jtag_uart_init.o)
 .debug_info    0x000bdb9c      0x40e ../mf2_ddr_ucos_bsp/\libucosii_bsp.a(altera_avalon_jtag_uart_ioctl.o)
 .debug_info    0x000bdfaa      0x5a9 ../mf2_ddr_ucos_bsp/\libucosii_bsp.a(altera_avalon_jtag_uart_read.o)
 .debug_info    0x000be553      0x598 ../mf2_ddr_ucos_bsp/\libucosii_bsp.a(altera_avalon_jtag_uart_write.o)
 .debug_info    0x000beaeb      0x17b ../mf2_ddr_ucos_bsp/\libucosii_bsp.a(altera_avalon_spi.o)
 .debug_info    0x000bec66      0x221 ../mf2_ddr_ucos_bsp/\libucosii_bsp.a(altera_avalon_timer_sc.o)
 .debug_info    0x000bee87      0x2c4 ../mf2_ddr_ucos_bsp/\libucosii_bsp.a(alt_alarm_start.o)
 .debug_info    0x000bf14b       0xd0 ../mf2_ddr_ucos_bsp/\libucosii_bsp.a(alt_busy_sleep.o)
 .debug_info    0x000bf21b       0x8d ../mf2_ddr_ucos_bsp/\libucosii_bsp.a(alt_dcache_flush_all.o)
 .debug_info    0x000bf2a8      0x1b7 ../mf2_ddr_ucos_bsp/\libucosii_bsp.a(alt_dev_llist_insert.o)
 .debug_info    0x000bf45f       0x89 ../mf2_ddr_ucos_bsp/\libucosii_bsp.a(alt_do_ctors.o)
 .debug_info    0x000bf4e8       0x89 ../mf2_ddr_ucos_bsp/\libucosii_bsp.a(alt_do_dtors.o)
 .debug_info    0x000bf571       0xc4 ../mf2_ddr_ucos_bsp/\libucosii_bsp.a(alt_exception_entry.o)
 .debug_info    0x000bf635       0x8d ../mf2_ddr_ucos_bsp/\libucosii_bsp.a(alt_icache_flush_all.o)
 .debug_info    0x000bf6c2      0x1b4 ../mf2_ddr_ucos_bsp/\libucosii_bsp.a(alt_instruction_exception_entry.o)
 .debug_info    0x000bf876      0x52e ../mf2_ddr_ucos_bsp/\libucosii_bsp.a(alt_io_redirect.o)
 .debug_info    0x000bfda4      0x439 ../mf2_ddr_ucos_bsp/\libucosii_bsp.a(alt_open.o)
 .debug_info    0x000c01dd       0x8d ../mf2_ddr_ucos_bsp/\libucosii_bsp.a(altera_nios2_irq.o)
 .debug_info    0x000c026a      0x348 ../mf2_ddr_ucos_bsp/\libucosii_bsp.a(alt_find_dev.o)
 .debug_info    0x000c05b2      0x346 ../mf2_ddr_ucos_bsp/\libucosii_bsp.a(alt_find_file.o)
 .debug_info    0x000c08f8      0x47a ../mf2_ddr_ucos_bsp/\libucosii_bsp.a(alt_get_fd.o)
 .debug_info    0x000c0d72       0xd5 ../mf2_ddr_ucos_bsp/\libucosii_bsp.a(alt_icache_flush.o)
 .debug_info    0x000c0e47      0x181 e:/altera/10.1/nios2eds/bin/gnu/h-i686-mingw32/bin/../lib/gcc/nios2-elf/4.1.2/../../../../nios2-elf/lib\libc.a(lib_a-atexit.o)
 .debug_info    0x000c0fc8      0x93f e:/altera/10.1/nios2eds/bin/gnu/h-i686-mingw32/bin/../lib/gcc/nios2-elf/4.1.2/../../../../nios2-elf/lib\libc.a(lib_a-exit.o)
 .debug_info    0x000c1907      0x115 e:/altera/10.1/nios2eds/bin/gnu/h-i686-mingw32/bin/../lib/gcc/nios2-elf/4.1.2/../../../../nios2-elf/lib\libc.a(lib_a-memcmp.o)
 .debug_info    0x000c1a1c      0x99c e:/altera/10.1/nios2eds/bin/gnu/h-i686-mingw32/bin/../lib/gcc/nios2-elf/4.1.2/../../../../nios2-elf/lib\libc.a(lib_a-__atexit.o)
 .debug_info    0x000c23b8      0x9e2 e:/altera/10.1/nios2eds/bin/gnu/h-i686-mingw32/bin/../lib/gcc/nios2-elf/4.1.2/../../../../nios2-elf/lib\libc.a(lib_a-__call_atexit.o)

.debug_abbrev   0x00000000    0x15a9e
 *(.debug_abbrev)
 .debug_abbrev  0x00000000       0x12 ../mf2_ddr_ucos_bsp//obj/HAL/src/crt0.o
 .debug_abbrev  0x00000012      0x124 obj/alt-irq-handler.o
 .debug_abbrev  0x00000136      0x1ab obj/dbg_helper.o
 .debug_abbrev  0x000002e1      0x12b obj/ddc_helper.o
 .debug_abbrev  0x0000040c      0x103 obj/dynedid.o
 .debug_abbrev  0x0000050f      0x1f6 obj/ee_helper.o
 .debug_abbrev  0x00000705      0x18c obj/fifo_helper.o
 .debug_abbrev  0x00000891       0xdb obj/i2c_master.o
 .debug_abbrev  0x0000096c       0xea obj/main.o
 .debug_abbrev  0x00000a56      0x2bb obj/os-support.o
 .debug_abbrev  0x00000d11      0x1fe obj/os_bsem.o
 .debug_abbrev  0x00000f0f      0x1d0 obj/os_cpu_c.o
 .debug_abbrev  0x000010df      0x24f obj/os_sem.o
 .debug_abbrev  0x0000132e       0x83 obj/ow.o
 .debug_abbrev  0x000013b1      0x138 obj/pll_helper.o
 .debug_abbrev  0x000014e9      0x273 obj/sys-base.o
 .debug_abbrev  0x0000175c       0x27 obj/touchcon.o
 .debug_abbrev  0x00001783      0x1e3 obj/ts_helper.o
 .debug_abbrev  0x00001966      0x114 obj/tvp7002_helper.o
 .debug_abbrev  0x00001a7a       0xff obj/uhe.o
 .debug_abbrev  0x00001b79      0x2ce obj/usb/bsd-bus-dma.o
 .debug_abbrev  0x00001e47      0x282 obj/usb/bsd-wrap.o
 .debug_abbrev  0x000020c9      0x16a obj/usb/bus_if.o
 .debug_abbrev  0x00002233      0x114 obj/usb/device_if.o
 .debug_abbrev  0x00002347      0x33e obj/usb/ehci.o
 .debug_abbrev  0x00002685      0x252 obj/usb/ehci_oxu210.o
 .debug_abbrev  0x000028d7      0x11e obj/usb/init_main.o
 .debug_abbrev  0x000029f5      0x1a0 obj/usb/kern_linker.o
 .debug_abbrev  0x00002b95      0x212 obj/usb/kern_module.o
 .debug_abbrev  0x00002da7      0x2be obj/usb/kern_sysctl.o
 .debug_abbrev  0x00003065      0x1cc obj/usb/oxu210-alloc.o
 .debug_abbrev  0x00003231      0x16e obj/usb/oxu210-intr.o
 .debug_abbrev  0x0000339f      0x353 obj/usb/pdev.o
 .debug_abbrev  0x000036f2      0x155 obj/usb/s5a-autoconf.o
 .debug_abbrev  0x00003847      0x2dc obj/usb/subr_bus.o
 .debug_abbrev  0x00003b23      0x25e obj/usb/subr_kobj.o
 .debug_abbrev  0x00003d81      0x230 obj/usb/subr_uio.o
 .debug_abbrev  0x00003fb1      0x209 obj/usb/tc-mtouch.o
 .debug_abbrev  0x000041ba      0x214 obj/usb/tc-zytronic.o
 .debug_abbrev  0x000043ce      0x28c obj/usb/tc.o
 .debug_abbrev  0x0000465a      0x272 obj/usb/ums.o
 .debug_abbrev  0x000048cc      0x2ab obj/usb/usb_busdma.o
 .debug_abbrev  0x00004b77      0x2a8 obj/usb/usb_controller.o
 .debug_abbrev  0x00004e1f      0x1df obj/usb/usb_debug.o
 .debug_abbrev  0x00004ffe      0x2eb obj/usb/usb_device.o
 .debug_abbrev  0x000052e9      0x20c obj/usb/usb_dynamic.o
 .debug_abbrev  0x000054f5      0x128 obj/usb/usb_error.o
 .debug_abbrev  0x0000561d      0x2d1 obj/usb/usb_handle_request.o
 .debug_abbrev  0x000058ee      0x2a0 obj/usb/usb_hid.o
 .debug_abbrev  0x00005b8e      0x30d obj/usb/usb_hub.o
 .debug_abbrev  0x00005e9b       0xe5 obj/usb/usb_if.o
 .debug_abbrev  0x00005f80      0x138 obj/usb/usb_parse.o
 .debug_abbrev  0x000060b8      0x214 obj/usb/usb_process.o
 .debug_abbrev  0x000062cc      0x29a obj/usb/usb_request.o
 .debug_abbrev  0x00006566      0x186 obj/usb/usb_s5a.o
 .debug_abbrev  0x000066ec      0x2f1 obj/usb/usb_transfer.o
 .debug_abbrev  0x000069dd      0x211 obj/usb/usb_util.o
 .debug_abbrev  0x00006bee      0x2d7 obj/usb/usbdev_oxu210.o
 .debug_abbrev  0x00006ec5       0x83 obj/usb_helper.o
 .debug_abbrev  0x00006f48      0x27a obj/video_helper.o
 .debug_abbrev  0x000071c2      0x25a obj/vip_helper.o
 .debug_abbrev  0x0000741c      0x546 e:/altera/10.1/nios2eds/bin/gnu/h-i686-mingw32/bin/../lib/gcc/nios2-elf/4.1.2/../../../../nios2-elf/lib\libstdc++.a(eh_personality.o)
 .debug_abbrev  0x00007962      0x340 e:/altera/10.1/nios2eds/bin/gnu/h-i686-mingw32/bin/../lib/gcc/nios2-elf/4.1.2/../../../../nios2-elf/lib\libstdc++.a(eh_globals.o)
 .debug_abbrev  0x00007ca2      0x2a1 e:/altera/10.1/nios2eds/bin/gnu/h-i686-mingw32/bin/../lib/gcc/nios2-elf/4.1.2/../../../../nios2-elf/lib\libstdc++.a(eh_throw.o)
 .debug_abbrev  0x00007f43      0x2ad e:/altera/10.1/nios2eds/bin/gnu/h-i686-mingw32/bin/../lib/gcc/nios2-elf/4.1.2/../../../../nios2-elf/lib\libstdc++.a(eh_call.o)
 .debug_abbrev  0x000081f0      0x321 e:/altera/10.1/nios2eds/bin/gnu/h-i686-mingw32/bin/../lib/gcc/nios2-elf/4.1.2/../../../../nios2-elf/lib\libstdc++.a(eh_catch.o)
 .debug_abbrev  0x00008511      0x21c e:/altera/10.1/nios2eds/bin/gnu/h-i686-mingw32/bin/../lib/gcc/nios2-elf/4.1.2/../../../../nios2-elf/lib\libstdc++.a(eh_exception.o)
 .debug_abbrev  0x0000872d      0x2dc e:/altera/10.1/nios2eds/bin/gnu/h-i686-mingw32/bin/../lib/gcc/nios2-elf/4.1.2/../../../../nios2-elf/lib\libstdc++.a(eh_terminate.o)
 .debug_abbrev  0x00008a09      0x3e2 e:/altera/10.1/nios2eds/bin/gnu/h-i686-mingw32/bin/../lib/gcc/nios2-elf/4.1.2/../../../../nios2-elf/lib\libstdc++.a(si_class_type_info.o)
 .debug_abbrev  0x00008deb      0x2e9 e:/altera/10.1/nios2eds/bin/gnu/h-i686-mingw32/bin/../lib/gcc/nios2-elf/4.1.2/../../../../nios2-elf/lib\libstdc++.a(eh_alloc.o)
 .debug_abbrev  0x000090d4      0x1fc e:/altera/10.1/nios2eds/bin/gnu/h-i686-mingw32/bin/../lib/gcc/nios2-elf/4.1.2/../../../../nios2-elf/lib\libstdc++.a(eh_term_handler.o)
 .debug_abbrev  0x000092d0      0x34f e:/altera/10.1/nios2eds/bin/gnu/h-i686-mingw32/bin/../lib/gcc/nios2-elf/4.1.2/../../../../nios2-elf/lib\libstdc++.a(tinfo.o)
 .debug_abbrev  0x0000961f      0x13d e:/altera/10.1/nios2eds/bin/gnu/h-i686-mingw32/bin/../lib/gcc/nios2-elf/4.1.2/../../../../nios2-elf/lib\libstdc++.a(del_op.o)
 .debug_abbrev  0x0000975c      0x3cb e:/altera/10.1/nios2eds/bin/gnu/h-i686-mingw32/bin/../lib/gcc/nios2-elf/4.1.2/../../../../nios2-elf/lib\libstdc++.a(class_type_info.o)
 .debug_abbrev  0x00009b27      0x1e6 e:/altera/10.1/nios2eds/bin/gnu/h-i686-mingw32/bin/../lib/gcc/nios2-elf/4.1.2/../../../../nios2-elf/lib\libstdc++.a(eh_unex_handler.o)
 .debug_abbrev  0x00009d0d       0xee e:/altera/10.1/nios2eds/bin/gnu/h-i686-mingw32/bin/../lib/gcc/nios2-elf/4.1.2\libgcc.a(_muldi3.o)
 .debug_abbrev  0x00009dfb       0x5d e:/altera/10.1/nios2eds/bin/gnu/h-i686-mingw32/bin/../lib/gcc/nios2-elf/4.1.2\libgcc.a(_fixunsdfsi.o)
 .debug_abbrev  0x00009e58       0x6c e:/altera/10.1/nios2eds/bin/gnu/h-i686-mingw32/bin/../lib/gcc/nios2-elf/4.1.2\libgcc.a(_floatdidf.o)
 .debug_abbrev  0x00009ec4      0x183 e:/altera/10.1/nios2eds/bin/gnu/h-i686-mingw32/bin/../lib/gcc/nios2-elf/4.1.2\libgcc.a(_divdi3.o)
 .debug_abbrev  0x0000a047      0x1d2 e:/altera/10.1/nios2eds/bin/gnu/h-i686-mingw32/bin/../lib/gcc/nios2-elf/4.1.2\libgcc.a(_addsub_df.o)
 .debug_abbrev  0x0000a219      0x204 e:/altera/10.1/nios2eds/bin/gnu/h-i686-mingw32/bin/../lib/gcc/nios2-elf/4.1.2\libgcc.a(_mul_df.o)
 .debug_abbrev  0x0000a41d      0x1e3 e:/altera/10.1/nios2eds/bin/gnu/h-i686-mingw32/bin/../lib/gcc/nios2-elf/4.1.2\libgcc.a(_div_df.o)
 .debug_abbrev  0x0000a600      0x151 e:/altera/10.1/nios2eds/bin/gnu/h-i686-mingw32/bin/../lib/gcc/nios2-elf/4.1.2\libgcc.a(_ne_df.o)
 .debug_abbrev  0x0000a751      0x151 e:/altera/10.1/nios2eds/bin/gnu/h-i686-mingw32/bin/../lib/gcc/nios2-elf/4.1.2\libgcc.a(_ge_df.o)
 .debug_abbrev  0x0000a8a2      0x13f e:/altera/10.1/nios2eds/bin/gnu/h-i686-mingw32/bin/../lib/gcc/nios2-elf/4.1.2\libgcc.a(_si_to_df.o)
 .debug_abbrev  0x0000a9e1      0x176 e:/altera/10.1/nios2eds/bin/gnu/h-i686-mingw32/bin/../lib/gcc/nios2-elf/4.1.2\libgcc.a(_df_to_si.o)
 .debug_abbrev  0x0000ab57       0xba e:/altera/10.1/nios2eds/bin/gnu/h-i686-mingw32/bin/../lib/gcc/nios2-elf/4.1.2\libgcc.a(_thenan_df.o)
 .debug_abbrev  0x0000ac11      0x155 e:/altera/10.1/nios2eds/bin/gnu/h-i686-mingw32/bin/../lib/gcc/nios2-elf/4.1.2\libgcc.a(_usi_to_df.o)
 .debug_abbrev  0x0000ad66       0xe0 e:/altera/10.1/nios2eds/bin/gnu/h-i686-mingw32/bin/../lib/gcc/nios2-elf/4.1.2\libgcc.a(lib2-divmod.o)
 .debug_abbrev  0x0000ae46      0x53e e:/altera/10.1/nios2eds/bin/gnu/h-i686-mingw32/bin/../lib/gcc/nios2-elf/4.1.2\libgcc.a(unwind-dw2.o)
 .debug_abbrev  0x0000b384      0x443 e:/altera/10.1/nios2eds/bin/gnu/h-i686-mingw32/bin/../lib/gcc/nios2-elf/4.1.2\libgcc.a(unwind-dw2-fde.o)
 .debug_abbrev  0x0000b7c7       0x61 e:/altera/10.1/nios2eds/bin/gnu/h-i686-mingw32/bin/../lib/gcc/nios2-elf/4.1.2\libgcc.a(_clz.o)
 .debug_abbrev  0x0000b828       0xb9 e:/altera/10.1/nios2eds/bin/gnu/h-i686-mingw32/bin/../lib/gcc/nios2-elf/4.1.2\libgcc.a(_clzsi2.o)
 .debug_abbrev  0x0000b8e1      0x1b1 e:/altera/10.1/nios2eds/bin/gnu/h-i686-mingw32/bin/../lib/gcc/nios2-elf/4.1.2\libgcc.a(_pack_df.o)
 .debug_abbrev  0x0000ba92      0x149 e:/altera/10.1/nios2eds/bin/gnu/h-i686-mingw32/bin/../lib/gcc/nios2-elf/4.1.2\libgcc.a(_unpack_df.o)
 .debug_abbrev  0x0000bbdb      0x132 e:/altera/10.1/nios2eds/bin/gnu/h-i686-mingw32/bin/../lib/gcc/nios2-elf/4.1.2\libgcc.a(_fpcmp_parts_df.o)
 .debug_abbrev  0x0000bd0d       0x3f e:/altera/10.1/nios2eds/bin/gnu/h-i686-mingw32/bin/../lib/gcc/nios2-elf/4.1.2/../../../../nios2-elf/lib\libc.a(lib_a-abort.o)
 .debug_abbrev  0x0000bd4c       0x81 e:/altera/10.1/nios2eds/bin/gnu/h-i686-mingw32/bin/../lib/gcc/nios2-elf/4.1.2/../../../../nios2-elf/lib\libc.a(lib_a-bcopy.o)
 .debug_abbrev  0x0000bdcd       0x61 e:/altera/10.1/nios2eds/bin/gnu/h-i686-mingw32/bin/../lib/gcc/nios2-elf/4.1.2/../../../../nios2-elf/lib\libc.a(lib_a-ctype_.o)
 .debug_abbrev  0x0000be2e      0x187 e:/altera/10.1/nios2eds/bin/gnu/h-i686-mingw32/bin/../lib/gcc/nios2-elf/4.1.2/../../../../nios2-elf/lib\libc.a(lib_a-malloc.o)
 .debug_abbrev  0x0000bfb5      0x216 e:/altera/10.1/nios2eds/bin/gnu/h-i686-mingw32/bin/../lib/gcc/nios2-elf/4.1.2/../../../../nios2-elf/lib\libc.a(lib_a-mallocr.o)
 .debug_abbrev  0x0000c1cb       0xb5 e:/altera/10.1/nios2eds/bin/gnu/h-i686-mingw32/bin/../lib/gcc/nios2-elf/4.1.2/../../../../nios2-elf/lib\libc.a(lib_a-memcpy.o)
 .debug_abbrev  0x0000c280       0xb5 e:/altera/10.1/nios2eds/bin/gnu/h-i686-mingw32/bin/../lib/gcc/nios2-elf/4.1.2/../../../../nios2-elf/lib\libc.a(lib_a-memmove.o)
 .debug_abbrev  0x0000c335       0xb8 e:/altera/10.1/nios2eds/bin/gnu/h-i686-mingw32/bin/../lib/gcc/nios2-elf/4.1.2/../../../../nios2-elf/lib\libc.a(lib_a-memset.o)
 .debug_abbrev  0x0000c3ed      0x191 e:/altera/10.1/nios2eds/bin/gnu/h-i686-mingw32/bin/../lib/gcc/nios2-elf/4.1.2/../../../../nios2-elf/lib\libc.a(lib_a-printf.o)
 .debug_abbrev  0x0000c57e      0x170 e:/altera/10.1/nios2eds/bin/gnu/h-i686-mingw32/bin/../lib/gcc/nios2-elf/4.1.2/../../../../nios2-elf/lib\libc.a(lib_a-putchar.o)
 .debug_abbrev  0x0000c6ee      0x1ac e:/altera/10.1/nios2eds/bin/gnu/h-i686-mingw32/bin/../lib/gcc/nios2-elf/4.1.2/../../../../nios2-elf/lib\libc.a(lib_a-puts.o)
 .debug_abbrev  0x0000c89a      0x185 e:/altera/10.1/nios2eds/bin/gnu/h-i686-mingw32/bin/../lib/gcc/nios2-elf/4.1.2/../../../../nios2-elf/lib\libc.a(lib_a-rand.o)
 .debug_abbrev  0x0000ca1f      0x18c e:/altera/10.1/nios2eds/bin/gnu/h-i686-mingw32/bin/../lib/gcc/nios2-elf/4.1.2/../../../../nios2-elf/lib\libc.a(lib_a-sbrkr.o)
 .debug_abbrev  0x0000cbab      0x1cb e:/altera/10.1/nios2eds/bin/gnu/h-i686-mingw32/bin/../lib/gcc/nios2-elf/4.1.2/../../../../nios2-elf/lib\libc.a(lib_a-signal.o)
 .debug_abbrev  0x0000cd76      0x1a5 e:/altera/10.1/nios2eds/bin/gnu/h-i686-mingw32/bin/../lib/gcc/nios2-elf/4.1.2/../../../../nios2-elf/lib\libc.a(lib_a-signalr.o)
 .debug_abbrev  0x0000cf1b      0x1a2 e:/altera/10.1/nios2eds/bin/gnu/h-i686-mingw32/bin/../lib/gcc/nios2-elf/4.1.2/../../../../nios2-elf/lib\libc.a(lib_a-snprintf.o)
 .debug_abbrev  0x0000d0bd      0x191 e:/altera/10.1/nios2eds/bin/gnu/h-i686-mingw32/bin/../lib/gcc/nios2-elf/4.1.2/../../../../nios2-elf/lib\libc.a(lib_a-sprintf.o)
 .debug_abbrev  0x0000d24e       0x80 e:/altera/10.1/nios2eds/bin/gnu/h-i686-mingw32/bin/../lib/gcc/nios2-elf/4.1.2/../../../../nios2-elf/lib\libc.a(lib_a-strcmp.o)
 .debug_abbrev  0x0000d2ce       0x8f e:/altera/10.1/nios2eds/bin/gnu/h-i686-mingw32/bin/../lib/gcc/nios2-elf/4.1.2/../../../../nios2-elf/lib\libc.a(lib_a-strcpy.o)
 .debug_abbrev  0x0000d35d      0x170 e:/altera/10.1/nios2eds/bin/gnu/h-i686-mingw32/bin/../lib/gcc/nios2-elf/4.1.2/../../../../nios2-elf/lib\libc.a(lib_a-strdup.o)
 .debug_abbrev  0x0000d4cd      0x18a e:/altera/10.1/nios2eds/bin/gnu/h-i686-mingw32/bin/../lib/gcc/nios2-elf/4.1.2/../../../../nios2-elf/lib\libc.a(lib_a-strdup_r.o)
 .debug_abbrev  0x0000d657       0x8b e:/altera/10.1/nios2eds/bin/gnu/h-i686-mingw32/bin/../lib/gcc/nios2-elf/4.1.2/../../../../nios2-elf/lib\libc.a(lib_a-strlcpy.o)
 .debug_abbrev  0x0000d6e2       0x8b e:/altera/10.1/nios2eds/bin/gnu/h-i686-mingw32/bin/../lib/gcc/nios2-elf/4.1.2/../../../../nios2-elf/lib\libc.a(lib_a-strlen.o)
 .debug_abbrev  0x0000d76d       0x9c e:/altera/10.1/nios2eds/bin/gnu/h-i686-mingw32/bin/../lib/gcc/nios2-elf/4.1.2/../../../../nios2-elf/lib\libc.a(lib_a-strncpy.o)
 .debug_abbrev  0x0000d809       0x7a e:/altera/10.1/nios2eds/bin/gnu/h-i686-mingw32/bin/../lib/gcc/nios2-elf/4.1.2/../../../../nios2-elf/lib\libc.a(lib_a-strnlen.o)
 .debug_abbrev  0x0000d883      0x30a e:/altera/10.1/nios2eds/bin/gnu/h-i686-mingw32/bin/../lib/gcc/nios2-elf/4.1.2/../../../../nios2-elf/lib\libc.a(lib_a-vfprintf.o)
 .debug_abbrev  0x0000db8d      0x170 e:/altera/10.1/nios2eds/bin/gnu/h-i686-mingw32/bin/../lib/gcc/nios2-elf/4.1.2/../../../../nios2-elf/lib\libc.a(lib_a-vprintf.o)
 .debug_abbrev  0x0000dcfd      0x1ac e:/altera/10.1/nios2eds/bin/gnu/h-i686-mingw32/bin/../lib/gcc/nios2-elf/4.1.2/../../../../nios2-elf/lib\libc.a(lib_a-vsnprintf.o)
 .debug_abbrev  0x0000dea9      0x1a5 e:/altera/10.1/nios2eds/bin/gnu/h-i686-mingw32/bin/../lib/gcc/nios2-elf/4.1.2/../../../../nios2-elf/lib\libc.a(lib_a-vsprintf.o)
 .debug_abbrev  0x0000e04e      0x170 e:/altera/10.1/nios2eds/bin/gnu/h-i686-mingw32/bin/../lib/gcc/nios2-elf/4.1.2/../../../../nios2-elf/lib\libc.a(lib_a-wsetup.o)
 .debug_abbrev  0x0000e1be      0x232 e:/altera/10.1/nios2eds/bin/gnu/h-i686-mingw32/bin/../lib/gcc/nios2-elf/4.1.2/../../../../nios2-elf/lib\libc.a(lib_a-dtoa.o)
 .debug_abbrev  0x0000e3f0      0x1c6 e:/altera/10.1/nios2eds/bin/gnu/h-i686-mingw32/bin/../lib/gcc/nios2-elf/4.1.2/../../../../nios2-elf/lib\libc.a(lib_a-fflush.o)
 .debug_abbrev  0x0000e5b6      0x24c e:/altera/10.1/nios2eds/bin/gnu/h-i686-mingw32/bin/../lib/gcc/nios2-elf/4.1.2/../../../../nios2-elf/lib\libc.a(lib_a-findfp.o)
 .debug_abbrev  0x0000e802      0x1d9 e:/altera/10.1/nios2eds/bin/gnu/h-i686-mingw32/bin/../lib/gcc/nios2-elf/4.1.2/../../../../nios2-elf/lib\libc.a(lib_a-freer.o)
 .debug_abbrev  0x0000e9db      0x1a3 e:/altera/10.1/nios2eds/bin/gnu/h-i686-mingw32/bin/../lib/gcc/nios2-elf/4.1.2/../../../../nios2-elf/lib\libc.a(lib_a-fvwrite.o)
 .debug_abbrev  0x0000eb7e      0x1e3 e:/altera/10.1/nios2eds/bin/gnu/h-i686-mingw32/bin/../lib/gcc/nios2-elf/4.1.2/../../../../nios2-elf/lib\libc.a(lib_a-fwalk.o)
 .debug_abbrev  0x0000ed61      0x157 e:/altera/10.1/nios2eds/bin/gnu/h-i686-mingw32/bin/../lib/gcc/nios2-elf/4.1.2/../../../../nios2-elf/lib\libc.a(lib_a-impure.o)
 .debug_abbrev  0x0000eeb8       0x3b e:/altera/10.1/nios2eds/bin/gnu/h-i686-mingw32/bin/../lib/gcc/nios2-elf/4.1.2/../../../../nios2-elf/lib\libc.a(lib_a-int_errno.o)
 .debug_abbrev  0x0000eef3      0x1ed e:/altera/10.1/nios2eds/bin/gnu/h-i686-mingw32/bin/../lib/gcc/nios2-elf/4.1.2/../../../../nios2-elf/lib\libc.a(lib_a-locale.o)
 .debug_abbrev  0x0000f0e0      0x197 e:/altera/10.1/nios2eds/bin/gnu/h-i686-mingw32/bin/../lib/gcc/nios2-elf/4.1.2/../../../../nios2-elf/lib\libc.a(lib_a-makebuf.o)
 .debug_abbrev  0x0000f277       0xb5 e:/altera/10.1/nios2eds/bin/gnu/h-i686-mingw32/bin/../lib/gcc/nios2-elf/4.1.2/../../../../nios2-elf/lib\libc.a(lib_a-memchr.o)
 .debug_abbrev  0x0000f32c      0x297 e:/altera/10.1/nios2eds/bin/gnu/h-i686-mingw32/bin/../lib/gcc/nios2-elf/4.1.2/../../../../nios2-elf/lib\libc.a(lib_a-mprec.o)
 .debug_abbrev  0x0000f5c3      0x17f e:/altera/10.1/nios2eds/bin/gnu/h-i686-mingw32/bin/../lib/gcc/nios2-elf/4.1.2/../../../../nios2-elf/lib\libc.a(lib_a-putc.o)
 .debug_abbrev  0x0000f742      0x1c3 e:/altera/10.1/nios2eds/bin/gnu/h-i686-mingw32/bin/../lib/gcc/nios2-elf/4.1.2/../../../../nios2-elf/lib\libc.a(lib_a-reallocr.o)
 .debug_abbrev  0x0000f905       0x79 e:/altera/10.1/nios2eds/bin/gnu/h-i686-mingw32/bin/../lib/gcc/nios2-elf/4.1.2/../../../../nios2-elf/lib\libc.a(lib_a-s_isinfd.o)
 .debug_abbrev  0x0000f97e       0x79 e:/altera/10.1/nios2eds/bin/gnu/h-i686-mingw32/bin/../lib/gcc/nios2-elf/4.1.2/../../../../nios2-elf/lib\libc.a(lib_a-s_isnand.o)
 .debug_abbrev  0x0000f9f7      0x1c9 e:/altera/10.1/nios2eds/bin/gnu/h-i686-mingw32/bin/../lib/gcc/nios2-elf/4.1.2/../../../../nios2-elf/lib\libc.a(lib_a-stdio.o)
 .debug_abbrev  0x0000fbc0      0x198 e:/altera/10.1/nios2eds/bin/gnu/h-i686-mingw32/bin/../lib/gcc/nios2-elf/4.1.2/../../../../nios2-elf/lib\libc.a(lib_a-wbuf.o)
 .debug_abbrev  0x0000fd58      0x184 e:/altera/10.1/nios2eds/bin/gnu/h-i686-mingw32/bin/../lib/gcc/nios2-elf/4.1.2/../../../../nios2-elf/lib\libc.a(lib_a-writer.o)
 .debug_abbrev  0x0000fedc      0x1b8 e:/altera/10.1/nios2eds/bin/gnu/h-i686-mingw32/bin/../lib/gcc/nios2-elf/4.1.2/../../../../nios2-elf/lib\libc.a(lib_a-callocr.o)
 .debug_abbrev  0x00010094      0x17f e:/altera/10.1/nios2eds/bin/gnu/h-i686-mingw32/bin/../lib/gcc/nios2-elf/4.1.2/../../../../nios2-elf/lib\libc.a(lib_a-closer.o)
 .debug_abbrev  0x00010213      0x1a7 e:/altera/10.1/nios2eds/bin/gnu/h-i686-mingw32/bin/../lib/gcc/nios2-elf/4.1.2/../../../../nios2-elf/lib\libc.a(lib_a-fclose.o)
 .debug_abbrev  0x000103ba      0x18e e:/altera/10.1/nios2eds/bin/gnu/h-i686-mingw32/bin/../lib/gcc/nios2-elf/4.1.2/../../../../nios2-elf/lib\libc.a(lib_a-fstatr.o)
 .debug_abbrev  0x00010548      0x17f e:/altera/10.1/nios2eds/bin/gnu/h-i686-mingw32/bin/../lib/gcc/nios2-elf/4.1.2/../../../../nios2-elf/lib\libc.a(lib_a-isattyr.o)
 .debug_abbrev  0x000106c7      0x18e e:/altera/10.1/nios2eds/bin/gnu/h-i686-mingw32/bin/../lib/gcc/nios2-elf/4.1.2/../../../../nios2-elf/lib\libc.a(lib_a-lseekr.o)
 .debug_abbrev  0x00010855      0x17f e:/altera/10.1/nios2eds/bin/gnu/h-i686-mingw32/bin/../lib/gcc/nios2-elf/4.1.2/../../../../nios2-elf/lib\libc.a(lib_a-readr.o)
 .debug_abbrev  0x000109d4      0x16b e:/altera/10.1/nios2eds/bin/gnu/h-i686-mingw32/bin/../lib/gcc/nios2-elf/4.1.2\libgcc.a(_udivdi3.o)
 .debug_abbrev  0x00010b3f      0x18e e:/altera/10.1/nios2eds/bin/gnu/h-i686-mingw32/bin/../lib/gcc/nios2-elf/4.1.2\libgcc.a(_umoddi3.o)
 .debug_abbrev  0x00010ccd      0x151 e:/altera/10.1/nios2eds/bin/gnu/h-i686-mingw32/bin/../lib/gcc/nios2-elf/4.1.2\libgcc.a(_eq_df.o)
 .debug_abbrev  0x00010e1e      0x151 e:/altera/10.1/nios2eds/bin/gnu/h-i686-mingw32/bin/../lib/gcc/nios2-elf/4.1.2\libgcc.a(_gt_df.o)
 .debug_abbrev  0x00010f6f      0x151 e:/altera/10.1/nios2eds/bin/gnu/h-i686-mingw32/bin/../lib/gcc/nios2-elf/4.1.2\libgcc.a(_lt_df.o)
 .debug_abbrev  0x000110c0      0x120 ../mf2_ddr_ucos_bsp/\libucosii_bsp.a(alt_close.o)
 .debug_abbrev  0x000111e0      0x119 ../mf2_ddr_ucos_bsp/\libucosii_bsp.a(alt_dev.o)
 .debug_abbrev  0x000112f9       0x5e ../mf2_ddr_ucos_bsp/\libucosii_bsp.a(alt_errno.o)
 .debug_abbrev  0x00011357       0xd7 ../mf2_ddr_ucos_bsp/\libucosii_bsp.a(alt_exit.o)
 .debug_abbrev  0x0001142e      0x12b ../mf2_ddr_ucos_bsp/\libucosii_bsp.a(alt_fstat.o)
 .debug_abbrev  0x00011559       0x34 ../mf2_ddr_ucos_bsp/\libucosii_bsp.a(alt_getpid.o)
 .debug_abbrev  0x0001158d      0x160 ../mf2_ddr_ucos_bsp/\libucosii_bsp.a(alt_iic.o)
 .debug_abbrev  0x000116ed      0x17e ../mf2_ddr_ucos_bsp/\libucosii_bsp.a(alt_iic_isr_register.o)
 .debug_abbrev  0x0001186b       0x96 ../mf2_ddr_ucos_bsp/\libucosii_bsp.a(alt_instruction_exception_register.o)
 .debug_abbrev  0x00011901       0x12 ../mf2_ddr_ucos_bsp/\libucosii_bsp.a(alt_irq_entry.o)
 .debug_abbrev  0x00011913       0x44 ../mf2_ddr_ucos_bsp/\libucosii_bsp.a(alt_irq_vars.o)
 .debug_abbrev  0x00011957      0x12b ../mf2_ddr_ucos_bsp/\libucosii_bsp.a(alt_isatty.o)
 .debug_abbrev  0x00011a82       0xa2 ../mf2_ddr_ucos_bsp/\libucosii_bsp.a(alt_kill.o)
 .debug_abbrev  0x00011b24       0x97 ../mf2_ddr_ucos_bsp/\libucosii_bsp.a(alt_load.o)
 .debug_abbrev  0x00011bbb      0x12b ../mf2_ddr_ucos_bsp/\libucosii_bsp.a(alt_lseek.o)
 .debug_abbrev  0x00011ce6      0x132 ../mf2_ddr_ucos_bsp/\libucosii_bsp.a(alt_main.o)
 .debug_abbrev  0x00011e18      0x12f ../mf2_ddr_ucos_bsp/\libucosii_bsp.a(alt_read.o)
 .debug_abbrev  0x00011f47       0xe2 ../mf2_ddr_ucos_bsp/\libucosii_bsp.a(alt_release_fd.o)
 .debug_abbrev  0x00012029      0x132 ../mf2_ddr_ucos_bsp/\libucosii_bsp.a(alt_sbrk.o)
 .debug_abbrev  0x0001215b      0x15f ../mf2_ddr_ucos_bsp/\libucosii_bsp.a(alt_tick.o)
 .debug_abbrev  0x000122ba       0xb7 ../mf2_ddr_ucos_bsp/\libucosii_bsp.a(alt_usleep.o)
 .debug_abbrev  0x00012371      0x134 ../mf2_ddr_ucos_bsp/\libucosii_bsp.a(alt_write.o)
 .debug_abbrev  0x000124a5       0x14 ../mf2_ddr_ucos_bsp/\libucosii_bsp.a(os_cpu_a.o)
 .debug_abbrev  0x000124b9      0x1ca ../mf2_ddr_ucos_bsp/\libucosii_bsp.a(alt_env_lock.o)
 .debug_abbrev  0x00012683      0x25f ../mf2_ddr_ucos_bsp/\libucosii_bsp.a(alt_malloc_lock.o)
 .debug_abbrev  0x000128e2      0x37b ../mf2_ddr_ucos_bsp/\libucosii_bsp.a(os_core.o)
 .debug_abbrev  0x00012c5d      0x102 ../mf2_ddr_ucos_bsp/\libucosii_bsp.a(os_dbg.o)
 .debug_abbrev  0x00012d5f      0x297 ../mf2_ddr_ucos_bsp/\libucosii_bsp.a(os_flag.o)
 .debug_abbrev  0x00012ff6      0x25a ../mf2_ddr_ucos_bsp/\libucosii_bsp.a(os_mem.o)
 .debug_abbrev  0x00013250      0x2a3 ../mf2_ddr_ucos_bsp/\libucosii_bsp.a(os_q.o)
 .debug_abbrev  0x000134f3      0x284 ../mf2_ddr_ucos_bsp/\libucosii_bsp.a(os_task.o)
 .debug_abbrev  0x00013777      0x209 ../mf2_ddr_ucos_bsp/\libucosii_bsp.a(os_time.o)
 .debug_abbrev  0x00013980      0x26b ../mf2_ddr_ucos_bsp/\libucosii_bsp.a(os_tmr.o)
 .debug_abbrev  0x00013beb      0x19e ../mf2_ddr_ucos_bsp/\libucosii_bsp.a(alt_sys_init.o)
 .debug_abbrev  0x00013d89      0x158 ../mf2_ddr_ucos_bsp/\libucosii_bsp.a(altera_avalon_jtag_uart_fd.o)
 .debug_abbrev  0x00013ee1      0x244 ../mf2_ddr_ucos_bsp/\libucosii_bsp.a(altera_avalon_jtag_uart_init.o)
 .debug_abbrev  0x00014125      0x151 ../mf2_ddr_ucos_bsp/\libucosii_bsp.a(altera_avalon_jtag_uart_ioctl.o)
 .debug_abbrev  0x00014276      0x201 ../mf2_ddr_ucos_bsp/\libucosii_bsp.a(altera_avalon_jtag_uart_read.o)
 .debug_abbrev  0x00014477      0x1ee ../mf2_ddr_ucos_bsp/\libucosii_bsp.a(altera_avalon_jtag_uart_write.o)
 .debug_abbrev  0x00014665       0xb2 ../mf2_ddr_ucos_bsp/\libucosii_bsp.a(altera_avalon_spi.o)
 .debug_abbrev  0x00014717      0x158 ../mf2_ddr_ucos_bsp/\libucosii_bsp.a(altera_avalon_timer_sc.o)
 .debug_abbrev  0x0001486f      0x179 ../mf2_ddr_ucos_bsp/\libucosii_bsp.a(alt_alarm_start.o)
 .debug_abbrev  0x000149e8       0x79 ../mf2_ddr_ucos_bsp/\libucosii_bsp.a(alt_busy_sleep.o)
 .debug_abbrev  0x00014a61       0x3f ../mf2_ddr_ucos_bsp/\libucosii_bsp.a(alt_dcache_flush_all.o)
 .debug_abbrev  0x00014aa0      0x117 ../mf2_ddr_ucos_bsp/\libucosii_bsp.a(alt_dev_llist_insert.o)
 .debug_abbrev  0x00014bb7       0x74 ../mf2_ddr_ucos_bsp/\libucosii_bsp.a(alt_do_ctors.o)
 .debug_abbrev  0x00014c2b       0x74 ../mf2_ddr_ucos_bsp/\libucosii_bsp.a(alt_do_dtors.o)
 .debug_abbrev  0x00014c9f       0x12 ../mf2_ddr_ucos_bsp/\libucosii_bsp.a(alt_exception_entry.o)
 .debug_abbrev  0x00014cb1       0x3f ../mf2_ddr_ucos_bsp/\libucosii_bsp.a(alt_icache_flush_all.o)
 .debug_abbrev  0x00014cf0       0xac ../mf2_ddr_ucos_bsp/\libucosii_bsp.a(alt_instruction_exception_entry.o)
 .debug_abbrev  0x00014d9c      0x115 ../mf2_ddr_ucos_bsp/\libucosii_bsp.a(alt_io_redirect.o)
 .debug_abbrev  0x00014eb1      0x17e ../mf2_ddr_ucos_bsp/\libucosii_bsp.a(alt_open.o)
 .debug_abbrev  0x0001502f       0x3f ../mf2_ddr_ucos_bsp/\libucosii_bsp.a(altera_nios2_irq.o)
 .debug_abbrev  0x0001506e       0xf4 ../mf2_ddr_ucos_bsp/\libucosii_bsp.a(alt_find_dev.o)
 .debug_abbrev  0x00015162       0xf4 ../mf2_ddr_ucos_bsp/\libucosii_bsp.a(alt_find_file.o)
 .debug_abbrev  0x00015256      0x192 ../mf2_ddr_ucos_bsp/\libucosii_bsp.a(alt_get_fd.o)
 .debug_abbrev  0x000153e8       0x89 ../mf2_ddr_ucos_bsp/\libucosii_bsp.a(alt_icache_flush.o)
 .debug_abbrev  0x00015471       0xb7 e:/altera/10.1/nios2eds/bin/gnu/h-i686-mingw32/bin/../lib/gcc/nios2-elf/4.1.2/../../../../nios2-elf/lib\libc.a(lib_a-atexit.o)
 .debug_abbrev  0x00015528      0x16e e:/altera/10.1/nios2eds/bin/gnu/h-i686-mingw32/bin/../lib/gcc/nios2-elf/4.1.2/../../../../nios2-elf/lib\libc.a(lib_a-exit.o)
 .debug_abbrev  0x00015696       0x7c e:/altera/10.1/nios2eds/bin/gnu/h-i686-mingw32/bin/../lib/gcc/nios2-elf/4.1.2/../../../../nios2-elf/lib\libc.a(lib_a-memcmp.o)
 .debug_abbrev  0x00015712      0x1ae e:/altera/10.1/nios2eds/bin/gnu/h-i686-mingw32/bin/../lib/gcc/nios2-elf/4.1.2/../../../../nios2-elf/lib\libc.a(lib_a-__atexit.o)
 .debug_abbrev  0x000158c0      0x1de e:/altera/10.1/nios2eds/bin/gnu/h-i686-mingw32/bin/../lib/gcc/nios2-elf/4.1.2/../../../../nios2-elf/lib\libc.a(lib_a-__call_atexit.o)

.debug_line     0x00000000    0x4bbe8
 *(.debug_line)
 .debug_line    0x00000000       0xb0 ../mf2_ddr_ucos_bsp//obj/HAL/src/crt0.o
 .debug_line    0x000000b0      0x2fc obj/alt-irq-handler.o
 .debug_line    0x000003ac      0x45a obj/dbg_helper.o
 .debug_line    0x00000806      0x542 obj/ddc_helper.o
 .debug_line    0x00000d48      0x548 obj/dynedid.o
 .debug_line    0x00001290      0xd28 obj/ee_helper.o
 .debug_line    0x00001fb8      0x612 obj/fifo_helper.o
 .debug_line    0x000025ca      0x417 obj/i2c_master.o
 .debug_line    0x000029e1      0x2d5 obj/main.o
 .debug_line    0x00002cb6      0x9d1 obj/os-support.o
 .debug_line    0x00003687      0x8dd obj/os_bsem.o
 .debug_line    0x00003f64      0x334 obj/os_cpu_c.o
 .debug_line    0x00004298      0xccd obj/os_sem.o
 .debug_line    0x00004f65      0x1af obj/ow.o
 .debug_line    0x00005114      0x45b obj/pll_helper.o
 .debug_line    0x0000556f      0xdc9 obj/sys-base.o
 .debug_line    0x00006338       0x6f obj/touchcon.o
 .debug_line    0x000063a7      0xa95 obj/ts_helper.o
 .debug_line    0x00006e3c      0x4f7 obj/tvp7002_helper.o
 .debug_line    0x00007333      0x296 obj/uhe.o
 .debug_line    0x000075c9      0x915 obj/usb/bsd-bus-dma.o
 .debug_line    0x00007ede      0xb5c obj/usb/bsd-wrap.o
 .debug_line    0x00008a3a      0x388 obj/usb/bus_if.o
 .debug_line    0x00008dc2      0x371 obj/usb/device_if.o
 .debug_line    0x00009133     0x30f8 obj/usb/ehci.o
 .debug_line    0x0000c22b      0x62f obj/usb/ehci_oxu210.o
 .debug_line    0x0000c85a      0x385 obj/usb/init_main.o
 .debug_line    0x0000cbdf      0x394 obj/usb/kern_linker.o
 .debug_line    0x0000cf73      0x4fb obj/usb/kern_module.o
 .debug_line    0x0000d46e     0x147f obj/usb/kern_sysctl.o
 .debug_line    0x0000e8ed      0x6e4 obj/usb/oxu210-alloc.o
 .debug_line    0x0000efd1      0x526 obj/usb/oxu210-intr.o
 .debug_line    0x0000f4f7     0x1418 obj/usb/pdev.o
 .debug_line    0x0001090f      0x354 obj/usb/s5a-autoconf.o
 .debug_line    0x00010c63     0x2adf obj/usb/subr_bus.o
 .debug_line    0x00013742      0x790 obj/usb/subr_kobj.o
 .debug_line    0x00013ed2      0x866 obj/usb/subr_uio.o
 .debug_line    0x00014738      0x50d obj/usb/tc-mtouch.o
 .debug_line    0x00014c45      0x56e obj/usb/tc-zytronic.o
 .debug_line    0x000151b3      0x7da obj/usb/tc.o
 .debug_line    0x0001598d      0xa73 obj/usb/ums.o
 .debug_line    0x00016400      0xdfa obj/usb/usb_busdma.o
 .debug_line    0x000171fa      0x98c obj/usb/usb_controller.o
 .debug_line    0x00017b86      0x502 obj/usb/usb_debug.o
 .debug_line    0x00018088     0x1d48 obj/usb/usb_device.o
 .debug_line    0x00019dd0      0x4d3 obj/usb/usb_dynamic.o
 .debug_line    0x0001a2a3      0x3a9 obj/usb/usb_error.o
 .debug_line    0x0001a64c      0xbee obj/usb/usb_handle_request.o
 .debug_line    0x0001b23a      0xed4 obj/usb/usb_hid.o
 .debug_line    0x0001c10e     0x1ca6 obj/usb/usb_hub.o
 .debug_line    0x0001ddb4      0x31e obj/usb/usb_if.o
 .debug_line    0x0001e0d2      0x619 obj/usb/usb_parse.o
 .debug_line    0x0001e6eb      0x804 obj/usb/usb_process.o
 .debug_line    0x0001eeef     0x1767 obj/usb/usb_request.o
 .debug_line    0x00020656      0x491 obj/usb/usb_s5a.o
 .debug_line    0x00020ae7     0x2528 obj/usb/usb_transfer.o
 .debug_line    0x0002300f      0x658 obj/usb/usb_util.o
 .debug_line    0x00023667     0x122d obj/usb/usbdev_oxu210.o
 .debug_line    0x00024894      0x3f2 obj/usb_helper.o
 .debug_line    0x00024c86      0x718 obj/video_helper.o
 .debug_line    0x0002539e     0x13cc obj/vip_helper.o
 .debug_line    0x0002676a      0xcca e:/altera/10.1/nios2eds/bin/gnu/h-i686-mingw32/bin/../lib/gcc/nios2-elf/4.1.2/../../../../nios2-elf/lib\libstdc++.a(eh_personality.o)
 .debug_line    0x00027434      0x362 e:/altera/10.1/nios2eds/bin/gnu/h-i686-mingw32/bin/../lib/gcc/nios2-elf/4.1.2/../../../../nios2-elf/lib\libstdc++.a(eh_globals.o)
 .debug_line    0x00027796      0x3c8 e:/altera/10.1/nios2eds/bin/gnu/h-i686-mingw32/bin/../lib/gcc/nios2-elf/4.1.2/../../../../nios2-elf/lib\libstdc++.a(eh_throw.o)
 .debug_line    0x00027b5e      0x353 e:/altera/10.1/nios2eds/bin/gnu/h-i686-mingw32/bin/../lib/gcc/nios2-elf/4.1.2/../../../../nios2-elf/lib\libstdc++.a(eh_call.o)
 .debug_line    0x00027eb1      0x4f3 e:/altera/10.1/nios2eds/bin/gnu/h-i686-mingw32/bin/../lib/gcc/nios2-elf/4.1.2/../../../../nios2-elf/lib\libstdc++.a(eh_catch.o)
 .debug_line    0x000283a4      0x292 e:/altera/10.1/nios2eds/bin/gnu/h-i686-mingw32/bin/../lib/gcc/nios2-elf/4.1.2/../../../../nios2-elf/lib\libstdc++.a(eh_exception.o)
 .debug_line    0x00028636      0x3e2 e:/altera/10.1/nios2eds/bin/gnu/h-i686-mingw32/bin/../lib/gcc/nios2-elf/4.1.2/../../../../nios2-elf/lib\libstdc++.a(eh_terminate.o)
 .debug_line    0x00028a18      0x384 e:/altera/10.1/nios2eds/bin/gnu/h-i686-mingw32/bin/../lib/gcc/nios2-elf/4.1.2/../../../../nios2-elf/lib\libstdc++.a(si_class_type_info.o)
 .debug_line    0x00028d9c      0x496 e:/altera/10.1/nios2eds/bin/gnu/h-i686-mingw32/bin/../lib/gcc/nios2-elf/4.1.2/../../../../nios2-elf/lib\libstdc++.a(eh_alloc.o)
 .debug_line    0x00029232      0x239 e:/altera/10.1/nios2eds/bin/gnu/h-i686-mingw32/bin/../lib/gcc/nios2-elf/4.1.2/../../../../nios2-elf/lib\libstdc++.a(eh_term_handler.o)
 .debug_line    0x0002946b      0x2be e:/altera/10.1/nios2eds/bin/gnu/h-i686-mingw32/bin/../lib/gcc/nios2-elf/4.1.2/../../../../nios2-elf/lib\libstdc++.a(tinfo.o)
 .debug_line    0x00029729      0x311 e:/altera/10.1/nios2eds/bin/gnu/h-i686-mingw32/bin/../lib/gcc/nios2-elf/4.1.2/../../../../nios2-elf/lib\libstdc++.a(del_op.o)
 .debug_line    0x00029a3a      0x3f4 e:/altera/10.1/nios2eds/bin/gnu/h-i686-mingw32/bin/../lib/gcc/nios2-elf/4.1.2/../../../../nios2-elf/lib\libstdc++.a(class_type_info.o)
 .debug_line    0x00029e2e      0x21b e:/altera/10.1/nios2eds/bin/gnu/h-i686-mingw32/bin/../lib/gcc/nios2-elf/4.1.2/../../../../nios2-elf/lib\libstdc++.a(eh_unex_handler.o)
 .debug_line    0x0002a049      0x11f e:/altera/10.1/nios2eds/bin/gnu/h-i686-mingw32/bin/../lib/gcc/nios2-elf/4.1.2\libgcc.a(_muldi3.o)
 .debug_line    0x0002a168       0xff e:/altera/10.1/nios2eds/bin/gnu/h-i686-mingw32/bin/../lib/gcc/nios2-elf/4.1.2\libgcc.a(_fixunsdfsi.o)
 .debug_line    0x0002a267       0xdf e:/altera/10.1/nios2eds/bin/gnu/h-i686-mingw32/bin/../lib/gcc/nios2-elf/4.1.2\libgcc.a(_floatdidf.o)
 .debug_line    0x0002a346      0x367 e:/altera/10.1/nios2eds/bin/gnu/h-i686-mingw32/bin/../lib/gcc/nios2-elf/4.1.2\libgcc.a(_divdi3.o)
 .debug_line    0x0002a6ad      0x430 e:/altera/10.1/nios2eds/bin/gnu/h-i686-mingw32/bin/../lib/gcc/nios2-elf/4.1.2\libgcc.a(_addsub_df.o)
 .debug_line    0x0002aadd      0x3e5 e:/altera/10.1/nios2eds/bin/gnu/h-i686-mingw32/bin/../lib/gcc/nios2-elf/4.1.2\libgcc.a(_mul_df.o)
 .debug_line    0x0002aec2      0x301 e:/altera/10.1/nios2eds/bin/gnu/h-i686-mingw32/bin/../lib/gcc/nios2-elf/4.1.2\libgcc.a(_div_df.o)
 .debug_line    0x0002b1c3      0x129 e:/altera/10.1/nios2eds/bin/gnu/h-i686-mingw32/bin/../lib/gcc/nios2-elf/4.1.2\libgcc.a(_ne_df.o)
 .debug_line    0x0002b2ec      0x129 e:/altera/10.1/nios2eds/bin/gnu/h-i686-mingw32/bin/../lib/gcc/nios2-elf/4.1.2\libgcc.a(_ge_df.o)
 .debug_line    0x0002b415      0x175 e:/altera/10.1/nios2eds/bin/gnu/h-i686-mingw32/bin/../lib/gcc/nios2-elf/4.1.2\libgcc.a(_si_to_df.o)
 .debug_line    0x0002b58a      0x149 e:/altera/10.1/nios2eds/bin/gnu/h-i686-mingw32/bin/../lib/gcc/nios2-elf/4.1.2\libgcc.a(_df_to_si.o)
 .debug_line    0x0002b6d3       0x94 e:/altera/10.1/nios2eds/bin/gnu/h-i686-mingw32/bin/../lib/gcc/nios2-elf/4.1.2\libgcc.a(_thenan_df.o)
 .debug_line    0x0002b767      0x189 e:/altera/10.1/nios2eds/bin/gnu/h-i686-mingw32/bin/../lib/gcc/nios2-elf/4.1.2\libgcc.a(_usi_to_df.o)
 .debug_line    0x0002b8f0      0x24f e:/altera/10.1/nios2eds/bin/gnu/h-i686-mingw32/bin/../lib/gcc/nios2-elf/4.1.2\libgcc.a(lib2-divmod.o)
 .debug_line    0x0002bb3f     0x203d e:/altera/10.1/nios2eds/bin/gnu/h-i686-mingw32/bin/../lib/gcc/nios2-elf/4.1.2\libgcc.a(unwind-dw2.o)
 .debug_line    0x0002db7c     0x13fa e:/altera/10.1/nios2eds/bin/gnu/h-i686-mingw32/bin/../lib/gcc/nios2-elf/4.1.2\libgcc.a(unwind-dw2-fde.o)
 .debug_line    0x0002ef76       0xaa e:/altera/10.1/nios2eds/bin/gnu/h-i686-mingw32/bin/../lib/gcc/nios2-elf/4.1.2\libgcc.a(_clz.o)
 .debug_line    0x0002f020      0x105 e:/altera/10.1/nios2eds/bin/gnu/h-i686-mingw32/bin/../lib/gcc/nios2-elf/4.1.2\libgcc.a(_clzsi2.o)
 .debug_line    0x0002f125      0x222 e:/altera/10.1/nios2eds/bin/gnu/h-i686-mingw32/bin/../lib/gcc/nios2-elf/4.1.2\libgcc.a(_pack_df.o)
 .debug_line    0x0002f347      0x1e4 e:/altera/10.1/nios2eds/bin/gnu/h-i686-mingw32/bin/../lib/gcc/nios2-elf/4.1.2\libgcc.a(_unpack_df.o)
 .debug_line    0x0002f52b      0x187 e:/altera/10.1/nios2eds/bin/gnu/h-i686-mingw32/bin/../lib/gcc/nios2-elf/4.1.2\libgcc.a(_fpcmp_parts_df.o)
 .debug_line    0x0002f6b2      0x20b e:/altera/10.1/nios2eds/bin/gnu/h-i686-mingw32/bin/../lib/gcc/nios2-elf/4.1.2/../../../../nios2-elf/lib\libc.a(lib_a-abort.o)
 .debug_line    0x0002f8bd      0x213 e:/altera/10.1/nios2eds/bin/gnu/h-i686-mingw32/bin/../lib/gcc/nios2-elf/4.1.2/../../../../nios2-elf/lib\libc.a(lib_a-bcopy.o)
 .debug_line    0x0002fad0       0x7e e:/altera/10.1/nios2eds/bin/gnu/h-i686-mingw32/bin/../lib/gcc/nios2-elf/4.1.2/../../../../nios2-elf/lib\libc.a(lib_a-ctype_.o)
 .debug_line    0x0002fb4e      0x225 e:/altera/10.1/nios2eds/bin/gnu/h-i686-mingw32/bin/../lib/gcc/nios2-elf/4.1.2/../../../../nios2-elf/lib\libc.a(lib_a-malloc.o)
 .debug_line    0x0002fd73      0x7e4 e:/altera/10.1/nios2eds/bin/gnu/h-i686-mingw32/bin/../lib/gcc/nios2-elf/4.1.2/../../../../nios2-elf/lib\libc.a(lib_a-mallocr.o)
 .debug_line    0x00030557      0x199 e:/altera/10.1/nios2eds/bin/gnu/h-i686-mingw32/bin/../lib/gcc/nios2-elf/4.1.2/../../../../nios2-elf/lib\libc.a(lib_a-memcpy.o)
 .debug_line    0x000306f0      0x2d1 e:/altera/10.1/nios2eds/bin/gnu/h-i686-mingw32/bin/../lib/gcc/nios2-elf/4.1.2/../../../../nios2-elf/lib\libc.a(lib_a-memmove.o)
 .debug_line    0x000309c1      0x2c8 e:/altera/10.1/nios2eds/bin/gnu/h-i686-mingw32/bin/../lib/gcc/nios2-elf/4.1.2/../../../../nios2-elf/lib\libc.a(lib_a-memset.o)
 .debug_line    0x00030c89      0x275 e:/altera/10.1/nios2eds/bin/gnu/h-i686-mingw32/bin/../lib/gcc/nios2-elf/4.1.2/../../../../nios2-elf/lib\libc.a(lib_a-printf.o)
 .debug_line    0x00030efe      0x23e e:/altera/10.1/nios2eds/bin/gnu/h-i686-mingw32/bin/../lib/gcc/nios2-elf/4.1.2/../../../../nios2-elf/lib\libc.a(lib_a-putchar.o)
 .debug_line    0x0003113c      0x2d1 e:/altera/10.1/nios2eds/bin/gnu/h-i686-mingw32/bin/../lib/gcc/nios2-elf/4.1.2/../../../../nios2-elf/lib\libc.a(lib_a-puts.o)
 .debug_line    0x0003140d      0x217 e:/altera/10.1/nios2eds/bin/gnu/h-i686-mingw32/bin/../lib/gcc/nios2-elf/4.1.2/../../../../nios2-elf/lib\libc.a(lib_a-rand.o)
 .debug_line    0x00031624      0x260 e:/altera/10.1/nios2eds/bin/gnu/h-i686-mingw32/bin/../lib/gcc/nios2-elf/4.1.2/../../../../nios2-elf/lib\libc.a(lib_a-sbrkr.o)
 .debug_line    0x00031884      0x4b8 e:/altera/10.1/nios2eds/bin/gnu/h-i686-mingw32/bin/../lib/gcc/nios2-elf/4.1.2/../../../../nios2-elf/lib\libc.a(lib_a-signal.o)
 .debug_line    0x00031d3c      0x252 e:/altera/10.1/nios2eds/bin/gnu/h-i686-mingw32/bin/../lib/gcc/nios2-elf/4.1.2/../../../../nios2-elf/lib\libc.a(lib_a-signalr.o)
 .debug_line    0x00031f8e      0x381 e:/altera/10.1/nios2eds/bin/gnu/h-i686-mingw32/bin/../lib/gcc/nios2-elf/4.1.2/../../../../nios2-elf/lib\libc.a(lib_a-snprintf.o)
 .debug_line    0x0003230f      0x2fc e:/altera/10.1/nios2eds/bin/gnu/h-i686-mingw32/bin/../lib/gcc/nios2-elf/4.1.2/../../../../nios2-elf/lib\libc.a(lib_a-sprintf.o)
 .debug_line    0x0003260b      0x29c e:/altera/10.1/nios2eds/bin/gnu/h-i686-mingw32/bin/../lib/gcc/nios2-elf/4.1.2/../../../../nios2-elf/lib\libc.a(lib_a-strcmp.o)
 .debug_line    0x000328a7      0x24e e:/altera/10.1/nios2eds/bin/gnu/h-i686-mingw32/bin/../lib/gcc/nios2-elf/4.1.2/../../../../nios2-elf/lib\libc.a(lib_a-strcpy.o)
 .debug_line    0x00032af5      0x1e9 e:/altera/10.1/nios2eds/bin/gnu/h-i686-mingw32/bin/../lib/gcc/nios2-elf/4.1.2/../../../../nios2-elf/lib\libc.a(lib_a-strdup.o)
 .debug_line    0x00032cde      0x20b e:/altera/10.1/nios2eds/bin/gnu/h-i686-mingw32/bin/../lib/gcc/nios2-elf/4.1.2/../../../../nios2-elf/lib\libc.a(lib_a-strdup_r.o)
 .debug_line    0x00032ee9      0x26b e:/altera/10.1/nios2eds/bin/gnu/h-i686-mingw32/bin/../lib/gcc/nios2-elf/4.1.2/../../../../nios2-elf/lib\libc.a(lib_a-strlcpy.o)
 .debug_line    0x00033154      0x234 e:/altera/10.1/nios2eds/bin/gnu/h-i686-mingw32/bin/../lib/gcc/nios2-elf/4.1.2/../../../../nios2-elf/lib\libc.a(lib_a-strlen.o)
 .debug_line    0x00033388      0x297 e:/altera/10.1/nios2eds/bin/gnu/h-i686-mingw32/bin/../lib/gcc/nios2-elf/4.1.2/../../../../nios2-elf/lib\libc.a(lib_a-strncpy.o)
 .debug_line    0x0003361f      0x21d e:/altera/10.1/nios2eds/bin/gnu/h-i686-mingw32/bin/../lib/gcc/nios2-elf/4.1.2/../../../../nios2-elf/lib\libc.a(lib_a-strnlen.o)
 .debug_line    0x0003383c     0x10e6 e:/altera/10.1/nios2eds/bin/gnu/h-i686-mingw32/bin/../lib/gcc/nios2-elf/4.1.2/../../../../nios2-elf/lib\libc.a(lib_a-vfprintf.o)
 .debug_line    0x00034922      0x249 e:/altera/10.1/nios2eds/bin/gnu/h-i686-mingw32/bin/../lib/gcc/nios2-elf/4.1.2/../../../../nios2-elf/lib\libc.a(lib_a-vprintf.o)
 .debug_line    0x00034b6b      0x2ef e:/altera/10.1/nios2eds/bin/gnu/h-i686-mingw32/bin/../lib/gcc/nios2-elf/4.1.2/../../../../nios2-elf/lib\libc.a(lib_a-vsnprintf.o)
 .debug_line    0x00034e5a      0x2b3 e:/altera/10.1/nios2eds/bin/gnu/h-i686-mingw32/bin/../lib/gcc/nios2-elf/4.1.2/../../../../nios2-elf/lib\libc.a(lib_a-vsprintf.o)
 .debug_line    0x0003510d      0x2ca e:/altera/10.1/nios2eds/bin/gnu/h-i686-mingw32/bin/../lib/gcc/nios2-elf/4.1.2/../../../../nios2-elf/lib\libc.a(lib_a-wsetup.o)
 .debug_line    0x000353d7     0x12a0 e:/altera/10.1/nios2eds/bin/gnu/h-i686-mingw32/bin/../lib/gcc/nios2-elf/4.1.2/../../../../nios2-elf/lib\libc.a(lib_a-dtoa.o)
 .debug_line    0x00036677      0x3e7 e:/altera/10.1/nios2eds/bin/gnu/h-i686-mingw32/bin/../lib/gcc/nios2-elf/4.1.2/../../../../nios2-elf/lib\libc.a(lib_a-fflush.o)
 .debug_line    0x00036a5e      0x5db e:/altera/10.1/nios2eds/bin/gnu/h-i686-mingw32/bin/../lib/gcc/nios2-elf/4.1.2/../../../../nios2-elf/lib\libc.a(lib_a-findfp.o)
 .debug_line    0x00037039      0x5c5 e:/altera/10.1/nios2eds/bin/gnu/h-i686-mingw32/bin/../lib/gcc/nios2-elf/4.1.2/../../../../nios2-elf/lib\libc.a(lib_a-freer.o)
 .debug_line    0x000375fe      0x61b e:/altera/10.1/nios2eds/bin/gnu/h-i686-mingw32/bin/../lib/gcc/nios2-elf/4.1.2/../../../../nios2-elf/lib\libc.a(lib_a-fvwrite.o)
 .debug_line    0x00037c19      0x324 e:/altera/10.1/nios2eds/bin/gnu/h-i686-mingw32/bin/../lib/gcc/nios2-elf/4.1.2/../../../../nios2-elf/lib\libc.a(lib_a-fwalk.o)
 .debug_line    0x00037f3d      0x1f4 e:/altera/10.1/nios2eds/bin/gnu/h-i686-mingw32/bin/../lib/gcc/nios2-elf/4.1.2/../../../../nios2-elf/lib\libc.a(lib_a-impure.o)
 .debug_line    0x00038131      0x1b9 e:/altera/10.1/nios2eds/bin/gnu/h-i686-mingw32/bin/../lib/gcc/nios2-elf/4.1.2/../../../../nios2-elf/lib\libc.a(lib_a-int_errno.o)
 .debug_line    0x000382ea      0x2a2 e:/altera/10.1/nios2eds/bin/gnu/h-i686-mingw32/bin/../lib/gcc/nios2-elf/4.1.2/../../../../nios2-elf/lib\libc.a(lib_a-locale.o)
 .debug_line    0x0003858c      0x39d e:/altera/10.1/nios2eds/bin/gnu/h-i686-mingw32/bin/../lib/gcc/nios2-elf/4.1.2/../../../../nios2-elf/lib\libc.a(lib_a-makebuf.o)
 .debug_line    0x00038929      0x2ca e:/altera/10.1/nios2eds/bin/gnu/h-i686-mingw32/bin/../lib/gcc/nios2-elf/4.1.2/../../../../nios2-elf/lib\libc.a(lib_a-memchr.o)
 .debug_line    0x00038bf3     0x121d e:/altera/10.1/nios2eds/bin/gnu/h-i686-mingw32/bin/../lib/gcc/nios2-elf/4.1.2/../../../../nios2-elf/lib\libc.a(lib_a-mprec.o)
 .debug_line    0x00039e10      0x29e e:/altera/10.1/nios2eds/bin/gnu/h-i686-mingw32/bin/../lib/gcc/nios2-elf/4.1.2/../../../../nios2-elf/lib\libc.a(lib_a-putc.o)
 .debug_line    0x0003a0ae      0x564 e:/altera/10.1/nios2eds/bin/gnu/h-i686-mingw32/bin/../lib/gcc/nios2-elf/4.1.2/../../../../nios2-elf/lib\libc.a(lib_a-reallocr.o)
 .debug_line    0x0003a612      0x1fc e:/altera/10.1/nios2eds/bin/gnu/h-i686-mingw32/bin/../lib/gcc/nios2-elf/4.1.2/../../../../nios2-elf/lib\libc.a(lib_a-s_isinfd.o)
 .debug_line    0x0003a80e      0x1f4 e:/altera/10.1/nios2eds/bin/gnu/h-i686-mingw32/bin/../lib/gcc/nios2-elf/4.1.2/../../../../nios2-elf/lib\libc.a(lib_a-s_isnand.o)
 .debug_line    0x0003aa02      0x366 e:/altera/10.1/nios2eds/bin/gnu/h-i686-mingw32/bin/../lib/gcc/nios2-elf/4.1.2/../../../../nios2-elf/lib\libc.a(lib_a-stdio.o)
 .debug_line    0x0003ad68      0x32a e:/altera/10.1/nios2eds/bin/gnu/h-i686-mingw32/bin/../lib/gcc/nios2-elf/4.1.2/../../../../nios2-elf/lib\libc.a(lib_a-wbuf.o)
 .debug_line    0x0003b092      0x261 e:/altera/10.1/nios2eds/bin/gnu/h-i686-mingw32/bin/../lib/gcc/nios2-elf/4.1.2/../../../../nios2-elf/lib\libc.a(lib_a-writer.o)
 .debug_line    0x0003b2f3      0x236 e:/altera/10.1/nios2eds/bin/gnu/h-i686-mingw32/bin/../lib/gcc/nios2-elf/4.1.2/../../../../nios2-elf/lib\libc.a(lib_a-callocr.o)
 .debug_line    0x0003b529      0x261 e:/altera/10.1/nios2eds/bin/gnu/h-i686-mingw32/bin/../lib/gcc/nios2-elf/4.1.2/../../../../nios2-elf/lib\libc.a(lib_a-closer.o)
 .debug_line    0x0003b78a      0x2c2 e:/altera/10.1/nios2eds/bin/gnu/h-i686-mingw32/bin/../lib/gcc/nios2-elf/4.1.2/../../../../nios2-elf/lib\libc.a(lib_a-fclose.o)
 .debug_line    0x0003ba4c      0x23e e:/altera/10.1/nios2eds/bin/gnu/h-i686-mingw32/bin/../lib/gcc/nios2-elf/4.1.2/../../../../nios2-elf/lib\libc.a(lib_a-fstatr.o)
 .debug_line    0x0003bc8a      0x262 e:/altera/10.1/nios2eds/bin/gnu/h-i686-mingw32/bin/../lib/gcc/nios2-elf/4.1.2/../../../../nios2-elf/lib\libc.a(lib_a-isattyr.o)
 .debug_line    0x0003beec      0x261 e:/altera/10.1/nios2eds/bin/gnu/h-i686-mingw32/bin/../lib/gcc/nios2-elf/4.1.2/../../../../nios2-elf/lib\libc.a(lib_a-lseekr.o)
 .debug_line    0x0003c14d      0x260 e:/altera/10.1/nios2eds/bin/gnu/h-i686-mingw32/bin/../lib/gcc/nios2-elf/4.1.2/../../../../nios2-elf/lib\libc.a(lib_a-readr.o)
 .debug_line    0x0003c3ad      0x2f2 e:/altera/10.1/nios2eds/bin/gnu/h-i686-mingw32/bin/../lib/gcc/nios2-elf/4.1.2\libgcc.a(_udivdi3.o)
 .debug_line    0x0003c69f      0x37d e:/altera/10.1/nios2eds/bin/gnu/h-i686-mingw32/bin/../lib/gcc/nios2-elf/4.1.2\libgcc.a(_umoddi3.o)
 .debug_line    0x0003ca1c      0x129 e:/altera/10.1/nios2eds/bin/gnu/h-i686-mingw32/bin/../lib/gcc/nios2-elf/4.1.2\libgcc.a(_eq_df.o)
 .debug_line    0x0003cb45      0x129 e:/altera/10.1/nios2eds/bin/gnu/h-i686-mingw32/bin/../lib/gcc/nios2-elf/4.1.2\libgcc.a(_gt_df.o)
 .debug_line    0x0003cc6e      0x129 e:/altera/10.1/nios2eds/bin/gnu/h-i686-mingw32/bin/../lib/gcc/nios2-elf/4.1.2\libgcc.a(_lt_df.o)
 .debug_line    0x0003cd97      0x34d ../mf2_ddr_ucos_bsp/\libucosii_bsp.a(alt_close.o)
 .debug_line    0x0003d0e4      0x2ee ../mf2_ddr_ucos_bsp/\libucosii_bsp.a(alt_dev.o)
 .debug_line    0x0003d3d2      0x1e6 ../mf2_ddr_ucos_bsp/\libucosii_bsp.a(alt_errno.o)
 .debug_line    0x0003d5b8      0x288 ../mf2_ddr_ucos_bsp/\libucosii_bsp.a(alt_exit.o)
 .debug_line    0x0003d840      0x33b ../mf2_ddr_ucos_bsp/\libucosii_bsp.a(alt_fstat.o)
 .debug_line    0x0003db7b       0xab ../mf2_ddr_ucos_bsp/\libucosii_bsp.a(alt_getpid.o)
 .debug_line    0x0003dc26      0x2bb ../mf2_ddr_ucos_bsp/\libucosii_bsp.a(alt_iic.o)
 .debug_line    0x0003dee1      0x275 ../mf2_ddr_ucos_bsp/\libucosii_bsp.a(alt_iic_isr_register.o)
 .debug_line    0x0003e156      0x125 ../mf2_ddr_ucos_bsp/\libucosii_bsp.a(alt_instruction_exception_register.o)
 .debug_line    0x0003e27b       0xad ../mf2_ddr_ucos_bsp/\libucosii_bsp.a(alt_irq_entry.o)
 .debug_line    0x0003e328       0xb4 ../mf2_ddr_ucos_bsp/\libucosii_bsp.a(alt_irq_vars.o)
 .debug_line    0x0003e3dc      0x332 ../mf2_ddr_ucos_bsp/\libucosii_bsp.a(alt_isatty.o)
 .debug_line    0x0003e70e      0x26f ../mf2_ddr_ucos_bsp/\libucosii_bsp.a(alt_kill.o)
 .debug_line    0x0003e97d      0x253 ../mf2_ddr_ucos_bsp/\libucosii_bsp.a(alt_load.o)
 .debug_line    0x0003ebd0      0x307 ../mf2_ddr_ucos_bsp/\libucosii_bsp.a(alt_lseek.o)
 .debug_line    0x0003eed7      0x3b3 ../mf2_ddr_ucos_bsp/\libucosii_bsp.a(alt_main.o)
 .debug_line    0x0003f28a      0x37c ../mf2_ddr_ucos_bsp/\libucosii_bsp.a(alt_read.o)
 .debug_line    0x0003f606      0x2c5 ../mf2_ddr_ucos_bsp/\libucosii_bsp.a(alt_release_fd.o)
 .debug_line    0x0003f8cb      0x2cc ../mf2_ddr_ucos_bsp/\libucosii_bsp.a(alt_sbrk.o)
 .debug_line    0x0003fb97      0x368 ../mf2_ddr_ucos_bsp/\libucosii_bsp.a(alt_tick.o)
 .debug_line    0x0003feff      0x2fb ../mf2_ddr_ucos_bsp/\libucosii_bsp.a(alt_usleep.o)
 .debug_line    0x000401fa      0x37d ../mf2_ddr_ucos_bsp/\libucosii_bsp.a(alt_write.o)
 .debug_line    0x00040577       0xc8 ../mf2_ddr_ucos_bsp/\libucosii_bsp.a(os_cpu_a.o)
 .debug_line    0x0004063f      0x34d ../mf2_ddr_ucos_bsp/\libucosii_bsp.a(alt_env_lock.o)
 .debug_line    0x0004098c      0x3c1 ../mf2_ddr_ucos_bsp/\libucosii_bsp.a(alt_malloc_lock.o)
 .debug_line    0x00040d4d     0x171f ../mf2_ddr_ucos_bsp/\libucosii_bsp.a(os_core.o)
 .debug_line    0x0004246c      0x254 ../mf2_ddr_ucos_bsp/\libucosii_bsp.a(os_dbg.o)
 .debug_line    0x000426c0      0xf0b ../mf2_ddr_ucos_bsp/\libucosii_bsp.a(os_flag.o)
 .debug_line    0x000435cb      0x731 ../mf2_ddr_ucos_bsp/\libucosii_bsp.a(os_mem.o)
 .debug_line    0x00043cfc      0xcf8 ../mf2_ddr_ucos_bsp/\libucosii_bsp.a(os_q.o)
 .debug_line    0x000449f4      0xf9b ../mf2_ddr_ucos_bsp/\libucosii_bsp.a(os_task.o)
 .debug_line    0x0004598f      0x502 ../mf2_ddr_ucos_bsp/\libucosii_bsp.a(os_time.o)
 .debug_line    0x00045e91      0xc3e ../mf2_ddr_ucos_bsp/\libucosii_bsp.a(os_tmr.o)
 .debug_line    0x00046acf      0x355 ../mf2_ddr_ucos_bsp/\libucosii_bsp.a(alt_sys_init.o)
 .debug_line    0x00046e24      0x35b ../mf2_ddr_ucos_bsp/\libucosii_bsp.a(altera_avalon_jtag_uart_fd.o)
 .debug_line    0x0004717f      0x661 ../mf2_ddr_ucos_bsp/\libucosii_bsp.a(altera_avalon_jtag_uart_init.o)
 .debug_line    0x000477e0      0x372 ../mf2_ddr_ucos_bsp/\libucosii_bsp.a(altera_avalon_jtag_uart_ioctl.o)
 .debug_line    0x00047b52      0x4fe ../mf2_ddr_ucos_bsp/\libucosii_bsp.a(altera_avalon_jtag_uart_read.o)
 .debug_line    0x00048050      0x4f3 ../mf2_ddr_ucos_bsp/\libucosii_bsp.a(altera_avalon_jtag_uart_write.o)
 .debug_line    0x00048543      0x21b ../mf2_ddr_ucos_bsp/\libucosii_bsp.a(altera_avalon_spi.o)
 .debug_line    0x0004875e      0x2f5 ../mf2_ddr_ucos_bsp/\libucosii_bsp.a(altera_avalon_timer_sc.o)
 .debug_line    0x00048a53      0x2de ../mf2_ddr_ucos_bsp/\libucosii_bsp.a(alt_alarm_start.o)
 .debug_line    0x00048d31      0x297 ../mf2_ddr_ucos_bsp/\libucosii_bsp.a(alt_busy_sleep.o)
 .debug_line    0x00048fc8      0x1f1 ../mf2_ddr_ucos_bsp/\libucosii_bsp.a(alt_dcache_flush_all.o)
 .debug_line    0x000491b9      0x298 ../mf2_ddr_ucos_bsp/\libucosii_bsp.a(alt_dev_llist_insert.o)
 .debug_line    0x00049451       0xcd ../mf2_ddr_ucos_bsp/\libucosii_bsp.a(alt_do_ctors.o)
 .debug_line    0x0004951e       0xcd ../mf2_ddr_ucos_bsp/\libucosii_bsp.a(alt_do_dtors.o)
 .debug_line    0x000495eb       0xf3 ../mf2_ddr_ucos_bsp/\libucosii_bsp.a(alt_exception_entry.o)
 .debug_line    0x000496de      0x201 ../mf2_ddr_ucos_bsp/\libucosii_bsp.a(alt_icache_flush_all.o)
 .debug_line    0x000498df      0x15f ../mf2_ddr_ucos_bsp/\libucosii_bsp.a(alt_instruction_exception_entry.o)
 .debug_line    0x00049a3e      0x3cf ../mf2_ddr_ucos_bsp/\libucosii_bsp.a(alt_io_redirect.o)
 .debug_line    0x00049e0d      0x38b ../mf2_ddr_ucos_bsp/\libucosii_bsp.a(alt_open.o)
 .debug_line    0x0004a198      0x205 ../mf2_ddr_ucos_bsp/\libucosii_bsp.a(altera_nios2_irq.o)
 .debug_line    0x0004a39d      0x30c ../mf2_ddr_ucos_bsp/\libucosii_bsp.a(alt_find_dev.o)
 .debug_line    0x0004a6a9      0x337 ../mf2_ddr_ucos_bsp/\libucosii_bsp.a(alt_find_file.o)
 .debug_line    0x0004a9e0      0x36b ../mf2_ddr_ucos_bsp/\libucosii_bsp.a(alt_get_fd.o)
 .debug_line    0x0004ad4b      0x21d ../mf2_ddr_ucos_bsp/\libucosii_bsp.a(alt_icache_flush.o)
 .debug_line    0x0004af68      0x1da e:/altera/10.1/nios2eds/bin/gnu/h-i686-mingw32/bin/../lib/gcc/nios2-elf/4.1.2/../../../../nios2-elf/lib\libc.a(lib_a-atexit.o)
 .debug_line    0x0004b142      0x212 e:/altera/10.1/nios2eds/bin/gnu/h-i686-mingw32/bin/../lib/gcc/nios2-elf/4.1.2/../../../../nios2-elf/lib\libc.a(lib_a-exit.o)
 .debug_line    0x0004b354      0x266 e:/altera/10.1/nios2eds/bin/gnu/h-i686-mingw32/bin/../lib/gcc/nios2-elf/4.1.2/../../../../nios2-elf/lib\libc.a(lib_a-memcmp.o)
 .debug_line    0x0004b5ba      0x2ed e:/altera/10.1/nios2eds/bin/gnu/h-i686-mingw32/bin/../lib/gcc/nios2-elf/4.1.2/../../../../nios2-elf/lib\libc.a(lib_a-__atexit.o)
 .debug_line    0x0004b8a7      0x341 e:/altera/10.1/nios2eds/bin/gnu/h-i686-mingw32/bin/../lib/gcc/nios2-elf/4.1.2/../../../../nios2-elf/lib\libc.a(lib_a-__call_atexit.o)

.debug_frame    0x00000000     0xa3f8
 *(.debug_frame)
 .debug_frame   0x00000000       0x2c obj/alt-irq-handler.o
 .debug_frame   0x0000002c       0xd4 obj/dbg_helper.o
 .debug_frame   0x00000100       0xd8 obj/ddc_helper.o
 .debug_frame   0x000001d8       0x30 obj/dynedid.o
 .debug_frame   0x00000208      0x3cc obj/ee_helper.o
 .debug_frame   0x000005d4      0x1b8 obj/fifo_helper.o
 .debug_frame   0x0000078c       0x64 obj/i2c_master.o
 .debug_frame   0x000007f0       0x48 obj/main.o
 .debug_frame   0x00000838      0x2d0 obj/os-support.o
 .debug_frame   0x00000b08       0xb8 obj/os_bsem.o
 .debug_frame   0x00000bc0      0x10c obj/os_cpu_c.o
 .debug_frame   0x00000ccc      0x128 obj/os_sem.o
 .debug_frame   0x00000df4       0x64 obj/ow.o
 .debug_frame   0x00000e58       0xb8 obj/pll_helper.o
 .debug_frame   0x00000f10      0x210 obj/sys-base.o
 .debug_frame   0x00001120       0x48 obj/touchcon.o
 .debug_frame   0x00001168      0x178 obj/ts_helper.o
 .debug_frame   0x000012e0       0xd4 obj/tvp7002_helper.o
 .debug_frame   0x000013b4       0x48 obj/uhe.o
 .debug_frame   0x000013fc      0x1d0 obj/usb/bsd-bus-dma.o
 .debug_frame   0x000015cc      0x4c8 obj/usb/bsd-wrap.o
 .debug_frame   0x00001a94       0x80 obj/usb/bus_if.o
 .debug_frame   0x00001b14       0x80 obj/usb/device_if.o
 .debug_frame   0x00001b94      0x8e0 obj/usb/ehci.o
 .debug_frame   0x00002474       0xbc obj/usb/ehci_oxu210.o
 .debug_frame   0x00002530       0x2c obj/usb/init_main.o
 .debug_frame   0x0000255c       0x48 obj/usb/kern_linker.o
 .debug_frame   0x000025a4       0xb8 obj/usb/kern_module.o
 .debug_frame   0x0000265c      0x3dc obj/usb/kern_sysctl.o
 .debug_frame   0x00002a38       0xf0 obj/usb/oxu210-alloc.o
 .debug_frame   0x00002b28       0xb8 obj/usb/oxu210-intr.o
 .debug_frame   0x00002be0      0x4e4 obj/usb/pdev.o
 .debug_frame   0x000030c4       0x64 obj/usb/s5a-autoconf.o
 .debug_frame   0x00003128     0x1204 obj/usb/subr_bus.o
 .debug_frame   0x0000432c      0x198 obj/usb/subr_kobj.o
 .debug_frame   0x000044c4      0x144 obj/usb/subr_uio.o
 .debug_frame   0x00004608       0x80 obj/usb/tc-mtouch.o
 .debug_frame   0x00004688       0x80 obj/usb/tc-zytronic.o
 .debug_frame   0x00004708      0x148 obj/usb/tc.o
 .debug_frame   0x00004850       0xd8 obj/usb/ums.o
 .debug_frame   0x00004928      0x2b0 obj/usb/usb_busdma.o
 .debug_frame   0x00004bd8      0x1bc obj/usb/usb_controller.o
 .debug_frame   0x00004d94       0x9c obj/usb/usb_debug.o
 .debug_frame   0x00004e30      0x5d4 obj/usb/usb_device.o
 .debug_frame   0x00005404       0xf0 obj/usb/usb_dynamic.o
 .debug_frame   0x000054f4       0x2c obj/usb/usb_error.o
 .debug_frame   0x00005520      0x10c obj/usb/usb_handle_request.o
 .debug_frame   0x0000562c      0x1a4 obj/usb/usb_hid.o
 .debug_frame   0x000057d0      0x478 obj/usb/usb_hub.o
 .debug_frame   0x00005c48       0xb8 obj/usb/usb_parse.o
 .debug_frame   0x00005d00      0x110 obj/usb/usb_process.o
 .debug_frame   0x00005e10      0x474 obj/usb/usb_request.o
 .debug_frame   0x00006284       0x48 obj/usb/usb_s5a.o
 .debug_frame   0x000062cc      0x670 obj/usb/usb_transfer.o
 .debug_frame   0x0000693c       0xb8 obj/usb/usb_util.o
 .debug_frame   0x000069f4      0x458 obj/usb/usbdev_oxu210.o
 .debug_frame   0x00006e4c       0x30 obj/usb_helper.o
 .debug_frame   0x00006e7c      0x1ec obj/video_helper.o
 .debug_frame   0x00007068      0x2dc obj/vip_helper.o
 .debug_frame   0x00007344      0x124 e:/altera/10.1/nios2eds/bin/gnu/h-i686-mingw32/bin/../lib/gcc/nios2-elf/4.1.2/../../../../nios2-elf/lib\libstdc++.a(eh_personality.o)
 .debug_frame   0x00007468       0x30 e:/altera/10.1/nios2eds/bin/gnu/h-i686-mingw32/bin/../lib/gcc/nios2-elf/4.1.2/../../../../nios2-elf/lib\libstdc++.a(eh_globals.o)
 .debug_frame   0x00007498       0x58 e:/altera/10.1/nios2eds/bin/gnu/h-i686-mingw32/bin/../lib/gcc/nios2-elf/4.1.2/../../../../nios2-elf/lib\libstdc++.a(eh_throw.o)
 .debug_frame   0x000074f0       0x28 e:/altera/10.1/nios2eds/bin/gnu/h-i686-mingw32/bin/../lib/gcc/nios2-elf/4.1.2/../../../../nios2-elf/lib\libstdc++.a(eh_call.o)
 .debug_frame   0x00007518       0x6c e:/altera/10.1/nios2eds/bin/gnu/h-i686-mingw32/bin/../lib/gcc/nios2-elf/4.1.2/../../../../nios2-elf/lib\libstdc++.a(eh_catch.o)
 .debug_frame   0x00007584       0x8c e:/altera/10.1/nios2eds/bin/gnu/h-i686-mingw32/bin/../lib/gcc/nios2-elf/4.1.2/../../../../nios2-elf/lib\libstdc++.a(eh_exception.o)
 .debug_frame   0x00007610       0x90 e:/altera/10.1/nios2eds/bin/gnu/h-i686-mingw32/bin/../lib/gcc/nios2-elf/4.1.2/../../../../nios2-elf/lib\libstdc++.a(eh_terminate.o)
 .debug_frame   0x000076a0       0x94 e:/altera/10.1/nios2eds/bin/gnu/h-i686-mingw32/bin/../lib/gcc/nios2-elf/4.1.2/../../../../nios2-elf/lib\libstdc++.a(si_class_type_info.o)
 .debug_frame   0x00007734       0x3c e:/altera/10.1/nios2eds/bin/gnu/h-i686-mingw32/bin/../lib/gcc/nios2-elf/4.1.2/../../../../nios2-elf/lib\libstdc++.a(eh_alloc.o)
 .debug_frame   0x00007770       0x80 e:/altera/10.1/nios2eds/bin/gnu/h-i686-mingw32/bin/../lib/gcc/nios2-elf/4.1.2/../../../../nios2-elf/lib\libstdc++.a(tinfo.o)
 .debug_frame   0x000077f0       0x20 e:/altera/10.1/nios2eds/bin/gnu/h-i686-mingw32/bin/../lib/gcc/nios2-elf/4.1.2/../../../../nios2-elf/lib\libstdc++.a(del_op.o)
 .debug_frame   0x00007810       0xb0 e:/altera/10.1/nios2eds/bin/gnu/h-i686-mingw32/bin/../lib/gcc/nios2-elf/4.1.2/../../../../nios2-elf/lib\libstdc++.a(class_type_info.o)
 .debug_frame   0x000078c0       0x2c e:/altera/10.1/nios2eds/bin/gnu/h-i686-mingw32/bin/../lib/gcc/nios2-elf/4.1.2\libgcc.a(_muldi3.o)
 .debug_frame   0x000078ec       0x30 e:/altera/10.1/nios2eds/bin/gnu/h-i686-mingw32/bin/../lib/gcc/nios2-elf/4.1.2\libgcc.a(_fixunsdfsi.o)
 .debug_frame   0x0000791c       0x30 e:/altera/10.1/nios2eds/bin/gnu/h-i686-mingw32/bin/../lib/gcc/nios2-elf/4.1.2\libgcc.a(_floatdidf.o)
 .debug_frame   0x0000794c       0x38 e:/altera/10.1/nios2eds/bin/gnu/h-i686-mingw32/bin/../lib/gcc/nios2-elf/4.1.2\libgcc.a(_divdi3.o)
 .debug_frame   0x00007984       0x70 e:/altera/10.1/nios2eds/bin/gnu/h-i686-mingw32/bin/../lib/gcc/nios2-elf/4.1.2\libgcc.a(_addsub_df.o)
 .debug_frame   0x000079f4       0x3c e:/altera/10.1/nios2eds/bin/gnu/h-i686-mingw32/bin/../lib/gcc/nios2-elf/4.1.2\libgcc.a(_mul_df.o)
 .debug_frame   0x00007a30       0x30 e:/altera/10.1/nios2eds/bin/gnu/h-i686-mingw32/bin/../lib/gcc/nios2-elf/4.1.2\libgcc.a(_div_df.o)
 .debug_frame   0x00007a60       0x2c e:/altera/10.1/nios2eds/bin/gnu/h-i686-mingw32/bin/../lib/gcc/nios2-elf/4.1.2\libgcc.a(_ne_df.o)
 .debug_frame   0x00007a8c       0x2c e:/altera/10.1/nios2eds/bin/gnu/h-i686-mingw32/bin/../lib/gcc/nios2-elf/4.1.2\libgcc.a(_ge_df.o)
 .debug_frame   0x00007ab8       0x30 e:/altera/10.1/nios2eds/bin/gnu/h-i686-mingw32/bin/../lib/gcc/nios2-elf/4.1.2\libgcc.a(_si_to_df.o)
 .debug_frame   0x00007ae8       0x28 e:/altera/10.1/nios2eds/bin/gnu/h-i686-mingw32/bin/../lib/gcc/nios2-elf/4.1.2\libgcc.a(_df_to_si.o)
 .debug_frame   0x00007b10       0x38 e:/altera/10.1/nios2eds/bin/gnu/h-i686-mingw32/bin/../lib/gcc/nios2-elf/4.1.2\libgcc.a(_usi_to_df.o)
 .debug_frame   0x00007b48       0x70 e:/altera/10.1/nios2eds/bin/gnu/h-i686-mingw32/bin/../lib/gcc/nios2-elf/4.1.2\libgcc.a(lib2-divmod.o)
 .debug_frame   0x00007bb8      0x3c8 e:/altera/10.1/nios2eds/bin/gnu/h-i686-mingw32/bin/../lib/gcc/nios2-elf/4.1.2\libgcc.a(unwind-dw2.o)
 .debug_frame   0x00007f80      0x2a8 e:/altera/10.1/nios2eds/bin/gnu/h-i686-mingw32/bin/../lib/gcc/nios2-elf/4.1.2\libgcc.a(unwind-dw2-fde.o)
 .debug_frame   0x00008228       0x20 e:/altera/10.1/nios2eds/bin/gnu/h-i686-mingw32/bin/../lib/gcc/nios2-elf/4.1.2\libgcc.a(_clzsi2.o)
 .debug_frame   0x00008248       0x2c e:/altera/10.1/nios2eds/bin/gnu/h-i686-mingw32/bin/../lib/gcc/nios2-elf/4.1.2\libgcc.a(_pack_df.o)
 .debug_frame   0x00008274       0x20 e:/altera/10.1/nios2eds/bin/gnu/h-i686-mingw32/bin/../lib/gcc/nios2-elf/4.1.2\libgcc.a(_unpack_df.o)
 .debug_frame   0x00008294       0x20 e:/altera/10.1/nios2eds/bin/gnu/h-i686-mingw32/bin/../lib/gcc/nios2-elf/4.1.2\libgcc.a(_fpcmp_parts_df.o)
 .debug_frame   0x000082b4       0x28 e:/altera/10.1/nios2eds/bin/gnu/h-i686-mingw32/bin/../lib/gcc/nios2-elf/4.1.2/../../../../nios2-elf/lib\libc.a(lib_a-abort.o)
 .debug_frame   0x000082dc       0x20 e:/altera/10.1/nios2eds/bin/gnu/h-i686-mingw32/bin/../lib/gcc/nios2-elf/4.1.2/../../../../nios2-elf/lib\libc.a(lib_a-bcopy.o)
 .debug_frame   0x000082fc       0x30 e:/altera/10.1/nios2eds/bin/gnu/h-i686-mingw32/bin/../lib/gcc/nios2-elf/4.1.2/../../../../nios2-elf/lib\libc.a(lib_a-malloc.o)
 .debug_frame   0x0000832c       0x38 e:/altera/10.1/nios2eds/bin/gnu/h-i686-mingw32/bin/../lib/gcc/nios2-elf/4.1.2/../../../../nios2-elf/lib\libc.a(lib_a-mallocr.o)
 .debug_frame   0x00008364       0x20 e:/altera/10.1/nios2eds/bin/gnu/h-i686-mingw32/bin/../lib/gcc/nios2-elf/4.1.2/../../../../nios2-elf/lib\libc.a(lib_a-memcpy.o)
 .debug_frame   0x00008384       0x20 e:/altera/10.1/nios2eds/bin/gnu/h-i686-mingw32/bin/../lib/gcc/nios2-elf/4.1.2/../../../../nios2-elf/lib\libc.a(lib_a-memmove.o)
 .debug_frame   0x000083a4       0x20 e:/altera/10.1/nios2eds/bin/gnu/h-i686-mingw32/bin/../lib/gcc/nios2-elf/4.1.2/../../../../nios2-elf/lib\libc.a(lib_a-memset.o)
 .debug_frame   0x000083c4       0x40 e:/altera/10.1/nios2eds/bin/gnu/h-i686-mingw32/bin/../lib/gcc/nios2-elf/4.1.2/../../../../nios2-elf/lib\libc.a(lib_a-printf.o)
 .debug_frame   0x00008404       0x30 e:/altera/10.1/nios2eds/bin/gnu/h-i686-mingw32/bin/../lib/gcc/nios2-elf/4.1.2/../../../../nios2-elf/lib\libc.a(lib_a-putchar.o)
 .debug_frame   0x00008434       0x3c e:/altera/10.1/nios2eds/bin/gnu/h-i686-mingw32/bin/../lib/gcc/nios2-elf/4.1.2/../../../../nios2-elf/lib\libc.a(lib_a-puts.o)
 .debug_frame   0x00008470       0x3c e:/altera/10.1/nios2eds/bin/gnu/h-i686-mingw32/bin/../lib/gcc/nios2-elf/4.1.2/../../../../nios2-elf/lib\libc.a(lib_a-rand.o)
 .debug_frame   0x000084ac       0x2c e:/altera/10.1/nios2eds/bin/gnu/h-i686-mingw32/bin/../lib/gcc/nios2-elf/4.1.2/../../../../nios2-elf/lib\libc.a(lib_a-sbrkr.o)
 .debug_frame   0x000084d8       0xb8 e:/altera/10.1/nios2eds/bin/gnu/h-i686-mingw32/bin/../lib/gcc/nios2-elf/4.1.2/../../../../nios2-elf/lib\libc.a(lib_a-signal.o)
 .debug_frame   0x00008590       0x3c e:/altera/10.1/nios2eds/bin/gnu/h-i686-mingw32/bin/../lib/gcc/nios2-elf/4.1.2/../../../../nios2-elf/lib\libc.a(lib_a-signalr.o)
 .debug_frame   0x000085cc       0x48 e:/altera/10.1/nios2eds/bin/gnu/h-i686-mingw32/bin/../lib/gcc/nios2-elf/4.1.2/../../../../nios2-elf/lib\libc.a(lib_a-snprintf.o)
 .debug_frame   0x00008614       0x40 e:/altera/10.1/nios2eds/bin/gnu/h-i686-mingw32/bin/../lib/gcc/nios2-elf/4.1.2/../../../../nios2-elf/lib\libc.a(lib_a-sprintf.o)
 .debug_frame   0x00008654       0x20 e:/altera/10.1/nios2eds/bin/gnu/h-i686-mingw32/bin/../lib/gcc/nios2-elf/4.1.2/../../../../nios2-elf/lib\libc.a(lib_a-strcmp.o)
 .debug_frame   0x00008674       0x20 e:/altera/10.1/nios2eds/bin/gnu/h-i686-mingw32/bin/../lib/gcc/nios2-elf/4.1.2/../../../../nios2-elf/lib\libc.a(lib_a-strcpy.o)
 .debug_frame   0x00008694       0x20 e:/altera/10.1/nios2eds/bin/gnu/h-i686-mingw32/bin/../lib/gcc/nios2-elf/4.1.2/../../../../nios2-elf/lib\libc.a(lib_a-strdup.o)
 .debug_frame   0x000086b4       0x30 e:/altera/10.1/nios2eds/bin/gnu/h-i686-mingw32/bin/../lib/gcc/nios2-elf/4.1.2/../../../../nios2-elf/lib\libc.a(lib_a-strdup_r.o)
 .debug_frame   0x000086e4       0x20 e:/altera/10.1/nios2eds/bin/gnu/h-i686-mingw32/bin/../lib/gcc/nios2-elf/4.1.2/../../../../nios2-elf/lib\libc.a(lib_a-strlcpy.o)
 .debug_frame   0x00008704       0x20 e:/altera/10.1/nios2eds/bin/gnu/h-i686-mingw32/bin/../lib/gcc/nios2-elf/4.1.2/../../../../nios2-elf/lib\libc.a(lib_a-strlen.o)
 .debug_frame   0x00008724       0x20 e:/altera/10.1/nios2eds/bin/gnu/h-i686-mingw32/bin/../lib/gcc/nios2-elf/4.1.2/../../../../nios2-elf/lib\libc.a(lib_a-strncpy.o)
 .debug_frame   0x00008744       0x20 e:/altera/10.1/nios2eds/bin/gnu/h-i686-mingw32/bin/../lib/gcc/nios2-elf/4.1.2/../../../../nios2-elf/lib\libc.a(lib_a-strnlen.o)
 .debug_frame   0x00008764       0x64 e:/altera/10.1/nios2eds/bin/gnu/h-i686-mingw32/bin/../lib/gcc/nios2-elf/4.1.2/../../../../nios2-elf/lib\libc.a(lib_a-vfprintf.o)
 .debug_frame   0x000087c8       0x30 e:/altera/10.1/nios2eds/bin/gnu/h-i686-mingw32/bin/../lib/gcc/nios2-elf/4.1.2/../../../../nios2-elf/lib\libc.a(lib_a-vprintf.o)
 .debug_frame   0x000087f8       0x44 e:/altera/10.1/nios2eds/bin/gnu/h-i686-mingw32/bin/../lib/gcc/nios2-elf/4.1.2/../../../../nios2-elf/lib\libc.a(lib_a-vsnprintf.o)
 .debug_frame   0x0000883c       0x38 e:/altera/10.1/nios2eds/bin/gnu/h-i686-mingw32/bin/../lib/gcc/nios2-elf/4.1.2/../../../../nios2-elf/lib\libc.a(lib_a-vsprintf.o)
 .debug_frame   0x00008874       0x2c e:/altera/10.1/nios2eds/bin/gnu/h-i686-mingw32/bin/../lib/gcc/nios2-elf/4.1.2/../../../../nios2-elf/lib\libc.a(lib_a-wsetup.o)
 .debug_frame   0x000088a0       0x64 e:/altera/10.1/nios2eds/bin/gnu/h-i686-mingw32/bin/../lib/gcc/nios2-elf/4.1.2/../../../../nios2-elf/lib\libc.a(lib_a-dtoa.o)
 .debug_frame   0x00008904       0x40 e:/altera/10.1/nios2eds/bin/gnu/h-i686-mingw32/bin/../lib/gcc/nios2-elf/4.1.2/../../../../nios2-elf/lib\libc.a(lib_a-fflush.o)
 .debug_frame   0x00008944      0x118 e:/altera/10.1/nios2eds/bin/gnu/h-i686-mingw32/bin/../lib/gcc/nios2-elf/4.1.2/../../../../nios2-elf/lib\libc.a(lib_a-findfp.o)
 .debug_frame   0x00008a5c       0x4c e:/altera/10.1/nios2eds/bin/gnu/h-i686-mingw32/bin/../lib/gcc/nios2-elf/4.1.2/../../../../nios2-elf/lib\libc.a(lib_a-freer.o)
 .debug_frame   0x00008aa8       0x38 e:/altera/10.1/nios2eds/bin/gnu/h-i686-mingw32/bin/../lib/gcc/nios2-elf/4.1.2/../../../../nios2-elf/lib\libc.a(lib_a-fvwrite.o)
 .debug_frame   0x00008ae0       0x60 e:/altera/10.1/nios2eds/bin/gnu/h-i686-mingw32/bin/../lib/gcc/nios2-elf/4.1.2/../../../../nios2-elf/lib\libc.a(lib_a-fwalk.o)
 .debug_frame   0x00008b40       0x70 e:/altera/10.1/nios2eds/bin/gnu/h-i686-mingw32/bin/../lib/gcc/nios2-elf/4.1.2/../../../../nios2-elf/lib\libc.a(lib_a-locale.o)
 .debug_frame   0x00008bb0       0x2c e:/altera/10.1/nios2eds/bin/gnu/h-i686-mingw32/bin/../lib/gcc/nios2-elf/4.1.2/../../../../nios2-elf/lib\libc.a(lib_a-makebuf.o)
 .debug_frame   0x00008bdc       0x20 e:/altera/10.1/nios2eds/bin/gnu/h-i686-mingw32/bin/../lib/gcc/nios2-elf/4.1.2/../../../../nios2-elf/lib\libc.a(lib_a-memchr.o)
 .debug_frame   0x00008bfc      0x218 e:/altera/10.1/nios2eds/bin/gnu/h-i686-mingw32/bin/../lib/gcc/nios2-elf/4.1.2/../../../../nios2-elf/lib\libc.a(lib_a-mprec.o)
 .debug_frame   0x00008e14       0x4c e:/altera/10.1/nios2eds/bin/gnu/h-i686-mingw32/bin/../lib/gcc/nios2-elf/4.1.2/../../../../nios2-elf/lib\libc.a(lib_a-putc.o)
 .debug_frame   0x00008e60       0x38 e:/altera/10.1/nios2eds/bin/gnu/h-i686-mingw32/bin/../lib/gcc/nios2-elf/4.1.2/../../../../nios2-elf/lib\libc.a(lib_a-reallocr.o)
 .debug_frame   0x00008e98       0x20 e:/altera/10.1/nios2eds/bin/gnu/h-i686-mingw32/bin/../lib/gcc/nios2-elf/4.1.2/../../../../nios2-elf/lib\libc.a(lib_a-s_isinfd.o)
 .debug_frame   0x00008eb8       0x20 e:/altera/10.1/nios2eds/bin/gnu/h-i686-mingw32/bin/../lib/gcc/nios2-elf/4.1.2/../../../../nios2-elf/lib\libc.a(lib_a-s_isnand.o)
 .debug_frame   0x00008ed8       0x78 e:/altera/10.1/nios2eds/bin/gnu/h-i686-mingw32/bin/../lib/gcc/nios2-elf/4.1.2/../../../../nios2-elf/lib\libc.a(lib_a-stdio.o)
 .debug_frame   0x00008f50       0x3c e:/altera/10.1/nios2eds/bin/gnu/h-i686-mingw32/bin/../lib/gcc/nios2-elf/4.1.2/../../../../nios2-elf/lib\libc.a(lib_a-wbuf.o)
 .debug_frame   0x00008f8c       0x2c e:/altera/10.1/nios2eds/bin/gnu/h-i686-mingw32/bin/../lib/gcc/nios2-elf/4.1.2/../../../../nios2-elf/lib\libc.a(lib_a-writer.o)
 .debug_frame   0x00008fb8       0x28 e:/altera/10.1/nios2eds/bin/gnu/h-i686-mingw32/bin/../lib/gcc/nios2-elf/4.1.2/../../../../nios2-elf/lib\libc.a(lib_a-callocr.o)
 .debug_frame   0x00008fe0       0x2c e:/altera/10.1/nios2eds/bin/gnu/h-i686-mingw32/bin/../lib/gcc/nios2-elf/4.1.2/../../../../nios2-elf/lib\libc.a(lib_a-closer.o)
 .debug_frame   0x0000900c       0x3c e:/altera/10.1/nios2eds/bin/gnu/h-i686-mingw32/bin/../lib/gcc/nios2-elf/4.1.2/../../../../nios2-elf/lib\libc.a(lib_a-fclose.o)
 .debug_frame   0x00009048       0x2c e:/altera/10.1/nios2eds/bin/gnu/h-i686-mingw32/bin/../lib/gcc/nios2-elf/4.1.2/../../../../nios2-elf/lib\libc.a(lib_a-fstatr.o)
 .debug_frame   0x00009074       0x2c e:/altera/10.1/nios2eds/bin/gnu/h-i686-mingw32/bin/../lib/gcc/nios2-elf/4.1.2/../../../../nios2-elf/lib\libc.a(lib_a-isattyr.o)
 .debug_frame   0x000090a0       0x2c e:/altera/10.1/nios2eds/bin/gnu/h-i686-mingw32/bin/../lib/gcc/nios2-elf/4.1.2/../../../../nios2-elf/lib\libc.a(lib_a-lseekr.o)
 .debug_frame   0x000090cc       0x2c e:/altera/10.1/nios2eds/bin/gnu/h-i686-mingw32/bin/../lib/gcc/nios2-elf/4.1.2/../../../../nios2-elf/lib\libc.a(lib_a-readr.o)
 .debug_frame   0x000090f8       0x38 e:/altera/10.1/nios2eds/bin/gnu/h-i686-mingw32/bin/../lib/gcc/nios2-elf/4.1.2\libgcc.a(_udivdi3.o)
 .debug_frame   0x00009130       0x38 e:/altera/10.1/nios2eds/bin/gnu/h-i686-mingw32/bin/../lib/gcc/nios2-elf/4.1.2\libgcc.a(_umoddi3.o)
 .debug_frame   0x00009168       0x2c e:/altera/10.1/nios2eds/bin/gnu/h-i686-mingw32/bin/../lib/gcc/nios2-elf/4.1.2\libgcc.a(_eq_df.o)
 .debug_frame   0x00009194       0x2c e:/altera/10.1/nios2eds/bin/gnu/h-i686-mingw32/bin/../lib/gcc/nios2-elf/4.1.2\libgcc.a(_gt_df.o)
 .debug_frame   0x000091c0       0x2c e:/altera/10.1/nios2eds/bin/gnu/h-i686-mingw32/bin/../lib/gcc/nios2-elf/4.1.2\libgcc.a(_lt_df.o)
 .debug_frame   0x000091ec       0x3c ../mf2_ddr_ucos_bsp/\libucosii_bsp.a(alt_close.o)
 .debug_frame   0x00009228       0x20 ../mf2_ddr_ucos_bsp/\libucosii_bsp.a(alt_dev.o)
 .debug_frame   0x00009248       0x20 ../mf2_ddr_ucos_bsp/\libucosii_bsp.a(alt_exit.o)
 .debug_frame   0x00009268       0x28 ../mf2_ddr_ucos_bsp/\libucosii_bsp.a(alt_fstat.o)
 .debug_frame   0x00009290       0x20 ../mf2_ddr_ucos_bsp/\libucosii_bsp.a(alt_getpid.o)
 .debug_frame   0x000092b0       0x50 ../mf2_ddr_ucos_bsp/\libucosii_bsp.a(alt_iic.o)
 .debug_frame   0x00009300       0x28 ../mf2_ddr_ucos_bsp/\libucosii_bsp.a(alt_iic_isr_register.o)
 .debug_frame   0x00009328       0x20 ../mf2_ddr_ucos_bsp/\libucosii_bsp.a(alt_instruction_exception_register.o)
 .debug_frame   0x00009348       0x28 ../mf2_ddr_ucos_bsp/\libucosii_bsp.a(alt_isatty.o)
 .debug_frame   0x00009370       0x28 ../mf2_ddr_ucos_bsp/\libucosii_bsp.a(alt_kill.o)
 .debug_frame   0x00009398       0x38 ../mf2_ddr_ucos_bsp/\libucosii_bsp.a(alt_load.o)
 .debug_frame   0x000093d0       0x28 ../mf2_ddr_ucos_bsp/\libucosii_bsp.a(alt_lseek.o)
 .debug_frame   0x000093f8       0x2c ../mf2_ddr_ucos_bsp/\libucosii_bsp.a(alt_main.o)
 .debug_frame   0x00009424       0x38 ../mf2_ddr_ucos_bsp/\libucosii_bsp.a(alt_read.o)
 .debug_frame   0x0000945c       0x20 ../mf2_ddr_ucos_bsp/\libucosii_bsp.a(alt_release_fd.o)
 .debug_frame   0x0000947c       0x20 ../mf2_ddr_ucos_bsp/\libucosii_bsp.a(alt_sbrk.o)
 .debug_frame   0x0000949c       0x3c ../mf2_ddr_ucos_bsp/\libucosii_bsp.a(alt_tick.o)
 .debug_frame   0x000094d8       0x30 ../mf2_ddr_ucos_bsp/\libucosii_bsp.a(alt_usleep.o)
 .debug_frame   0x00009508       0x38 ../mf2_ddr_ucos_bsp/\libucosii_bsp.a(alt_write.o)
 .debug_frame   0x00009540       0x3c ../mf2_ddr_ucos_bsp/\libucosii_bsp.a(alt_env_lock.o)
 .debug_frame   0x0000957c       0x3c ../mf2_ddr_ucos_bsp/\libucosii_bsp.a(alt_malloc_lock.o)
 .debug_frame   0x000095b8      0x25c ../mf2_ddr_ucos_bsp/\libucosii_bsp.a(os_core.o)
 .debug_frame   0x00009814       0x20 ../mf2_ddr_ucos_bsp/\libucosii_bsp.a(os_dbg.o)
 .debug_frame   0x00009834      0x148 ../mf2_ddr_ucos_bsp/\libucosii_bsp.a(os_flag.o)
 .debug_frame   0x0000997c       0xa0 ../mf2_ddr_ucos_bsp/\libucosii_bsp.a(os_mem.o)
 .debug_frame   0x00009a1c      0x124 ../mf2_ddr_ucos_bsp/\libucosii_bsp.a(os_q.o)
 .debug_frame   0x00009b40      0x148 ../mf2_ddr_ucos_bsp/\libucosii_bsp.a(os_task.o)
 .debug_frame   0x00009c88       0x74 ../mf2_ddr_ucos_bsp/\libucosii_bsp.a(os_time.o)
 .debug_frame   0x00009cfc      0x188 ../mf2_ddr_ucos_bsp/\libucosii_bsp.a(os_tmr.o)
 .debug_frame   0x00009e84       0x44 ../mf2_ddr_ucos_bsp/\libucosii_bsp.a(alt_sys_init.o)
 .debug_frame   0x00009ec8       0x50 ../mf2_ddr_ucos_bsp/\libucosii_bsp.a(altera_avalon_jtag_uart_fd.o)
 .debug_frame   0x00009f18       0x7c ../mf2_ddr_ucos_bsp/\libucosii_bsp.a(altera_avalon_jtag_uart_init.o)
 .debug_frame   0x00009f94       0x20 ../mf2_ddr_ucos_bsp/\libucosii_bsp.a(altera_avalon_jtag_uart_ioctl.o)
 .debug_frame   0x00009fb4       0x3c ../mf2_ddr_ucos_bsp/\libucosii_bsp.a(altera_avalon_jtag_uart_read.o)
 .debug_frame   0x00009ff0       0x38 ../mf2_ddr_ucos_bsp/\libucosii_bsp.a(altera_avalon_jtag_uart_write.o)
 .debug_frame   0x0000a028       0x20 ../mf2_ddr_ucos_bsp/\libucosii_bsp.a(altera_avalon_spi.o)
 .debug_frame   0x0000a048       0x40 ../mf2_ddr_ucos_bsp/\libucosii_bsp.a(altera_avalon_timer_sc.o)
 .debug_frame   0x0000a088       0x20 ../mf2_ddr_ucos_bsp/\libucosii_bsp.a(alt_alarm_start.o)
 .debug_frame   0x0000a0a8       0x28 ../mf2_ddr_ucos_bsp/\libucosii_bsp.a(alt_busy_sleep.o)
 .debug_frame   0x0000a0d0       0x20 ../mf2_ddr_ucos_bsp/\libucosii_bsp.a(alt_dcache_flush_all.o)
 .debug_frame   0x0000a0f0       0x28 ../mf2_ddr_ucos_bsp/\libucosii_bsp.a(alt_dev_llist_insert.o)
 .debug_frame   0x0000a118       0x2c ../mf2_ddr_ucos_bsp/\libucosii_bsp.a(alt_do_ctors.o)
 .debug_frame   0x0000a144       0x2c ../mf2_ddr_ucos_bsp/\libucosii_bsp.a(alt_do_dtors.o)
 .debug_frame   0x0000a170       0x20 ../mf2_ddr_ucos_bsp/\libucosii_bsp.a(alt_icache_flush_all.o)
 .debug_frame   0x0000a190       0x30 ../mf2_ddr_ucos_bsp/\libucosii_bsp.a(alt_instruction_exception_entry.o)
 .debug_frame   0x0000a1c0       0x50 ../mf2_ddr_ucos_bsp/\libucosii_bsp.a(alt_io_redirect.o)
 .debug_frame   0x0000a210       0x34 ../mf2_ddr_ucos_bsp/\libucosii_bsp.a(alt_open.o)
 .debug_frame   0x0000a244       0x20 ../mf2_ddr_ucos_bsp/\libucosii_bsp.a(altera_nios2_irq.o)
 .debug_frame   0x0000a264       0x30 ../mf2_ddr_ucos_bsp/\libucosii_bsp.a(alt_find_dev.o)
 .debug_frame   0x0000a294       0x30 ../mf2_ddr_ucos_bsp/\libucosii_bsp.a(alt_find_file.o)
 .debug_frame   0x0000a2c4       0x2c ../mf2_ddr_ucos_bsp/\libucosii_bsp.a(alt_get_fd.o)
 .debug_frame   0x0000a2f0       0x20 ../mf2_ddr_ucos_bsp/\libucosii_bsp.a(alt_icache_flush.o)
 .debug_frame   0x0000a310       0x20 e:/altera/10.1/nios2eds/bin/gnu/h-i686-mingw32/bin/../lib/gcc/nios2-elf/4.1.2/../../../../nios2-elf/lib\libc.a(lib_a-atexit.o)
 .debug_frame   0x0000a330       0x28 e:/altera/10.1/nios2eds/bin/gnu/h-i686-mingw32/bin/../lib/gcc/nios2-elf/4.1.2/../../../../nios2-elf/lib\libc.a(lib_a-exit.o)
 .debug_frame   0x0000a358       0x20 e:/altera/10.1/nios2eds/bin/gnu/h-i686-mingw32/bin/../lib/gcc/nios2-elf/4.1.2/../../../../nios2-elf/lib\libc.a(lib_a-memcmp.o)
 .debug_frame   0x0000a378       0x34 e:/altera/10.1/nios2eds/bin/gnu/h-i686-mingw32/bin/../lib/gcc/nios2-elf/4.1.2/../../../../nios2-elf/lib\libc.a(lib_a-__atexit.o)
 .debug_frame   0x0000a3ac       0x4c e:/altera/10.1/nios2eds/bin/gnu/h-i686-mingw32/bin/../lib/gcc/nios2-elf/4.1.2/../../../../nios2-elf/lib\libc.a(lib_a-__call_atexit.o)

.debug_str      0x00000000     0xa539
 *(.debug_str)
 .debug_str     0x00000000       0x12 obj/alt-irq-handler.o
 .debug_str     0x00000012       0x12 obj/dbg_helper.o
 .debug_str     0x00000024       0x12 obj/ddc_helper.o
 .debug_str     0x00000036       0x1b obj/dynedid.o
 .debug_str     0x00000051       0x2a obj/ee_helper.o
 .debug_str     0x0000007b       0x1b obj/fifo_helper.o
 .debug_str     0x00000096       0x1e obj/i2c_master.o
 .debug_str     0x000000b4       0x12 obj/main.o
 .debug_str     0x000000c6       0x43 obj/os-support.o
 .debug_str     0x00000109       0x20 obj/os_bsem.o
 .debug_str     0x00000129       0x20 obj/os_cpu_c.o
 .debug_str     0x00000149       0x43 obj/os_sem.o
 .debug_str     0x0000018c       0x19 obj/pll_helper.o
 .debug_str     0x000001a5       0x34 obj/sys-base.o
 .debug_str     0x000001d9       0x42 obj/ts_helper.o
 .debug_str     0x0000021b       0x12 obj/tvp7002_helper.o
 .debug_str     0x0000022d       0x12 obj/uhe.o
 .debug_str     0x0000023f       0x87 obj/usb/bsd-bus-dma.o
 .debug_str     0x000002c6       0x63 obj/usb/bsd-wrap.o
 .debug_str     0x00000329       0x12 obj/usb/bus_if.o
 .debug_str     0x0000033b       0x12 obj/usb/device_if.o
 .debug_str     0x0000034d      0x2c5 obj/usb/ehci.o
 .debug_str     0x00000612       0xe6 obj/usb/ehci_oxu210.o
 .debug_str     0x000006f8       0x12 obj/usb/init_main.o
 .debug_str     0x0000070a       0x24 obj/usb/kern_linker.o
 .debug_str     0x0000072e       0x48 obj/usb/kern_module.o
 .debug_str     0x00000776       0x4d obj/usb/kern_sysctl.o
 .debug_str     0x000007c3       0x1e obj/usb/oxu210-alloc.o
 .debug_str     0x000007e1       0x12 obj/usb/oxu210-intr.o
 .debug_str     0x000007f3      0x2b8 obj/usb/pdev.o
 .debug_str     0x00000aab       0x12 obj/usb/s5a-autoconf.o
 .debug_str     0x00000abd      0x102 obj/usb/subr_bus.o
 .debug_str     0x00000bbf       0x23 obj/usb/subr_kobj.o
 .debug_str     0x00000be2       0x34 obj/usb/subr_uio.o
 .debug_str     0x00000c16       0x99 obj/usb/tc-mtouch.o
 .debug_str     0x00000caf       0x99 obj/usb/tc-zytronic.o
 .debug_str     0x00000d48      0x23e obj/usb/tc.o
 .debug_str     0x00000f86       0x76 obj/usb/ums.o
 .debug_str     0x00000ffc      0x1c4 obj/usb/usb_busdma.o
 .debug_str     0x000011c0      0x178 obj/usb/usb_controller.o
 .debug_str     0x00001338       0xd9 obj/usb/usb_debug.o
 .debug_str     0x00001411      0x2a3 obj/usb/usb_device.o
 .debug_str     0x000016b4      0x144 obj/usb/usb_dynamic.o
 .debug_str     0x000017f8       0x12 obj/usb/usb_error.o
 .debug_str     0x0000180a      0x1e2 obj/usb/usb_handle_request.o
 .debug_str     0x000019ec       0xdb obj/usb/usb_hid.o
 .debug_str     0x00001ac7      0x2ff obj/usb/usb_hub.o
 .debug_str     0x00001dc6       0x12 obj/usb/usb_if.o
 .debug_str     0x00001dd8       0x3c obj/usb/usb_parse.o
 .debug_str     0x00001e14       0x36 obj/usb/usb_process.o
 .debug_str     0x00001e4a      0x227 obj/usb/usb_request.o
 .debug_str     0x00002071       0x12 obj/usb/usb_s5a.o
 .debug_str     0x00002083      0x1db obj/usb/usb_transfer.o
 .debug_str     0x0000225e      0x1ce obj/usb/usb_util.o
 .debug_str     0x0000242c       0x7f obj/usb/usbdev_oxu210.o
 .debug_str     0x000024ab       0x12 obj/usb_helper.o
 .debug_str     0x000024bd       0x3a obj/video_helper.o
 .debug_str     0x000024f7      0x132 obj/vip_helper.o
 .debug_str     0x00002629      0xa2f e:/altera/10.1/nios2eds/bin/gnu/h-i686-mingw32/bin/../lib/gcc/nios2-elf/4.1.2/../../../../nios2-elf/lib\libstdc++.a(eh_personality.o)
                                0xb65 (size before relaxing)
 .debug_str     0x00003058      0x332 e:/altera/10.1/nios2eds/bin/gnu/h-i686-mingw32/bin/../lib/gcc/nios2-elf/4.1.2/../../../../nios2-elf/lib\libstdc++.a(eh_globals.o)
                                0x97a (size before relaxing)
 .debug_str     0x0000338a      0x109 e:/altera/10.1/nios2eds/bin/gnu/h-i686-mingw32/bin/../lib/gcc/nios2-elf/4.1.2/../../../../nios2-elf/lib\libstdc++.a(eh_throw.o)
                                0x6ca (size before relaxing)
 .debug_str     0x00003493       0x4f e:/altera/10.1/nios2eds/bin/gnu/h-i686-mingw32/bin/../lib/gcc/nios2-elf/4.1.2/../../../../nios2-elf/lib\libstdc++.a(eh_call.o)
                                0x692 (size before relaxing)
 .debug_str     0x000034e2       0xce e:/altera/10.1/nios2eds/bin/gnu/h-i686-mingw32/bin/../lib/gcc/nios2-elf/4.1.2/../../../../nios2-elf/lib\libstdc++.a(eh_catch.o)
                                0x761 (size before relaxing)
 .debug_str     0x000035b0       0x3f e:/altera/10.1/nios2eds/bin/gnu/h-i686-mingw32/bin/../lib/gcc/nios2-elf/4.1.2/../../../../nios2-elf/lib\libstdc++.a(eh_exception.o)
                                0x3a4 (size before relaxing)
 .debug_str     0x000035ef      0x111 e:/altera/10.1/nios2eds/bin/gnu/h-i686-mingw32/bin/../lib/gcc/nios2-elf/4.1.2/../../../../nios2-elf/lib\libstdc++.a(eh_terminate.o)
                                0x7aa (size before relaxing)
 .debug_str     0x00003700      0x2c5 e:/altera/10.1/nios2eds/bin/gnu/h-i686-mingw32/bin/../lib/gcc/nios2-elf/4.1.2/../../../../nios2-elf/lib\libstdc++.a(si_class_type_info.o)
                                0x876 (size before relaxing)
 .debug_str     0x000039c5       0xdb e:/altera/10.1/nios2eds/bin/gnu/h-i686-mingw32/bin/../lib/gcc/nios2-elf/4.1.2/../../../../nios2-elf/lib\libstdc++.a(eh_alloc.o)
                                0x72c (size before relaxing)
 .debug_str     0x00003aa0       0x42 e:/altera/10.1/nios2eds/bin/gnu/h-i686-mingw32/bin/../lib/gcc/nios2-elf/4.1.2/../../../../nios2-elf/lib\libstdc++.a(eh_term_handler.o)
                                0x5b7 (size before relaxing)
 .debug_str     0x00003ae2       0x41 e:/altera/10.1/nios2eds/bin/gnu/h-i686-mingw32/bin/../lib/gcc/nios2-elf/4.1.2/../../../../nios2-elf/lib\libstdc++.a(tinfo.o)
                                0x685 (size before relaxing)
 .debug_str     0x00003b23       0x50 e:/altera/10.1/nios2eds/bin/gnu/h-i686-mingw32/bin/../lib/gcc/nios2-elf/4.1.2/../../../../nios2-elf/lib\libstdc++.a(del_op.o)
                                0x21d (size before relaxing)
 .debug_str     0x00003b73       0x63 e:/altera/10.1/nios2eds/bin/gnu/h-i686-mingw32/bin/../lib/gcc/nios2-elf/4.1.2/../../../../nios2-elf/lib\libstdc++.a(class_type_info.o)
                                0x6c9 (size before relaxing)
 .debug_str     0x00003bd6       0x42 e:/altera/10.1/nios2eds/bin/gnu/h-i686-mingw32/bin/../lib/gcc/nios2-elf/4.1.2/../../../../nios2-elf/lib\libstdc++.a(eh_unex_handler.o)
                                0x59d (size before relaxing)
 .debug_str     0x00003c18       0xf5 e:/altera/10.1/nios2eds/bin/gnu/h-i686-mingw32/bin/../lib/gcc/nios2-elf/4.1.2\libgcc.a(_muldi3.o)
                                0x199 (size before relaxing)
 .debug_str     0x00003d0d       0x14 e:/altera/10.1/nios2eds/bin/gnu/h-i686-mingw32/bin/../lib/gcc/nios2-elf/4.1.2\libgcc.a(_fixunsdfsi.o)
                                0x158 (size before relaxing)
 .debug_str     0x00003d21        0xc e:/altera/10.1/nios2eds/bin/gnu/h-i686-mingw32/bin/../lib/gcc/nios2-elf/4.1.2\libgcc.a(_floatdidf.o)
                                0x156 (size before relaxing)
 .debug_str     0x00003d2d       0x5d e:/altera/10.1/nios2eds/bin/gnu/h-i686-mingw32/bin/../lib/gcc/nios2-elf/4.1.2\libgcc.a(_divdi3.o)
                                0x1ed (size before relaxing)
 .debug_str     0x00003d8a      0x12a e:/altera/10.1/nios2eds/bin/gnu/h-i686-mingw32/bin/../lib/gcc/nios2-elf/4.1.2\libgcc.a(_addsub_df.o)
                                0x25c (size before relaxing)
 .debug_str     0x00003eb4       0x40 e:/altera/10.1/nios2eds/bin/gnu/h-i686-mingw32/bin/../lib/gcc/nios2-elf/4.1.2\libgcc.a(_mul_df.o)
                                0x22e (size before relaxing)
 .debug_str     0x00003ef4       0x35 e:/altera/10.1/nios2eds/bin/gnu/h-i686-mingw32/bin/../lib/gcc/nios2-elf/4.1.2\libgcc.a(_div_df.o)
                                0x21e (size before relaxing)
 .debug_str     0x00003f29        0x8 e:/altera/10.1/nios2eds/bin/gnu/h-i686-mingw32/bin/../lib/gcc/nios2-elf/4.1.2\libgcc.a(_ne_df.o)
                                0x1eb (size before relaxing)
 .debug_str     0x00003f31        0x8 e:/altera/10.1/nios2eds/bin/gnu/h-i686-mingw32/bin/../lib/gcc/nios2-elf/4.1.2\libgcc.a(_ge_df.o)
                                0x1eb (size before relaxing)
 .debug_str     0x00003f39       0x18 e:/altera/10.1/nios2eds/bin/gnu/h-i686-mingw32/bin/../lib/gcc/nios2-elf/4.1.2\libgcc.a(_si_to_df.o)
                                0x1cb (size before relaxing)
 .debug_str     0x00003f51        0xa e:/altera/10.1/nios2eds/bin/gnu/h-i686-mingw32/bin/../lib/gcc/nios2-elf/4.1.2\libgcc.a(_df_to_si.o)
                                0x1f4 (size before relaxing)
 .debug_str     0x00000000      0x190 e:/altera/10.1/nios2eds/bin/gnu/h-i686-mingw32/bin/../lib/gcc/nios2-elf/4.1.2\libgcc.a(_thenan_df.o)
 .debug_str     0x00003f5b       0x14 e:/altera/10.1/nios2eds/bin/gnu/h-i686-mingw32/bin/../lib/gcc/nios2-elf/4.1.2\libgcc.a(_usi_to_df.o)
                                0x1c7 (size before relaxing)
 .debug_str     0x00003f6f       0x6c e:/altera/10.1/nios2eds/bin/gnu/h-i686-mingw32/bin/../lib/gcc/nios2-elf/4.1.2\libgcc.a(lib2-divmod.o)
                                0x1a1 (size before relaxing)
 .debug_str     0x00003fdb      0xe75 e:/altera/10.1/nios2eds/bin/gnu/h-i686-mingw32/bin/../lib/gcc/nios2-elf/4.1.2\libgcc.a(unwind-dw2.o)
                               0x123b (size before relaxing)
 .debug_str     0x00004e50      0x3f0 e:/altera/10.1/nios2eds/bin/gnu/h-i686-mingw32/bin/../lib/gcc/nios2-elf/4.1.2\libgcc.a(unwind-dw2-fde.o)
                                0x672 (size before relaxing)
 .debug_str     0x00000000      0x14e e:/altera/10.1/nios2eds/bin/gnu/h-i686-mingw32/bin/../lib/gcc/nios2-elf/4.1.2\libgcc.a(_clz.o)
 .debug_str     0x00005240        0x9 e:/altera/10.1/nios2eds/bin/gnu/h-i686-mingw32/bin/../lib/gcc/nios2-elf/4.1.2\libgcc.a(_clzsi2.o)
                                0x16b (size before relaxing)
 .debug_str     0x00005249       0x10 e:/altera/10.1/nios2eds/bin/gnu/h-i686-mingw32/bin/../lib/gcc/nios2-elf/4.1.2\libgcc.a(_pack_df.o)
                                0x1f3 (size before relaxing)
 .debug_str     0x00005259        0xb e:/altera/10.1/nios2eds/bin/gnu/h-i686-mingw32/bin/../lib/gcc/nios2-elf/4.1.2\libgcc.a(_unpack_df.o)
                                0x1d5 (size before relaxing)
 .debug_str     0x00005264       0x10 e:/altera/10.1/nios2eds/bin/gnu/h-i686-mingw32/bin/../lib/gcc/nios2-elf/4.1.2\libgcc.a(_fpcmp_parts_df.o)
                                0x1b3 (size before relaxing)
 .debug_str     0x00005274       0xb9 e:/altera/10.1/nios2eds/bin/gnu/h-i686-mingw32/bin/../lib/gcc/nios2-elf/4.1.2/../../../../nios2-elf/lib\libc.a(lib_a-abort.o)
                                0x14e (size before relaxing)
 .debug_str     0x0000532d       0xb9 e:/altera/10.1/nios2eds/bin/gnu/h-i686-mingw32/bin/../lib/gcc/nios2-elf/4.1.2/../../../../nios2-elf/lib\libc.a(lib_a-bcopy.o)
                                0x15c (size before relaxing)
 .debug_str     0x000053e6       0xcf e:/altera/10.1/nios2eds/bin/gnu/h-i686-mingw32/bin/../lib/gcc/nios2-elf/4.1.2/../../../../nios2-elf/lib\libc.a(lib_a-ctype_.o)
                                 0xf2 (size before relaxing)
 .debug_str     0x000054b5      0x36b e:/altera/10.1/nios2eds/bin/gnu/h-i686-mingw32/bin/../lib/gcc/nios2-elf/4.1.2/../../../../nios2-elf/lib\libc.a(lib_a-malloc.o)
                                0x509 (size before relaxing)
 .debug_str     0x00005820      0x208 e:/altera/10.1/nios2eds/bin/gnu/h-i686-mingw32/bin/../lib/gcc/nios2-elf/4.1.2/../../../../nios2-elf/lib\libc.a(lib_a-mallocr.o)
                                0x6de (size before relaxing)
 .debug_str     0x00005a28       0x62 e:/altera/10.1/nios2eds/bin/gnu/h-i686-mingw32/bin/../lib/gcc/nios2-elf/4.1.2/../../../../nios2-elf/lib\libc.a(lib_a-memcpy.o)
                                0x115 (size before relaxing)
 .debug_str     0x00005a8a       0x56 e:/altera/10.1/nios2eds/bin/gnu/h-i686-mingw32/bin/../lib/gcc/nios2-elf/4.1.2/../../../../nios2-elf/lib\libc.a(lib_a-memmove.o)
                                0x18a (size before relaxing)
 .debug_str     0x00005ae0       0x4f e:/altera/10.1/nios2eds/bin/gnu/h-i686-mingw32/bin/../lib/gcc/nios2-elf/4.1.2/../../../../nios2-elf/lib\libc.a(lib_a-memset.o)
                                0x16b (size before relaxing)
 .debug_str     0x00005b2f       0xcb e:/altera/10.1/nios2eds/bin/gnu/h-i686-mingw32/bin/../lib/gcc/nios2-elf/4.1.2/../../../../nios2-elf/lib\libc.a(lib_a-printf.o)
                                0x510 (size before relaxing)
 .debug_str     0x00005bfa       0x4e e:/altera/10.1/nios2eds/bin/gnu/h-i686-mingw32/bin/../lib/gcc/nios2-elf/4.1.2/../../../../nios2-elf/lib\libc.a(lib_a-putchar.o)
                                0x4fc (size before relaxing)
 .debug_str     0x00005c48       0x81 e:/altera/10.1/nios2eds/bin/gnu/h-i686-mingw32/bin/../lib/gcc/nios2-elf/4.1.2/../../../../nios2-elf/lib\libc.a(lib_a-puts.o)
                                0x536 (size before relaxing)
 .debug_str     0x00005cc9       0x39 e:/altera/10.1/nios2eds/bin/gnu/h-i686-mingw32/bin/../lib/gcc/nios2-elf/4.1.2/../../../../nios2-elf/lib\libc.a(lib_a-rand.o)
                                0x4f8 (size before relaxing)
 .debug_str     0x00005d02       0xbe e:/altera/10.1/nios2eds/bin/gnu/h-i686-mingw32/bin/../lib/gcc/nios2-elf/4.1.2/../../../../nios2-elf/lib\libc.a(lib_a-sbrkr.o)
                                0x4f8 (size before relaxing)
 .debug_str     0x00005dc0      0x10e e:/altera/10.1/nios2eds/bin/gnu/h-i686-mingw32/bin/../lib/gcc/nios2-elf/4.1.2/../../../../nios2-elf/lib\libc.a(lib_a-signal.o)
                                0x55a (size before relaxing)
 .debug_str     0x00005ece       0x4d e:/altera/10.1/nios2eds/bin/gnu/h-i686-mingw32/bin/../lib/gcc/nios2-elf/4.1.2/../../../../nios2-elf/lib\libc.a(lib_a-signalr.o)
                                0x4f5 (size before relaxing)
 .debug_str     0x00005f1b       0x48 e:/altera/10.1/nios2eds/bin/gnu/h-i686-mingw32/bin/../lib/gcc/nios2-elf/4.1.2/../../../../nios2-elf/lib\libc.a(lib_a-snprintf.o)
                                0x527 (size before relaxing)
 .debug_str     0x00005f63       0x46 e:/altera/10.1/nios2eds/bin/gnu/h-i686-mingw32/bin/../lib/gcc/nios2-elf/4.1.2/../../../../nios2-elf/lib\libc.a(lib_a-sprintf.o)
                                0x518 (size before relaxing)
 .debug_str     0x00005fa9       0x42 e:/altera/10.1/nios2eds/bin/gnu/h-i686-mingw32/bin/../lib/gcc/nios2-elf/4.1.2/../../../../nios2-elf/lib\libc.a(lib_a-strcmp.o)
                                0x150 (size before relaxing)
 .debug_str     0x00005feb       0x42 e:/altera/10.1/nios2eds/bin/gnu/h-i686-mingw32/bin/../lib/gcc/nios2-elf/4.1.2/../../../../nios2-elf/lib\libc.a(lib_a-strcpy.o)
                                0x172 (size before relaxing)
 .debug_str     0x0000602d       0x42 e:/altera/10.1/nios2eds/bin/gnu/h-i686-mingw32/bin/../lib/gcc/nios2-elf/4.1.2/../../../../nios2-elf/lib\libc.a(lib_a-strdup.o)
                                0x4f1 (size before relaxing)
 .debug_str     0x0000606f       0x47 e:/altera/10.1/nios2eds/bin/gnu/h-i686-mingw32/bin/../lib/gcc/nios2-elf/4.1.2/../../../../nios2-elf/lib\libc.a(lib_a-strdup_r.o)
                                0x500 (size before relaxing)
 .debug_str     0x000060b6       0x44 e:/altera/10.1/nios2eds/bin/gnu/h-i686-mingw32/bin/../lib/gcc/nios2-elf/4.1.2/../../../../nios2-elf/lib\libc.a(lib_a-strlcpy.o)
                                0x159 (size before relaxing)
 .debug_str     0x000060fa       0x42 e:/altera/10.1/nios2eds/bin/gnu/h-i686-mingw32/bin/../lib/gcc/nios2-elf/4.1.2/../../../../nios2-elf/lib\libc.a(lib_a-strlen.o)
                                0x16a (size before relaxing)
 .debug_str     0x0000613c       0x44 e:/altera/10.1/nios2eds/bin/gnu/h-i686-mingw32/bin/../lib/gcc/nios2-elf/4.1.2/../../../../nios2-elf/lib\libc.a(lib_a-strncpy.o)
                                0x181 (size before relaxing)
 .debug_str     0x00006180       0x44 e:/altera/10.1/nios2eds/bin/gnu/h-i686-mingw32/bin/../lib/gcc/nios2-elf/4.1.2/../../../../nios2-elf/lib\libc.a(lib_a-strnlen.o)
                                0x15f (size before relaxing)
 .debug_str     0x000061c4      0x178 e:/altera/10.1/nios2eds/bin/gnu/h-i686-mingw32/bin/../lib/gcc/nios2-elf/4.1.2/../../../../nios2-elf/lib\libc.a(lib_a-vfprintf.o)
                                0x6e5 (size before relaxing)
 .debug_str     0x0000633c       0x4e e:/altera/10.1/nios2eds/bin/gnu/h-i686-mingw32/bin/../lib/gcc/nios2-elf/4.1.2/../../../../nios2-elf/lib\libc.a(lib_a-vprintf.o)
                                0x513 (size before relaxing)
 .debug_str     0x0000638a       0x54 e:/altera/10.1/nios2eds/bin/gnu/h-i686-mingw32/bin/../lib/gcc/nios2-elf/4.1.2/../../../../nios2-elf/lib\libc.a(lib_a-vsnprintf.o)
                                0x52a (size before relaxing)
 .debug_str     0x000063de       0x51 e:/altera/10.1/nios2eds/bin/gnu/h-i686-mingw32/bin/../lib/gcc/nios2-elf/4.1.2/../../../../nios2-elf/lib\libc.a(lib_a-vsprintf.o)
                                0x51b (size before relaxing)
 .debug_str     0x0000642f       0x46 e:/altera/10.1/nios2eds/bin/gnu/h-i686-mingw32/bin/../lib/gcc/nios2-elf/4.1.2/../../../../nios2-elf/lib\libc.a(lib_a-wsetup.o)
                                0x4f9 (size before relaxing)
 .debug_str     0x00006475       0xfc e:/altera/10.1/nios2eds/bin/gnu/h-i686-mingw32/bin/../lib/gcc/nios2-elf/4.1.2/../../../../nios2-elf/lib\libc.a(lib_a-dtoa.o)
                                0x5ee (size before relaxing)
 .debug_str     0x00006571       0x65 e:/altera/10.1/nios2eds/bin/gnu/h-i686-mingw32/bin/../lib/gcc/nios2-elf/4.1.2/../../../../nios2-elf/lib\libc.a(lib_a-fflush.o)
                                0x51f (size before relaxing)
 .debug_str     0x000065d6      0x102 e:/altera/10.1/nios2eds/bin/gnu/h-i686-mingw32/bin/../lib/gcc/nios2-elf/4.1.2/../../../../nios2-elf/lib\libc.a(lib_a-findfp.o)
                                0x5e1 (size before relaxing)
 .debug_str     0x000066d8       0x3c e:/altera/10.1/nios2eds/bin/gnu/h-i686-mingw32/bin/../lib/gcc/nios2-elf/4.1.2/../../../../nios2-elf/lib\libc.a(lib_a-freer.o)
                                0x630 (size before relaxing)
 .debug_str     0x00006714       0x66 e:/altera/10.1/nios2eds/bin/gnu/h-i686-mingw32/bin/../lib/gcc/nios2-elf/4.1.2/../../../../nios2-elf/lib\libc.a(lib_a-fvwrite.o)
                                0x550 (size before relaxing)
 .debug_str     0x0000677a       0x5e e:/altera/10.1/nios2eds/bin/gnu/h-i686-mingw32/bin/../lib/gcc/nios2-elf/4.1.2/../../../../nios2-elf/lib\libc.a(lib_a-fwalk.o)
                                0x522 (size before relaxing)
 .debug_str     0x000067d8       0x46 e:/altera/10.1/nios2eds/bin/gnu/h-i686-mingw32/bin/../lib/gcc/nios2-elf/4.1.2/../../../../nios2-elf/lib\libc.a(lib_a-impure.o)
                                0x507 (size before relaxing)
 .debug_str     0x0000681e       0x3d e:/altera/10.1/nios2eds/bin/gnu/h-i686-mingw32/bin/../lib/gcc/nios2-elf/4.1.2/../../../../nios2-elf/lib\libc.a(lib_a-int_errno.o)
                                0x150 (size before relaxing)
 .debug_str     0x0000685b      0x212 e:/altera/10.1/nios2eds/bin/gnu/h-i686-mingw32/bin/../lib/gcc/nios2-elf/4.1.2/../../../../nios2-elf/lib\libc.a(lib_a-locale.o)
                                0x696 (size before relaxing)
 .debug_str     0x00006a6d      0x123 e:/altera/10.1/nios2eds/bin/gnu/h-i686-mingw32/bin/../lib/gcc/nios2-elf/4.1.2/../../../../nios2-elf/lib\libc.a(lib_a-makebuf.o)
                                0x5f3 (size before relaxing)
 .debug_str     0x00006b90       0x40 e:/altera/10.1/nios2eds/bin/gnu/h-i686-mingw32/bin/../lib/gcc/nios2-elf/4.1.2/../../../../nios2-elf/lib\libc.a(lib_a-memchr.o)
                                0x178 (size before relaxing)
 .debug_str     0x00006bd0       0xf8 e:/altera/10.1/nios2eds/bin/gnu/h-i686-mingw32/bin/../lib/gcc/nios2-elf/4.1.2/../../../../nios2-elf/lib\libc.a(lib_a-mprec.o)
                                0x5fb (size before relaxing)
 .debug_str     0x00006cc8       0x45 e:/altera/10.1/nios2eds/bin/gnu/h-i686-mingw32/bin/../lib/gcc/nios2-elf/4.1.2/../../../../nios2-elf/lib\libc.a(lib_a-putc.o)
                                0x4ff (size before relaxing)
 .debug_str     0x00006d0d       0x4e e:/altera/10.1/nios2eds/bin/gnu/h-i686-mingw32/bin/../lib/gcc/nios2-elf/4.1.2/../../../../nios2-elf/lib\libc.a(lib_a-reallocr.o)
                                0x5b0 (size before relaxing)
 .debug_str     0x00006d5b       0xc9 e:/altera/10.1/nios2eds/bin/gnu/h-i686-mingw32/bin/../lib/gcc/nios2-elf/4.1.2/../../../../nios2-elf/lib\libc.a(lib_a-s_isinfd.o)
                                0x177 (size before relaxing)
 .debug_str     0x00006e24       0x46 e:/altera/10.1/nios2eds/bin/gnu/h-i686-mingw32/bin/../lib/gcc/nios2-elf/4.1.2/../../../../nios2-elf/lib\libc.a(lib_a-s_isnand.o)
                                0x177 (size before relaxing)
 .debug_str     0x00006e6a       0x62 e:/altera/10.1/nios2eds/bin/gnu/h-i686-mingw32/bin/../lib/gcc/nios2-elf/4.1.2/../../../../nios2-elf/lib\libc.a(lib_a-stdio.o)
                                0x51e (size before relaxing)
 .debug_str     0x00006ecc       0x4a e:/altera/10.1/nios2eds/bin/gnu/h-i686-mingw32/bin/../lib/gcc/nios2-elf/4.1.2/../../../../nios2-elf/lib\libc.a(lib_a-wbuf.o)
                                0x4fd (size before relaxing)
 .debug_str     0x00006f16       0x4c e:/altera/10.1/nios2eds/bin/gnu/h-i686-mingw32/bin/../lib/gcc/nios2-elf/4.1.2/../../../../nios2-elf/lib\libc.a(lib_a-writer.o)
                                0x4fb (size before relaxing)
 .debug_str     0x00006f62       0x19 e:/altera/10.1/nios2eds/bin/gnu/h-i686-mingw32/bin/../lib/gcc/nios2-elf/4.1.2/../../../../nios2-elf/lib\libc.a(lib_a-callocr.o)
                                0x52f (size before relaxing)
 .debug_str     0x00006f7b       0x43 e:/altera/10.1/nios2eds/bin/gnu/h-i686-mingw32/bin/../lib/gcc/nios2-elf/4.1.2/../../../../nios2-elf/lib\libc.a(lib_a-closer.o)
                                0x4eb (size before relaxing)
 .debug_str     0x00006fbe       0x4b e:/altera/10.1/nios2eds/bin/gnu/h-i686-mingw32/bin/../lib/gcc/nios2-elf/4.1.2/../../../../nios2-elf/lib\libc.a(lib_a-fclose.o)
                                0x503 (size before relaxing)
 .debug_str     0x00007009       0x49 e:/altera/10.1/nios2eds/bin/gnu/h-i686-mingw32/bin/../lib/gcc/nios2-elf/4.1.2/../../../../nios2-elf/lib\libc.a(lib_a-fstatr.o)
                                0x5de (size before relaxing)
 .debug_str     0x00007052       0x45 e:/altera/10.1/nios2eds/bin/gnu/h-i686-mingw32/bin/../lib/gcc/nios2-elf/4.1.2/../../../../nios2-elf/lib\libc.a(lib_a-isattyr.o)
                                0x4ed (size before relaxing)
 .debug_str     0x00007097       0x43 e:/altera/10.1/nios2eds/bin/gnu/h-i686-mingw32/bin/../lib/gcc/nios2-elf/4.1.2/../../../../nios2-elf/lib\libc.a(lib_a-lseekr.o)
                                0x4f9 (size before relaxing)
 .debug_str     0x000070da       0x41 e:/altera/10.1/nios2eds/bin/gnu/h-i686-mingw32/bin/../lib/gcc/nios2-elf/4.1.2/../../../../nios2-elf/lib\libc.a(lib_a-readr.o)
                                0x4f9 (size before relaxing)
 .debug_str     0x0000711b        0xa e:/altera/10.1/nios2eds/bin/gnu/h-i686-mingw32/bin/../lib/gcc/nios2-elf/4.1.2\libgcc.a(_udivdi3.o)
                                0x1e4 (size before relaxing)
 .debug_str     0x00007125        0xa e:/altera/10.1/nios2eds/bin/gnu/h-i686-mingw32/bin/../lib/gcc/nios2-elf/4.1.2\libgcc.a(_umoddi3.o)
                                0x1e4 (size before relaxing)
 .debug_str     0x0000712f        0x8 e:/altera/10.1/nios2eds/bin/gnu/h-i686-mingw32/bin/../lib/gcc/nios2-elf/4.1.2\libgcc.a(_eq_df.o)
                                0x1eb (size before relaxing)
 .debug_str     0x00007137        0x8 e:/altera/10.1/nios2eds/bin/gnu/h-i686-mingw32/bin/../lib/gcc/nios2-elf/4.1.2\libgcc.a(_gt_df.o)
                                0x1eb (size before relaxing)
 .debug_str     0x0000713f        0x8 e:/altera/10.1/nios2eds/bin/gnu/h-i686-mingw32/bin/../lib/gcc/nios2-elf/4.1.2\libgcc.a(_lt_df.o)
                                0x1eb (size before relaxing)
 .debug_str     0x00007147      0x15f ../mf2_ddr_ucos_bsp/\libucosii_bsp.a(alt_close.o)
                                0x233 (size before relaxing)
 .debug_str     0x000072a6      0x106 ../mf2_ddr_ucos_bsp/\libucosii_bsp.a(alt_dev.o)
                                0x3a1 (size before relaxing)
 .debug_str     0x000073ac       0x56 ../mf2_ddr_ucos_bsp/\libucosii_bsp.a(alt_errno.o)
                                0x13d (size before relaxing)
 .debug_str     0x00007402       0x7e ../mf2_ddr_ucos_bsp/\libucosii_bsp.a(alt_exit.o)
                                0x18b (size before relaxing)
 .debug_str     0x00007480       0x56 ../mf2_ddr_ucos_bsp/\libucosii_bsp.a(alt_fstat.o)
                                0x314 (size before relaxing)
 .debug_str     0x000074d6       0x5e ../mf2_ddr_ucos_bsp/\libucosii_bsp.a(alt_getpid.o)
                                 0x6a (size before relaxing)
 .debug_str     0x00007534      0x13d ../mf2_ddr_ucos_bsp/\libucosii_bsp.a(alt_iic.o)
                                0x236 (size before relaxing)
 .debug_str     0x00007671       0x8e ../mf2_ddr_ucos_bsp/\libucosii_bsp.a(alt_iic_isr_register.o)
                                0x1e0 (size before relaxing)
 .debug_str     0x000076ff      0x3ed ../mf2_ddr_ucos_bsp/\libucosii_bsp.a(alt_instruction_exception_register.o)
                                0x4cc (size before relaxing)
 .debug_str     0x00007aec       0x59 ../mf2_ddr_ucos_bsp/\libucosii_bsp.a(alt_irq_vars.o)
                                0x147 (size before relaxing)
 .debug_str     0x00007b45       0x5e ../mf2_ddr_ucos_bsp/\libucosii_bsp.a(alt_isatty.o)
                                0x31c (size before relaxing)
 .debug_str     0x00007ba3       0x5a ../mf2_ddr_ucos_bsp/\libucosii_bsp.a(alt_kill.o)
                                0x156 (size before relaxing)
 .debug_str     0x00007bfd      0x12b ../mf2_ddr_ucos_bsp/\libucosii_bsp.a(alt_load.o)
                                0x20a (size before relaxing)
 .debug_str     0x00007d28       0x56 ../mf2_ddr_ucos_bsp/\libucosii_bsp.a(alt_lseek.o)
                                0x239 (size before relaxing)
 .debug_str     0x00007d7e       0x9f ../mf2_ddr_ucos_bsp/\libucosii_bsp.a(alt_main.o)
                                0x258 (size before relaxing)
 .debug_str     0x00007e1d       0x55 ../mf2_ddr_ucos_bsp/\libucosii_bsp.a(alt_read.o)
                                0x31f (size before relaxing)
 .debug_str     0x00007e72       0x6a ../mf2_ddr_ucos_bsp/\libucosii_bsp.a(alt_release_fd.o)
                                0x21d (size before relaxing)
 .debug_str     0x00007edc       0xf8 ../mf2_ddr_ucos_bsp/\libucosii_bsp.a(alt_sbrk.o)
                                0x22a (size before relaxing)
 .debug_str     0x00007fd4       0xba ../mf2_ddr_ucos_bsp/\libucosii_bsp.a(alt_tick.o)
                                0x257 (size before relaxing)
 .debug_str     0x0000808e       0x7e ../mf2_ddr_ucos_bsp/\libucosii_bsp.a(alt_usleep.o)
                                0x1a7 (size before relaxing)
 .debug_str     0x0000810c       0x56 ../mf2_ddr_ucos_bsp/\libucosii_bsp.a(alt_write.o)
                                0x320 (size before relaxing)
 .debug_str     0x00008162      0x28f ../mf2_ddr_ucos_bsp/\libucosii_bsp.a(alt_env_lock.o)
                                0x79f (size before relaxing)
 .debug_str     0x000083f1       0x84 ../mf2_ddr_ucos_bsp/\libucosii_bsp.a(alt_malloc_lock.o)
                                0x801 (size before relaxing)
 .debug_str     0x00008475      0x6ab ../mf2_ddr_ucos_bsp/\libucosii_bsp.a(os_core.o)
                                0xa81 (size before relaxing)
 .debug_str     0x00008b20      0x327 ../mf2_ddr_ucos_bsp/\libucosii_bsp.a(os_dbg.o)
                                0x9f0 (size before relaxing)
 .debug_str     0x00008e47      0x178 ../mf2_ddr_ucos_bsp/\libucosii_bsp.a(os_flag.o)
                                0x5ea (size before relaxing)
 .debug_str     0x00008fbf      0x111 ../mf2_ddr_ucos_bsp/\libucosii_bsp.a(os_mem.o)
                                0x2f3 (size before relaxing)
 .debug_str     0x000090d0      0x102 ../mf2_ddr_ucos_bsp/\libucosii_bsp.a(os_q.o)
                                0x56d (size before relaxing)
 .debug_str     0x000091d2      0x15a ../mf2_ddr_ucos_bsp/\libucosii_bsp.a(os_task.o)
                                0x5f9 (size before relaxing)
 .debug_str     0x0000932c       0xa9 ../mf2_ddr_ucos_bsp/\libucosii_bsp.a(os_time.o)
                                0x499 (size before relaxing)
 .debug_str     0x000093d5      0x165 ../mf2_ddr_ucos_bsp/\libucosii_bsp.a(os_tmr.o)
                                0x456 (size before relaxing)
 .debug_str     0x0000953a      0x19c ../mf2_ddr_ucos_bsp/\libucosii_bsp.a(alt_sys_init.o)
                                0x46a (size before relaxing)
 .debug_str     0x000096d6       0xee ../mf2_ddr_ucos_bsp/\libucosii_bsp.a(altera_avalon_jtag_uart_fd.o)
                                0x48c (size before relaxing)
 .debug_str     0x000097c4      0x123 ../mf2_ddr_ucos_bsp/\libucosii_bsp.a(altera_avalon_jtag_uart_init.o)
                                0x453 (size before relaxing)
 .debug_str     0x000098e7       0x8c ../mf2_ddr_ucos_bsp/\libucosii_bsp.a(altera_avalon_jtag_uart_ioctl.o)
                                0x37b (size before relaxing)
 .debug_str     0x00009973       0xa5 ../mf2_ddr_ucos_bsp/\libucosii_bsp.a(altera_avalon_jtag_uart_read.o)
                                0x3ee (size before relaxing)
 .debug_str     0x00009a18       0x8c ../mf2_ddr_ucos_bsp/\libucosii_bsp.a(altera_avalon_jtag_uart_write.o)
                                0x3ef (size before relaxing)
 .debug_str     0x00009aa4       0xe7 ../mf2_ddr_ucos_bsp/\libucosii_bsp.a(altera_avalon_spi.o)
                                0x1d4 (size before relaxing)
 .debug_str     0x00009b8b       0xa8 ../mf2_ddr_ucos_bsp/\libucosii_bsp.a(altera_avalon_timer_sc.o)
                                0x23c (size before relaxing)
 .debug_str     0x00009c33       0x8c ../mf2_ddr_ucos_bsp/\libucosii_bsp.a(alt_alarm_start.o)
                                0x276 (size before relaxing)
 .debug_str     0x00009cbf       0x84 ../mf2_ddr_ucos_bsp/\libucosii_bsp.a(alt_busy_sleep.o)
                                0x163 (size before relaxing)
 .debug_str     0x00009d43       0x76 ../mf2_ddr_ucos_bsp/\libucosii_bsp.a(alt_dcache_flush_all.o)
                                0x14d (size before relaxing)
 .debug_str     0x00009db9       0x84 ../mf2_ddr_ucos_bsp/\libucosii_bsp.a(alt_dev_llist_insert.o)
                                0x1c4 (size before relaxing)
 .debug_str     0x00009e3d       0x8a ../mf2_ddr_ucos_bsp/\libucosii_bsp.a(alt_do_ctors.o)
                                 0x9b (size before relaxing)
 .debug_str     0x00009ec7       0x8e ../mf2_ddr_ucos_bsp/\libucosii_bsp.a(alt_do_dtors.o)
                                 0x9a (size before relaxing)
 .debug_str     0x00009f55       0x76 ../mf2_ddr_ucos_bsp/\libucosii_bsp.a(alt_icache_flush_all.o)
                                0x14d (size before relaxing)
 .debug_str     0x00009fcb       0xc8 ../mf2_ddr_ucos_bsp/\libucosii_bsp.a(alt_instruction_exception_entry.o)
                                0x4f6 (size before relaxing)
 .debug_str     0x0000a093       0x98 ../mf2_ddr_ucos_bsp/\libucosii_bsp.a(alt_io_redirect.o)
                                0x33e (size before relaxing)
 .debug_str     0x0000a12b       0x6b ../mf2_ddr_ucos_bsp/\libucosii_bsp.a(alt_open.o)
                                0x26b (size before relaxing)
 .debug_str     0x0000a196       0x73 ../mf2_ddr_ucos_bsp/\libucosii_bsp.a(altera_nios2_irq.o)
                                0x14a (size before relaxing)
 .debug_str     0x0000a209       0x66 ../mf2_ddr_ucos_bsp/\libucosii_bsp.a(alt_find_dev.o)
                                0x214 (size before relaxing)
 .debug_str     0x0000a26f       0x68 ../mf2_ddr_ucos_bsp/\libucosii_bsp.a(alt_find_file.o)
                                0x222 (size before relaxing)
 .debug_str     0x0000a2d7       0x72 ../mf2_ddr_ucos_bsp/\libucosii_bsp.a(alt_get_fd.o)
                                0x2c0 (size before relaxing)
 .debug_str     0x0000a349       0x6e ../mf2_ddr_ucos_bsp/\libucosii_bsp.a(alt_icache_flush.o)
                                0x153 (size before relaxing)
 .debug_str     0x0000a3b7       0x3b e:/altera/10.1/nios2eds/bin/gnu/h-i686-mingw32/bin/../lib/gcc/nios2-elf/4.1.2/../../../../nios2-elf/lib\libc.a(lib_a-atexit.o)
                                0x1ac (size before relaxing)
 .debug_str     0x0000a3f2       0x39 e:/altera/10.1/nios2eds/bin/gnu/h-i686-mingw32/bin/../lib/gcc/nios2-elf/4.1.2/../../../../nios2-elf/lib\libc.a(lib_a-exit.o)
                                0x4f9 (size before relaxing)
 .debug_str     0x0000a42b       0x42 e:/altera/10.1/nios2eds/bin/gnu/h-i686-mingw32/bin/../lib/gcc/nios2-elf/4.1.2/../../../../nios2-elf/lib\libc.a(lib_a-memcmp.o)
                                0x157 (size before relaxing)
 .debug_str     0x0000a46d       0x51 e:/altera/10.1/nios2eds/bin/gnu/h-i686-mingw32/bin/../lib/gcc/nios2-elf/4.1.2/../../../../nios2-elf/lib\libc.a(lib_a-__atexit.o)
                                0x511 (size before relaxing)
 .debug_str     0x0000a4be       0x7b e:/altera/10.1/nios2eds/bin/gnu/h-i686-mingw32/bin/../lib/gcc/nios2-elf/4.1.2/../../../../nios2-elf/lib\libc.a(lib_a-__call_atexit.o)
                                0x53b (size before relaxing)

.debug_loc      0x00000000    0x2209d
 *(.debug_loc)
 .debug_loc     0x00000000       0x2b obj/alt-irq-handler.o
 .debug_loc     0x0000002b      0x12d obj/dbg_helper.o
 .debug_loc     0x00000158      0x12e obj/ddc_helper.o
 .debug_loc     0x00000286       0x2c obj/dynedid.o
 .debug_loc     0x000002b2      0x5b7 obj/ee_helper.o
 .debug_loc     0x00000869      0x286 obj/fifo_helper.o
 .debug_loc     0x00000aef       0x82 obj/i2c_master.o
 .debug_loc     0x00000b71       0x56 obj/main.o
 .debug_loc     0x00000bc7      0x433 obj/os-support.o
 .debug_loc     0x00000ffa      0x102 obj/os_bsem.o
 .debug_loc     0x000010fc      0x183 obj/os_cpu_c.o
 .debug_loc     0x0000127f      0x1ae obj/os_sem.o
 .debug_loc     0x0000142d       0x81 obj/ow.o
 .debug_loc     0x000014ae      0x102 obj/pll_helper.o
 .debug_loc     0x000015b0      0x308 obj/sys-base.o
 .debug_loc     0x000018b8       0x56 obj/touchcon.o
 .debug_loc     0x0000190e      0x206 obj/ts_helper.o
 .debug_loc     0x00001b14      0x12d obj/tvp7002_helper.o
 .debug_loc     0x00001c41       0x56 obj/uhe.o
 .debug_loc     0x00001c97      0x2b1 obj/usb/bsd-bus-dma.o
 .debug_loc     0x00001f48      0x73a obj/usb/bsd-wrap.o
 .debug_loc     0x00002682       0xac obj/usb/bus_if.o
 .debug_loc     0x0000272e       0xac obj/usb/device_if.o
 .debug_loc     0x000027da      0xd4c obj/usb/ehci.o
 .debug_loc     0x00003526      0x102 obj/usb/ehci_oxu210.o
 .debug_loc     0x00003628       0x2b obj/usb/init_main.o
 .debug_loc     0x00003653       0x56 obj/usb/kern_linker.o
 .debug_loc     0x000036a9      0x102 obj/usb/kern_module.o
 .debug_loc     0x000037ab      0x5ba obj/usb/kern_sysctl.o
 .debug_loc     0x00003d65      0x158 obj/usb/oxu210-alloc.o
 .debug_loc     0x00003ebd      0x102 obj/usb/oxu210-intr.o
 .debug_loc     0x00003fbf      0x73f obj/usb/pdev.o
 .debug_loc     0x000046fe       0x81 obj/usb/s5a-autoconf.o
 .debug_loc     0x0000477f     0x1b8c obj/usb/subr_bus.o
 .debug_loc     0x0000630b      0x25a obj/usb/subr_kobj.o
 .debug_loc     0x00006565      0x1d9 obj/usb/subr_uio.o
 .debug_loc     0x0000673e       0xac obj/usb/tc-mtouch.o
 .debug_loc     0x000067ea       0xac obj/usb/tc-zytronic.o
 .debug_loc     0x00006896      0x1da obj/usb/tc.o
 .debug_loc     0x00006a70      0x130 obj/usb/ums.o
 .debug_loc     0x00006ba0      0x409 obj/usb/usb_busdma.o
 .debug_loc     0x00006fa9      0x285 obj/usb/usb_controller.o
 .debug_loc     0x0000722e       0xd7 obj/usb/usb_debug.o
 .debug_loc     0x00007305      0x8c0 obj/usb/usb_device.o
 .debug_loc     0x00007bc5      0x158 obj/usb/usb_dynamic.o
 .debug_loc     0x00007d1d       0x2b obj/usb/usb_error.o
 .debug_loc     0x00007d48      0x185 obj/usb/usb_handle_request.o
 .debug_loc     0x00007ecd      0x25d obj/usb/usb_hid.o
 .debug_loc     0x0000812a      0x6bd obj/usb/usb_hub.o
 .debug_loc     0x000087e7      0x102 obj/usb/usb_parse.o
 .debug_loc     0x000088e9      0x183 obj/usb/usb_process.o
 .debug_loc     0x00008a6c      0x6bd obj/usb/usb_request.o
 .debug_loc     0x00009129       0x56 obj/usb/usb_s5a.o
 .debug_loc     0x0000917f      0x9c1 obj/usb/usb_transfer.o
 .debug_loc     0x00009b40      0x102 obj/usb/usb_util.o
 .debug_loc     0x00009c42      0x68e obj/usb/usbdev_oxu210.o
 .debug_loc     0x0000a2d0       0x2b obj/usb_helper.o
 .debug_loc     0x0000a2fb      0x2db obj/video_helper.o
 .debug_loc     0x0000a5d6      0x437 obj/vip_helper.o
 .debug_loc     0x0000aa0d      0xf02 e:/altera/10.1/nios2eds/bin/gnu/h-i686-mingw32/bin/../lib/gcc/nios2-elf/4.1.2/../../../../nios2-elf/lib\libstdc++.a(eh_personality.o)
 .debug_loc     0x0000b90f      0x16b e:/altera/10.1/nios2eds/bin/gnu/h-i686-mingw32/bin/../lib/gcc/nios2-elf/4.1.2/../../../../nios2-elf/lib\libstdc++.a(eh_throw.o)
 .debug_loc     0x0000ba7a       0x3d e:/altera/10.1/nios2eds/bin/gnu/h-i686-mingw32/bin/../lib/gcc/nios2-elf/4.1.2/../../../../nios2-elf/lib\libstdc++.a(eh_call.o)
 .debug_loc     0x0000bab7      0x1c3 e:/altera/10.1/nios2eds/bin/gnu/h-i686-mingw32/bin/../lib/gcc/nios2-elf/4.1.2/../../../../nios2-elf/lib\libstdc++.a(eh_catch.o)
 .debug_loc     0x0000bc7a       0x81 e:/altera/10.1/nios2eds/bin/gnu/h-i686-mingw32/bin/../lib/gcc/nios2-elf/4.1.2/../../../../nios2-elf/lib\libstdc++.a(eh_exception.o)
 .debug_loc     0x0000bcfb       0xc8 e:/altera/10.1/nios2eds/bin/gnu/h-i686-mingw32/bin/../lib/gcc/nios2-elf/4.1.2/../../../../nios2-elf/lib\libstdc++.a(eh_terminate.o)
 .debug_loc     0x0000bdc3      0x390 e:/altera/10.1/nios2eds/bin/gnu/h-i686-mingw32/bin/../lib/gcc/nios2-elf/4.1.2/../../../../nios2-elf/lib\libstdc++.a(si_class_type_info.o)
 .debug_loc     0x0000c153      0x112 e:/altera/10.1/nios2eds/bin/gnu/h-i686-mingw32/bin/../lib/gcc/nios2-elf/4.1.2/../../../../nios2-elf/lib\libstdc++.a(eh_alloc.o)
 .debug_loc     0x0000c265       0x13 e:/altera/10.1/nios2eds/bin/gnu/h-i686-mingw32/bin/../lib/gcc/nios2-elf/4.1.2/../../../../nios2-elf/lib\libstdc++.a(tinfo.o)
 .debug_loc     0x0000c278       0x1e e:/altera/10.1/nios2eds/bin/gnu/h-i686-mingw32/bin/../lib/gcc/nios2-elf/4.1.2/../../../../nios2-elf/lib\libstdc++.a(del_op.o)
 .debug_loc     0x0000c296      0x26f e:/altera/10.1/nios2eds/bin/gnu/h-i686-mingw32/bin/../lib/gcc/nios2-elf/4.1.2/../../../../nios2-elf/lib\libstdc++.a(class_type_info.o)
 .debug_loc     0x0000c505       0xcf e:/altera/10.1/nios2eds/bin/gnu/h-i686-mingw32/bin/../lib/gcc/nios2-elf/4.1.2\libgcc.a(_muldi3.o)
 .debug_loc     0x0000c5d4       0x87 e:/altera/10.1/nios2eds/bin/gnu/h-i686-mingw32/bin/../lib/gcc/nios2-elf/4.1.2\libgcc.a(_fixunsdfsi.o)
 .debug_loc     0x0000c65b       0x5f e:/altera/10.1/nios2eds/bin/gnu/h-i686-mingw32/bin/../lib/gcc/nios2-elf/4.1.2\libgcc.a(_floatdidf.o)
 .debug_loc     0x0000c6ba      0xde4 e:/altera/10.1/nios2eds/bin/gnu/h-i686-mingw32/bin/../lib/gcc/nios2-elf/4.1.2\libgcc.a(_divdi3.o)
 .debug_loc     0x0000d49e      0x47a e:/altera/10.1/nios2eds/bin/gnu/h-i686-mingw32/bin/../lib/gcc/nios2-elf/4.1.2\libgcc.a(_addsub_df.o)
 .debug_loc     0x0000d918      0x3b4 e:/altera/10.1/nios2eds/bin/gnu/h-i686-mingw32/bin/../lib/gcc/nios2-elf/4.1.2\libgcc.a(_mul_df.o)
 .debug_loc     0x0000dccc      0x1df e:/altera/10.1/nios2eds/bin/gnu/h-i686-mingw32/bin/../lib/gcc/nios2-elf/4.1.2\libgcc.a(_div_df.o)
 .debug_loc     0x0000deab       0x70 e:/altera/10.1/nios2eds/bin/gnu/h-i686-mingw32/bin/../lib/gcc/nios2-elf/4.1.2\libgcc.a(_ne_df.o)
 .debug_loc     0x0000df1b       0x70 e:/altera/10.1/nios2eds/bin/gnu/h-i686-mingw32/bin/../lib/gcc/nios2-elf/4.1.2\libgcc.a(_ge_df.o)
 .debug_loc     0x0000df8b       0x9a e:/altera/10.1/nios2eds/bin/gnu/h-i686-mingw32/bin/../lib/gcc/nios2-elf/4.1.2\libgcc.a(_si_to_df.o)
 .debug_loc     0x0000e025       0x8b e:/altera/10.1/nios2eds/bin/gnu/h-i686-mingw32/bin/../lib/gcc/nios2-elf/4.1.2\libgcc.a(_df_to_si.o)
 .debug_loc     0x0000e0b0       0x5b e:/altera/10.1/nios2eds/bin/gnu/h-i686-mingw32/bin/../lib/gcc/nios2-elf/4.1.2\libgcc.a(_usi_to_df.o)
 .debug_loc     0x0000e10b      0x1d2 e:/altera/10.1/nios2eds/bin/gnu/h-i686-mingw32/bin/../lib/gcc/nios2-elf/4.1.2\libgcc.a(lib2-divmod.o)
 .debug_loc     0x0000e2dd     0x1e02 e:/altera/10.1/nios2eds/bin/gnu/h-i686-mingw32/bin/../lib/gcc/nios2-elf/4.1.2\libgcc.a(unwind-dw2.o)
 .debug_loc     0x000100df     0x18dd e:/altera/10.1/nios2eds/bin/gnu/h-i686-mingw32/bin/../lib/gcc/nios2-elf/4.1.2\libgcc.a(unwind-dw2-fde.o)
 .debug_loc     0x000119bc       0x1e e:/altera/10.1/nios2eds/bin/gnu/h-i686-mingw32/bin/../lib/gcc/nios2-elf/4.1.2\libgcc.a(_clzsi2.o)
 .debug_loc     0x000119da      0x184 e:/altera/10.1/nios2eds/bin/gnu/h-i686-mingw32/bin/../lib/gcc/nios2-elf/4.1.2\libgcc.a(_pack_df.o)
 .debug_loc     0x00011b5e       0xe5 e:/altera/10.1/nios2eds/bin/gnu/h-i686-mingw32/bin/../lib/gcc/nios2-elf/4.1.2\libgcc.a(_unpack_df.o)
 .debug_loc     0x00011c43       0x1f e:/altera/10.1/nios2eds/bin/gnu/h-i686-mingw32/bin/../lib/gcc/nios2-elf/4.1.2/../../../../nios2-elf/lib\libc.a(lib_a-abort.o)
 .debug_loc     0x00011c62       0x4f e:/altera/10.1/nios2eds/bin/gnu/h-i686-mingw32/bin/../lib/gcc/nios2-elf/4.1.2/../../../../nios2-elf/lib\libc.a(lib_a-bcopy.o)
 .debug_loc     0x00011cb1       0x3c e:/altera/10.1/nios2eds/bin/gnu/h-i686-mingw32/bin/../lib/gcc/nios2-elf/4.1.2/../../../../nios2-elf/lib\libc.a(lib_a-malloc.o)
 .debug_loc     0x00011ced      0xaeb e:/altera/10.1/nios2eds/bin/gnu/h-i686-mingw32/bin/../lib/gcc/nios2-elf/4.1.2/../../../../nios2-elf/lib\libc.a(lib_a-mallocr.o)
 .debug_loc     0x000127d8       0xca e:/altera/10.1/nios2eds/bin/gnu/h-i686-mingw32/bin/../lib/gcc/nios2-elf/4.1.2/../../../../nios2-elf/lib\libc.a(lib_a-memcpy.o)
 .debug_loc     0x000128a2      0x117 e:/altera/10.1/nios2eds/bin/gnu/h-i686-mingw32/bin/../lib/gcc/nios2-elf/4.1.2/../../../../nios2-elf/lib\libc.a(lib_a-memmove.o)
 .debug_loc     0x000129b9       0xa1 e:/altera/10.1/nios2eds/bin/gnu/h-i686-mingw32/bin/../lib/gcc/nios2-elf/4.1.2/../../../../nios2-elf/lib\libc.a(lib_a-memset.o)
 .debug_loc     0x00012a5a       0xcb e:/altera/10.1/nios2eds/bin/gnu/h-i686-mingw32/bin/../lib/gcc/nios2-elf/4.1.2/../../../../nios2-elf/lib\libc.a(lib_a-printf.o)
 .debug_loc     0x00012b25       0x44 e:/altera/10.1/nios2eds/bin/gnu/h-i686-mingw32/bin/../lib/gcc/nios2-elf/4.1.2/../../../../nios2-elf/lib\libc.a(lib_a-putchar.o)
 .debug_loc     0x00012b69       0xa2 e:/altera/10.1/nios2eds/bin/gnu/h-i686-mingw32/bin/../lib/gcc/nios2-elf/4.1.2/../../../../nios2-elf/lib\libc.a(lib_a-puts.o)
 .debug_loc     0x00012c0b       0x42 e:/altera/10.1/nios2eds/bin/gnu/h-i686-mingw32/bin/../lib/gcc/nios2-elf/4.1.2/../../../../nios2-elf/lib\libc.a(lib_a-rand.o)
 .debug_loc     0x00012c4d       0x5b e:/altera/10.1/nios2eds/bin/gnu/h-i686-mingw32/bin/../lib/gcc/nios2-elf/4.1.2/../../../../nios2-elf/lib\libc.a(lib_a-sbrkr.o)
 .debug_loc     0x00012ca8      0x3b4 e:/altera/10.1/nios2eds/bin/gnu/h-i686-mingw32/bin/../lib/gcc/nios2-elf/4.1.2/../../../../nios2-elf/lib\libc.a(lib_a-signal.o)
 .debug_loc     0x0001305c       0x8c e:/altera/10.1/nios2eds/bin/gnu/h-i686-mingw32/bin/../lib/gcc/nios2-elf/4.1.2/../../../../nios2-elf/lib\libc.a(lib_a-signalr.o)
 .debug_loc     0x000130e8      0x23b e:/altera/10.1/nios2eds/bin/gnu/h-i686-mingw32/bin/../lib/gcc/nios2-elf/4.1.2/../../../../nios2-elf/lib\libc.a(lib_a-snprintf.o)
 .debug_loc     0x00013323       0xc0 e:/altera/10.1/nios2eds/bin/gnu/h-i686-mingw32/bin/../lib/gcc/nios2-elf/4.1.2/../../../../nios2-elf/lib\libc.a(lib_a-sprintf.o)
 .debug_loc     0x000133e3       0x65 e:/altera/10.1/nios2eds/bin/gnu/h-i686-mingw32/bin/../lib/gcc/nios2-elf/4.1.2/../../../../nios2-elf/lib\libc.a(lib_a-strcmp.o)
 .debug_loc     0x00013448       0x8b e:/altera/10.1/nios2eds/bin/gnu/h-i686-mingw32/bin/../lib/gcc/nios2-elf/4.1.2/../../../../nios2-elf/lib\libc.a(lib_a-strcpy.o)
 .debug_loc     0x000134d3       0x1e e:/altera/10.1/nios2eds/bin/gnu/h-i686-mingw32/bin/../lib/gcc/nios2-elf/4.1.2/../../../../nios2-elf/lib\libc.a(lib_a-strdup.o)
 .debug_loc     0x000134f1       0xe4 e:/altera/10.1/nios2eds/bin/gnu/h-i686-mingw32/bin/../lib/gcc/nios2-elf/4.1.2/../../../../nios2-elf/lib\libc.a(lib_a-strdup_r.o)
 .debug_loc     0x000135d5       0xac e:/altera/10.1/nios2eds/bin/gnu/h-i686-mingw32/bin/../lib/gcc/nios2-elf/4.1.2/../../../../nios2-elf/lib\libc.a(lib_a-strlcpy.o)
 .debug_loc     0x00013681       0x3c e:/altera/10.1/nios2eds/bin/gnu/h-i686-mingw32/bin/../lib/gcc/nios2-elf/4.1.2/../../../../nios2-elf/lib\libc.a(lib_a-strlen.o)
 .debug_loc     0x000136bd       0xeb e:/altera/10.1/nios2eds/bin/gnu/h-i686-mingw32/bin/../lib/gcc/nios2-elf/4.1.2/../../../../nios2-elf/lib\libc.a(lib_a-strncpy.o)
 .debug_loc     0x000137a8       0x5d e:/altera/10.1/nios2eds/bin/gnu/h-i686-mingw32/bin/../lib/gcc/nios2-elf/4.1.2/../../../../nios2-elf/lib\libc.a(lib_a-strnlen.o)
 .debug_loc     0x00013805     0x1e0d e:/altera/10.1/nios2eds/bin/gnu/h-i686-mingw32/bin/../lib/gcc/nios2-elf/4.1.2/../../../../nios2-elf/lib\libc.a(lib_a-vfprintf.o)
 .debug_loc     0x00015612       0x8b e:/altera/10.1/nios2eds/bin/gnu/h-i686-mingw32/bin/../lib/gcc/nios2-elf/4.1.2/../../../../nios2-elf/lib\libc.a(lib_a-vprintf.o)
 .debug_loc     0x0001569d      0x1a5 e:/altera/10.1/nios2eds/bin/gnu/h-i686-mingw32/bin/../lib/gcc/nios2-elf/4.1.2/../../../../nios2-elf/lib\libc.a(lib_a-vsnprintf.o)
 .debug_loc     0x00015842       0xd1 e:/altera/10.1/nios2eds/bin/gnu/h-i686-mingw32/bin/../lib/gcc/nios2-elf/4.1.2/../../../../nios2-elf/lib\libc.a(lib_a-vsprintf.o)
 .debug_loc     0x00015913       0x7c e:/altera/10.1/nios2eds/bin/gnu/h-i686-mingw32/bin/../lib/gcc/nios2-elf/4.1.2/../../../../nios2-elf/lib\libc.a(lib_a-wsetup.o)
 .debug_loc     0x0001598f     0x1dfa e:/altera/10.1/nios2eds/bin/gnu/h-i686-mingw32/bin/../lib/gcc/nios2-elf/4.1.2/../../../../nios2-elf/lib\libc.a(lib_a-dtoa.o)
 .debug_loc     0x00017789      0x1f6 e:/altera/10.1/nios2eds/bin/gnu/h-i686-mingw32/bin/../lib/gcc/nios2-elf/4.1.2/../../../../nios2-elf/lib\libc.a(lib_a-fflush.o)
 .debug_loc     0x0001797f      0x19f e:/altera/10.1/nios2eds/bin/gnu/h-i686-mingw32/bin/../lib/gcc/nios2-elf/4.1.2/../../../../nios2-elf/lib\libc.a(lib_a-findfp.o)
 .debug_loc     0x00017b1e      0x4a7 e:/altera/10.1/nios2eds/bin/gnu/h-i686-mingw32/bin/../lib/gcc/nios2-elf/4.1.2/../../../../nios2-elf/lib\libc.a(lib_a-freer.o)
 .debug_loc     0x00017fc5      0x4e4 e:/altera/10.1/nios2eds/bin/gnu/h-i686-mingw32/bin/../lib/gcc/nios2-elf/4.1.2/../../../../nios2-elf/lib\libc.a(lib_a-fvwrite.o)
 .debug_loc     0x000184a9      0x1d2 e:/altera/10.1/nios2eds/bin/gnu/h-i686-mingw32/bin/../lib/gcc/nios2-elf/4.1.2/../../../../nios2-elf/lib\libc.a(lib_a-fwalk.o)
 .debug_loc     0x0001867b       0xe1 e:/altera/10.1/nios2eds/bin/gnu/h-i686-mingw32/bin/../lib/gcc/nios2-elf/4.1.2/../../../../nios2-elf/lib\libc.a(lib_a-locale.o)
 .debug_loc     0x0001875c      0x11c e:/altera/10.1/nios2eds/bin/gnu/h-i686-mingw32/bin/../lib/gcc/nios2-elf/4.1.2/../../../../nios2-elf/lib\libc.a(lib_a-makebuf.o)
 .debug_loc     0x00018878      0x106 e:/altera/10.1/nios2eds/bin/gnu/h-i686-mingw32/bin/../lib/gcc/nios2-elf/4.1.2/../../../../nios2-elf/lib\libc.a(lib_a-memchr.o)
 .debug_loc     0x0001897e     0x14d6 e:/altera/10.1/nios2eds/bin/gnu/h-i686-mingw32/bin/../lib/gcc/nios2-elf/4.1.2/../../../../nios2-elf/lib\libc.a(lib_a-mprec.o)
 .debug_loc     0x00019e54      0x20d e:/altera/10.1/nios2eds/bin/gnu/h-i686-mingw32/bin/../lib/gcc/nios2-elf/4.1.2/../../../../nios2-elf/lib\libc.a(lib_a-putc.o)
 .debug_loc     0x0001a061      0x8c0 e:/altera/10.1/nios2eds/bin/gnu/h-i686-mingw32/bin/../lib/gcc/nios2-elf/4.1.2/../../../../nios2-elf/lib\libc.a(lib_a-reallocr.o)
 .debug_loc     0x0001a921       0x36 e:/altera/10.1/nios2eds/bin/gnu/h-i686-mingw32/bin/../lib/gcc/nios2-elf/4.1.2/../../../../nios2-elf/lib\libc.a(lib_a-s_isinfd.o)
 .debug_loc     0x0001a957       0x18 e:/altera/10.1/nios2eds/bin/gnu/h-i686-mingw32/bin/../lib/gcc/nios2-elf/4.1.2/../../../../nios2-elf/lib\libc.a(lib_a-s_isnand.o)
 .debug_loc     0x0001a96f      0x21f e:/altera/10.1/nios2eds/bin/gnu/h-i686-mingw32/bin/../lib/gcc/nios2-elf/4.1.2/../../../../nios2-elf/lib\libc.a(lib_a-stdio.o)
 .debug_loc     0x0001ab8e      0x157 e:/altera/10.1/nios2eds/bin/gnu/h-i686-mingw32/bin/../lib/gcc/nios2-elf/4.1.2/../../../../nios2-elf/lib\libc.a(lib_a-wbuf.o)
 .debug_loc     0x0001ace5       0x97 e:/altera/10.1/nios2eds/bin/gnu/h-i686-mingw32/bin/../lib/gcc/nios2-elf/4.1.2/../../../../nios2-elf/lib\libc.a(lib_a-writer.o)
 .debug_loc     0x0001ad7c       0xe9 e:/altera/10.1/nios2eds/bin/gnu/h-i686-mingw32/bin/../lib/gcc/nios2-elf/4.1.2/../../../../nios2-elf/lib\libc.a(lib_a-callocr.o)
 .debug_loc     0x0001ae65       0x5b e:/altera/10.1/nios2eds/bin/gnu/h-i686-mingw32/bin/../lib/gcc/nios2-elf/4.1.2/../../../../nios2-elf/lib\libc.a(lib_a-closer.o)
 .debug_loc     0x0001aec0       0xe4 e:/altera/10.1/nios2eds/bin/gnu/h-i686-mingw32/bin/../lib/gcc/nios2-elf/4.1.2/../../../../nios2-elf/lib\libc.a(lib_a-fclose.o)
 .debug_loc     0x0001afa4       0x79 e:/altera/10.1/nios2eds/bin/gnu/h-i686-mingw32/bin/../lib/gcc/nios2-elf/4.1.2/../../../../nios2-elf/lib\libc.a(lib_a-fstatr.o)
 .debug_loc     0x0001b01d       0x5b e:/altera/10.1/nios2eds/bin/gnu/h-i686-mingw32/bin/../lib/gcc/nios2-elf/4.1.2/../../../../nios2-elf/lib\libc.a(lib_a-isattyr.o)
 .debug_loc     0x0001b078       0x97 e:/altera/10.1/nios2eds/bin/gnu/h-i686-mingw32/bin/../lib/gcc/nios2-elf/4.1.2/../../../../nios2-elf/lib\libc.a(lib_a-lseekr.o)
 .debug_loc     0x0001b10f       0x97 e:/altera/10.1/nios2eds/bin/gnu/h-i686-mingw32/bin/../lib/gcc/nios2-elf/4.1.2/../../../../nios2-elf/lib\libc.a(lib_a-readr.o)
 .debug_loc     0x0001b1a6      0xc12 e:/altera/10.1/nios2eds/bin/gnu/h-i686-mingw32/bin/../lib/gcc/nios2-elf/4.1.2\libgcc.a(_udivdi3.o)
 .debug_loc     0x0001bdb8      0xc31 e:/altera/10.1/nios2eds/bin/gnu/h-i686-mingw32/bin/../lib/gcc/nios2-elf/4.1.2\libgcc.a(_umoddi3.o)
 .debug_loc     0x0001c9e9       0x70 e:/altera/10.1/nios2eds/bin/gnu/h-i686-mingw32/bin/../lib/gcc/nios2-elf/4.1.2\libgcc.a(_eq_df.o)
 .debug_loc     0x0001ca59       0x70 e:/altera/10.1/nios2eds/bin/gnu/h-i686-mingw32/bin/../lib/gcc/nios2-elf/4.1.2\libgcc.a(_gt_df.o)
 .debug_loc     0x0001cac9       0x70 e:/altera/10.1/nios2eds/bin/gnu/h-i686-mingw32/bin/../lib/gcc/nios2-elf/4.1.2\libgcc.a(_lt_df.o)
 .debug_loc     0x0001cb39       0xbb ../mf2_ddr_ucos_bsp/\libucosii_bsp.a(alt_close.o)
 .debug_loc     0x0001cbf4       0x9a ../mf2_ddr_ucos_bsp/\libucosii_bsp.a(alt_fstat.o)
 .debug_loc     0x0001cc8e       0x72 ../mf2_ddr_ucos_bsp/\libucosii_bsp.a(alt_iic.o)
 .debug_loc     0x0001cd00       0xf4 ../mf2_ddr_ucos_bsp/\libucosii_bsp.a(alt_iic_isr_register.o)
 .debug_loc     0x0001cdf4       0x67 ../mf2_ddr_ucos_bsp/\libucosii_bsp.a(alt_isatty.o)
 .debug_loc     0x0001ce5b       0x9a ../mf2_ddr_ucos_bsp/\libucosii_bsp.a(alt_kill.o)
 .debug_loc     0x0001cef5       0x1f ../mf2_ddr_ucos_bsp/\libucosii_bsp.a(alt_load.o)
 .debug_loc     0x0001cf14      0x123 ../mf2_ddr_ucos_bsp/\libucosii_bsp.a(alt_lseek.o)
 .debug_loc     0x0001d037       0x1f ../mf2_ddr_ucos_bsp/\libucosii_bsp.a(alt_main.o)
 .debug_loc     0x0001d056       0xec ../mf2_ddr_ucos_bsp/\libucosii_bsp.a(alt_read.o)
 .debug_loc     0x0001d142       0x31 ../mf2_ddr_ucos_bsp/\libucosii_bsp.a(alt_sbrk.o)
 .debug_loc     0x0001d173       0x71 ../mf2_ddr_ucos_bsp/\libucosii_bsp.a(alt_tick.o)
 .debug_loc     0x0001d1e4       0x79 ../mf2_ddr_ucos_bsp/\libucosii_bsp.a(alt_usleep.o)
 .debug_loc     0x0001d25d       0xec ../mf2_ddr_ucos_bsp/\libucosii_bsp.a(alt_write.o)
 .debug_loc     0x0001d349       0x64 ../mf2_ddr_ucos_bsp/\libucosii_bsp.a(alt_env_lock.o)
 .debug_loc     0x0001d3ad       0xa0 ../mf2_ddr_ucos_bsp/\libucosii_bsp.a(alt_malloc_lock.o)
 .debug_loc     0x0001d44d      0xabc ../mf2_ddr_ucos_bsp/\libucosii_bsp.a(os_core.o)
 .debug_loc     0x0001df09      0xc39 ../mf2_ddr_ucos_bsp/\libucosii_bsp.a(os_flag.o)
 .debug_loc     0x0001eb42      0x32f ../mf2_ddr_ucos_bsp/\libucosii_bsp.a(os_mem.o)
 .debug_loc     0x0001ee71      0x834 ../mf2_ddr_ucos_bsp/\libucosii_bsp.a(os_q.o)
 .debug_loc     0x0001f6a5      0xb22 ../mf2_ddr_ucos_bsp/\libucosii_bsp.a(os_task.o)
 .debug_loc     0x000201c7      0x282 ../mf2_ddr_ucos_bsp/\libucosii_bsp.a(os_time.o)
 .debug_loc     0x00020449      0x8c5 ../mf2_ddr_ucos_bsp/\libucosii_bsp.a(os_tmr.o)
 .debug_loc     0x00020d0e       0x51 ../mf2_ddr_ucos_bsp/\libucosii_bsp.a(alt_sys_init.o)
 .debug_loc     0x00020d5f       0xbe ../mf2_ddr_ucos_bsp/\libucosii_bsp.a(altera_avalon_jtag_uart_fd.o)
 .debug_loc     0x00020e1d      0x22d ../mf2_ddr_ucos_bsp/\libucosii_bsp.a(altera_avalon_jtag_uart_init.o)
 .debug_loc     0x0002104a       0x7b ../mf2_ddr_ucos_bsp/\libucosii_bsp.a(altera_avalon_jtag_uart_ioctl.o)
 .debug_loc     0x000210c5      0x19b ../mf2_ddr_ucos_bsp/\libucosii_bsp.a(altera_avalon_jtag_uart_read.o)
 .debug_loc     0x00021260      0x167 ../mf2_ddr_ucos_bsp/\libucosii_bsp.a(altera_avalon_jtag_uart_write.o)
 .debug_loc     0x000213c7       0xac ../mf2_ddr_ucos_bsp/\libucosii_bsp.a(altera_avalon_spi.o)
 .debug_loc     0x00021473       0xdc ../mf2_ddr_ucos_bsp/\libucosii_bsp.a(altera_avalon_timer_sc.o)
 .debug_loc     0x0002154f       0x31 ../mf2_ddr_ucos_bsp/\libucosii_bsp.a(alt_alarm_start.o)
 .debug_loc     0x00021580       0x5b ../mf2_ddr_ucos_bsp/\libucosii_bsp.a(alt_busy_sleep.o)
 .debug_loc     0x000215db       0x5b ../mf2_ddr_ucos_bsp/\libucosii_bsp.a(alt_dev_llist_insert.o)
 .debug_loc     0x00021636       0x32 ../mf2_ddr_ucos_bsp/\libucosii_bsp.a(alt_do_ctors.o)
 .debug_loc     0x00021668       0x32 ../mf2_ddr_ucos_bsp/\libucosii_bsp.a(alt_do_dtors.o)
 .debug_loc     0x0002169a       0x3c ../mf2_ddr_ucos_bsp/\libucosii_bsp.a(alt_instruction_exception_entry.o)
 .debug_loc     0x000216d6      0x144 ../mf2_ddr_ucos_bsp/\libucosii_bsp.a(alt_io_redirect.o)
 .debug_loc     0x0002181a      0x1fe ../mf2_ddr_ucos_bsp/\libucosii_bsp.a(alt_open.o)
 .debug_loc     0x00021a18       0xef ../mf2_ddr_ucos_bsp/\libucosii_bsp.a(alt_find_dev.o)
 .debug_loc     0x00021b07       0x9a ../mf2_ddr_ucos_bsp/\libucosii_bsp.a(alt_find_file.o)
 .debug_loc     0x00021ba1       0x8f ../mf2_ddr_ucos_bsp/\libucosii_bsp.a(alt_get_fd.o)
 .debug_loc     0x00021c30       0x13 ../mf2_ddr_ucos_bsp/\libucosii_bsp.a(alt_icache_flush.o)
 .debug_loc     0x00021c43       0x1e e:/altera/10.1/nios2eds/bin/gnu/h-i686-mingw32/bin/../lib/gcc/nios2-elf/4.1.2/../../../../nios2-elf/lib\libc.a(lib_a-atexit.o)
 .debug_loc     0x00021c61       0x3d e:/altera/10.1/nios2eds/bin/gnu/h-i686-mingw32/bin/../lib/gcc/nios2-elf/4.1.2/../../../../nios2-elf/lib\libc.a(lib_a-exit.o)
 .debug_loc     0x00021c9e      0x114 e:/altera/10.1/nios2eds/bin/gnu/h-i686-mingw32/bin/../lib/gcc/nios2-elf/4.1.2/../../../../nios2-elf/lib\libc.a(lib_a-memcmp.o)
 .debug_loc     0x00021db2      0x120 e:/altera/10.1/nios2eds/bin/gnu/h-i686-mingw32/bin/../lib/gcc/nios2-elf/4.1.2/../../../../nios2-elf/lib\libc.a(lib_a-__atexit.o)
 .debug_loc     0x00021ed2      0x1cb e:/altera/10.1/nios2eds/bin/gnu/h-i686-mingw32/bin/../lib/gcc/nios2-elf/4.1.2/../../../../nios2-elf/lib\libc.a(lib_a-__call_atexit.o)

.debug_macinfo
 *(.debug_macinfo)

.debug_weaknames
 *(.debug_weaknames)

.debug_funcnames
 *(.debug_funcnames)

.debug_typenames
 *(.debug_typenames)

.debug_varnames
 *(.debug_varnames)

.debug_alt_sim_info
                0x00000000       0x50
 *(.debug_alt_sim_info)
 .debug_alt_sim_info
                0x00000000       0x20 ../mf2_ddr_ucos_bsp//obj/HAL/src/crt0.o
 .debug_alt_sim_info
                0x00000020       0x30 ../mf2_ddr_ucos_bsp/\libucosii_bsp.a(alt_busy_sleep.o)
                0x44000000                __alt_data_end = 0x44000000
                0x44000000                PROVIDE (__alt_stack_pointer, __alt_data_end)
                0x4006c1dc                PROVIDE (__alt_stack_limit, __alt_stack_base)
                0x4006c1dc                PROVIDE (__alt_heap_start, end)
                0x44000000                PROVIDE (__alt_heap_limit, 0x44000000)
OUTPUT(mf2_ddr_usb_app.elf elf32-littlenios2)

.debug_ranges   0x00000000     0x1d38
 .debug_ranges  0x00000000       0x20 ../mf2_ddr_ucos_bsp//obj/HAL/src/crt0.o
 .debug_ranges  0x00000020       0xf8 e:/altera/10.1/nios2eds/bin/gnu/h-i686-mingw32/bin/../lib/gcc/nios2-elf/4.1.2/../../../../nios2-elf/lib\libstdc++.a(eh_personality.o)
 .debug_ranges  0x00000118       0x30 e:/altera/10.1/nios2eds/bin/gnu/h-i686-mingw32/bin/../lib/gcc/nios2-elf/4.1.2/../../../../nios2-elf/lib\libstdc++.a(eh_alloc.o)
 .debug_ranges  0x00000148       0x18 e:/altera/10.1/nios2eds/bin/gnu/h-i686-mingw32/bin/../lib/gcc/nios2-elf/4.1.2/../../../../nios2-elf/lib\libstdc++.a(class_type_info.o)
 .debug_ranges  0x00000160       0x68 e:/altera/10.1/nios2eds/bin/gnu/h-i686-mingw32/bin/../lib/gcc/nios2-elf/4.1.2\libgcc.a(_muldi3.o)
 .debug_ranges  0x000001c8      0x1b0 e:/altera/10.1/nios2eds/bin/gnu/h-i686-mingw32/bin/../lib/gcc/nios2-elf/4.1.2\libgcc.a(_divdi3.o)
 .debug_ranges  0x00000378       0x30 e:/altera/10.1/nios2eds/bin/gnu/h-i686-mingw32/bin/../lib/gcc/nios2-elf/4.1.2\libgcc.a(_addsub_df.o)
 .debug_ranges  0x000003a8       0x88 e:/altera/10.1/nios2eds/bin/gnu/h-i686-mingw32/bin/../lib/gcc/nios2-elf/4.1.2\libgcc.a(_mul_df.o)
 .debug_ranges  0x00000430       0x50 e:/altera/10.1/nios2eds/bin/gnu/h-i686-mingw32/bin/../lib/gcc/nios2-elf/4.1.2\libgcc.a(_div_df.o)
 .debug_ranges  0x00000480       0x18 e:/altera/10.1/nios2eds/bin/gnu/h-i686-mingw32/bin/../lib/gcc/nios2-elf/4.1.2\libgcc.a(_usi_to_df.o)
 .debug_ranges  0x00000498      0x720 e:/altera/10.1/nios2eds/bin/gnu/h-i686-mingw32/bin/../lib/gcc/nios2-elf/4.1.2\libgcc.a(unwind-dw2.o)
 .debug_ranges  0x00000bb8      0x418 e:/altera/10.1/nios2eds/bin/gnu/h-i686-mingw32/bin/../lib/gcc/nios2-elf/4.1.2\libgcc.a(unwind-dw2-fde.o)
 .debug_ranges  0x00000fd0       0x28 e:/altera/10.1/nios2eds/bin/gnu/h-i686-mingw32/bin/../lib/gcc/nios2-elf/4.1.2\libgcc.a(_clzsi2.o)
 .debug_ranges  0x00000ff8       0x28 e:/altera/10.1/nios2eds/bin/gnu/h-i686-mingw32/bin/../lib/gcc/nios2-elf/4.1.2\libgcc.a(_pack_df.o)
 .debug_ranges  0x00001020       0x70 e:/altera/10.1/nios2eds/bin/gnu/h-i686-mingw32/bin/../lib/gcc/nios2-elf/4.1.2/../../../../nios2-elf/lib\libc.a(lib_a-mallocr.o)
 .debug_ranges  0x00001090      0x168 e:/altera/10.1/nios2eds/bin/gnu/h-i686-mingw32/bin/../lib/gcc/nios2-elf/4.1.2/../../../../nios2-elf/lib\libc.a(lib_a-vfprintf.o)
 .debug_ranges  0x000011f8       0x20 e:/altera/10.1/nios2eds/bin/gnu/h-i686-mingw32/bin/../lib/gcc/nios2-elf/4.1.2/../../../../nios2-elf/lib\libc.a(lib_a-fflush.o)
 .debug_ranges  0x00001218       0x28 e:/altera/10.1/nios2eds/bin/gnu/h-i686-mingw32/bin/../lib/gcc/nios2-elf/4.1.2/../../../../nios2-elf/lib\libc.a(lib_a-fvwrite.o)
 .debug_ranges  0x00001240       0xa0 e:/altera/10.1/nios2eds/bin/gnu/h-i686-mingw32/bin/../lib/gcc/nios2-elf/4.1.2/../../../../nios2-elf/lib\libc.a(lib_a-fwalk.o)
 .debug_ranges  0x000012e0      0x110 e:/altera/10.1/nios2eds/bin/gnu/h-i686-mingw32/bin/../lib/gcc/nios2-elf/4.1.2/../../../../nios2-elf/lib\libc.a(lib_a-reallocr.o)
 .debug_ranges  0x000013f0       0x38 e:/altera/10.1/nios2eds/bin/gnu/h-i686-mingw32/bin/../lib/gcc/nios2-elf/4.1.2/../../../../nios2-elf/lib\libc.a(lib_a-callocr.o)
 .debug_ranges  0x00001428      0x188 e:/altera/10.1/nios2eds/bin/gnu/h-i686-mingw32/bin/../lib/gcc/nios2-elf/4.1.2\libgcc.a(_udivdi3.o)
 .debug_ranges  0x000015b0      0x198 e:/altera/10.1/nios2eds/bin/gnu/h-i686-mingw32/bin/../lib/gcc/nios2-elf/4.1.2\libgcc.a(_umoddi3.o)
 .debug_ranges  0x00001748       0x28 ../mf2_ddr_ucos_bsp/\libucosii_bsp.a(alt_irq_entry.o)
 .debug_ranges  0x00001770       0x18 ../mf2_ddr_ucos_bsp/\libucosii_bsp.a(alt_kill.o)
 .debug_ranges  0x00001788       0x18 ../mf2_ddr_ucos_bsp/\libucosii_bsp.a(alt_main.o)
 .debug_ranges  0x000017a0      0x1c0 ../mf2_ddr_ucos_bsp/\libucosii_bsp.a(os_core.o)
 .debug_ranges  0x00001960       0x18 ../mf2_ddr_ucos_bsp/\libucosii_bsp.a(os_mem.o)
 .debug_ranges  0x00001978       0x48 ../mf2_ddr_ucos_bsp/\libucosii_bsp.a(os_q.o)
 .debug_ranges  0x000019c0       0x60 ../mf2_ddr_ucos_bsp/\libucosii_bsp.a(os_task.o)
 .debug_ranges  0x00001a20       0x30 ../mf2_ddr_ucos_bsp/\libucosii_bsp.a(os_tmr.o)
 .debug_ranges  0x00001a50       0x18 ../mf2_ddr_ucos_bsp/\libucosii_bsp.a(alt_sys_init.o)
 .debug_ranges  0x00001a68      0x108 ../mf2_ddr_ucos_bsp/\libucosii_bsp.a(altera_avalon_jtag_uart_init.o)
 .debug_ranges  0x00001b70       0x58 ../mf2_ddr_ucos_bsp/\libucosii_bsp.a(altera_avalon_jtag_uart_read.o)
 .debug_ranges  0x00001bc8       0x88 ../mf2_ddr_ucos_bsp/\libucosii_bsp.a(altera_avalon_jtag_uart_write.o)
 .debug_ranges  0x00001c50       0x18 ../mf2_ddr_ucos_bsp/\libucosii_bsp.a(altera_avalon_timer_sc.o)
 .debug_ranges  0x00001c68       0x18 ../mf2_ddr_ucos_bsp/\libucosii_bsp.a(alt_dev_llist_insert.o)
 .debug_ranges  0x00001c80       0x30 ../mf2_ddr_ucos_bsp/\libucosii_bsp.a(alt_exception_entry.o)
 .debug_ranges  0x00001cb0       0x30 ../mf2_ddr_ucos_bsp/\libucosii_bsp.a(alt_open.o)
 .debug_ranges  0x00001ce0       0x40 ../mf2_ddr_ucos_bsp/\libucosii_bsp.a(alt_get_fd.o)
 .debug_ranges  0x00001d20       0x18 e:/altera/10.1/nios2eds/bin/gnu/h-i686-mingw32/bin/../lib/gcc/nios2-elf/4.1.2/../../../../nios2-elf/lib\libc.a(lib_a-__call_atexit.o)
